 xerces-c_1_7_0

 Timestamp is 3c87f46f (Thu Mar 07 18:14:55 2002)

 Preferred load address is 12000000

 Start         Length     Name                   Class
 0001:00000000 000c05e0H .text                   CODE
 0001:000c05e0 0000df39H .text$x                 CODE
 0002:00000000 00000130H .idata$5                DATA
 0002:00000130 0001e354H .rdata                  DATA
 0002:0001e488 00000044H .rdata$r                DATA
 0002:0001e4d0 00012198H .xdata$x                DATA
 0002:00030668 00000050H .idata$2                DATA
 0002:000306b8 00000014H .idata$3                DATA
 0002:000306cc 00000130H .idata$4                DATA
 0002:000307fc 00000476H .idata$6                DATA
 0002:00030c80 00049377H .edata                  DATA
 0003:00000000 00000004H .CRT$XCA                DATA
 0003:00000004 00000054H .CRT$XCU                DATA
 0003:00000058 00000004H .CRT$XCZ                DATA
 0003:0000005c 00000004H .CRT$XIA                DATA
 0003:00000060 00000004H .CRT$XIZ                DATA
 0003:00000070 000128e0H .data                   DATA
 0003:00012950 00000a84H .bss                    DATA
 0004:00000000 00000970H .rsrc$01                DATA
 0004:00000970 00013178H .rsrc$02                DATA

  Address         Publics by Value              Rva+Base     Lib:Object

 0001:00000000       ??1XMLMsgLoader@@UAE@XZ    12001000 f i Win32PlatformUtils.obj
 0001:00000020       ??_EXMLMsgLoader@@UAEPAXI@Z 12001020 f i Win32PlatformUtils.obj
 0001:00000080       ??0XMLMsgLoader@@IAE@XZ    12001080 f i Win32PlatformUtils.obj
 0001:00000090       ?setLanguageName@XMLMsgLoader@@IAEXQAG@Z 12001090 f i Win32PlatformUtils.obj
 0001:000000b0       ??1XMLErrorReporter@@UAE@XZ 120010b0 f i Win32PlatformUtils.obj
 0001:000000c0       ??0XMLErrorReporter@@IAE@XZ 120010c0 f i Win32PlatformUtils.obj
 0001:000000d0       ??_EXMLErrorReporter@@UAEPAXI@Z 120010d0 f i Win32PlatformUtils.obj
 0001:00000130       ?getAttName@XMLAttr@@QBEPAVQName@@XZ 12001130 f i Win32PlatformUtils.obj
 0001:00000130       ?getScanner@XMLValidator@@IAEPAVXMLScanner@@XZ 12001130 f i Win32PlatformUtils.obj
 0001:00000130       ?getNoParen@RegxParser@@QBEHXZ 12001130 f i Win32PlatformUtils.obj
 0001:00000130       ?getScanner@XMLValidator@@IBEPBVXMLScanner@@XZ 12001130 f i Win32PlatformUtils.obj
 0001:00000130       ?getEmptyNamespaceId@XMLScanner@@QBEIXZ 12001130 f i Win32PlatformUtils.obj
 0001:00000130       ?getPort@XMLUri@@QBEHXZ    12001130 f i Win32PlatformUtils.obj
 0001:00000130       ?getPath@XMLURL@@QBEPBGXZ  12001130 f i Win32PlatformUtils.obj
 0001:00000130       ?getMessage@XMLException@@QBEPBGXZ 12001130 f i Win32PlatformUtils.obj
 0001:00000130       ?getPublicId@XMLEntityDecl@@QBEPBGXZ 12001130 f i Win32PlatformUtils.obj
 0001:00000130       ?getType@DatatypeValidator@@QBE?AW4ValidatorType@1@XZ 12001130 f i Win32PlatformUtils.obj
 0001:00000130       ?getScopeDefined@ComplexTypeInfo@@QBEHXZ 12001130 f i Win32PlatformUtils.obj
 0001:00000130       ?getCategories@RangeTokenMap@@IBEPAVXMLStringPool@@XZ 12001130 f i Win32PlatformUtils.obj
 0001:00000130       ?curPos@BinMemInputStream@@UBEIXZ 12001130 f i Win32PlatformUtils.obj
 0001:00000140       ?getSrcFile@XMLException@@QBEPBDXZ 12001140 f i Win32PlatformUtils.obj
 0001:00000150       ?getFinalSet@ComplexTypeInfo@@QBEHXZ 12001150 f i Win32PlatformUtils.obj
 0001:00000150       ?getErrorCount@XMLScanner@@QAEHXZ 12001150 f i Win32PlatformUtils.obj
 0001:00000150       ?getNotationName@XMLEntityDecl@@QBEPBGXZ 12001150 f i Win32PlatformUtils.obj
 0001:00000150       ?getId@XMLAttDef@@QBEIXZ   12001150 f i Win32PlatformUtils.obj
 0001:00000150       ?getRootElemId@DTDGrammar@@QAEIXZ 12001150 f i Win32PlatformUtils.obj
 0001:00000150       ?getReaderMgr@XMLValidator@@IBEPBVReaderMgr@@XZ 12001150 f i Win32PlatformUtils.obj
 0001:00000150       ?getId@XMLElementDecl@@QBEIXZ 12001150 f i Win32PlatformUtils.obj
 0001:00000150       ?getMax@ClosureToken@@UBEHXZ 12001150 f i Win32PlatformUtils.obj
 0001:00000150       ?getReaderMgr@XMLValidator@@IAEPAVReaderMgr@@XZ 12001150 f i Win32PlatformUtils.obj
 0001:00000150       ?getHost@XMLUri@@QBEPBGXZ  12001150 f i Win32PlatformUtils.obj
 0001:00000150       ?getSystemId@XMLNotationDecl@@QBEPBGXZ 12001150 f i Win32PlatformUtils.obj
 0001:00000150       ?getString@StringToken@@UBEPBGXZ 12001150 f i Win32PlatformUtils.obj
 0001:00000150       ?getRangeMap@RangeTokenMap@@IBEPAV?$RefHashTableOf@VRangeFactory@@@@XZ 12001150 f i Win32PlatformUtils.obj
 0001:00000150       ?getOffset@RegxParser@@QBEHXZ 12001150 f i Win32PlatformUtils.obj
 0001:00000150       ?getSrcLine@XMLException@@QBEIXZ 12001150 f i Win32PlatformUtils.obj
 0001:00000150       ?getSelector@IdentityConstraint@@QBEPAVIC_Selector@@XZ 12001150 f i Win32PlatformUtils.obj
 0001:00000150       ?getSystemId@InputSource@@QBEPBGXZ 12001150 f i Win32PlatformUtils.obj
 0001:00000150       ?getConditionToken@ConditionToken@@QBEPAVToken@@XZ 12001150 f i Win32PlatformUtils.obj
 0001:00000150       ?getCompleteWildCard@XercesAttGroupInfo@@QBEPAVSchemaAttDef@@XZ 12001150 f i Win32PlatformUtils.obj
 0001:00000150       ?getOptionsMask@ModifierToken@@QBEHXZ 12001150 f i Win32PlatformUtils.obj
 0001:00000150       ?getPassword@XMLURL@@QBEPBGXZ 12001150 f i Win32PlatformUtils.obj
 0001:00000150       ?getFixed@DatatypeValidator@@IBEHXZ 12001150 f i Win32PlatformUtils.obj
 0001:00000160       ?getErrorType@XMLException@@QBE?AW4ErrTypes@XMLErrorReporter@@XZ 12001160 f i Win32PlatformUtils.obj
 0001:000001a0       ??0XMLPlatformUtilsException@@QAE@QBDIW4Codes@XMLExcepts@@@Z 120011a0 f i Win32PlatformUtils.obj
 0001:00000200       ??0XMLPlatformUtilsException@@QAE@ABV0@@Z 12001200 f i Win32PlatformUtils.obj
 0001:00000220       ??0XMLPlatformUtilsException@@QAE@QBDIW4Codes@XMLExcepts@@QBG222@Z 12001220 f i Win32PlatformUtils.obj
 0001:00000290       ??0XMLPlatformUtilsException@@QAE@QBDIW4Codes@XMLExcepts@@0000@Z 12001290 f i Win32PlatformUtils.obj
 0001:00000300       ??1XMLPlatformUtilsException@@UAE@XZ 12001300 f i Win32PlatformUtils.obj
 0001:00000310       ?duplicate@XMLPlatformUtilsException@@UBEPAVXMLException@@XZ 12001310 f i Win32PlatformUtils.obj
 0001:00000370       ?getType@XMLPlatformUtilsException@@UBEPBGXZ 12001370 f i Win32PlatformUtils.obj
 0001:00000380       ??_EXMLPlatformUtilsException@@UAEPAXI@Z 12001380 f i Win32PlatformUtils.obj
 0001:000003e0       ??1XMLDeleter@@UAE@XZ      120013e0 f i Win32PlatformUtils.obj
 0001:000003f0       ??_EXMLDeleter@@UAEPAXI@Z  120013f0 f i Win32PlatformUtils.obj
 0001:00000450       ??0XMLDeleter@@IAE@XZ      12001450 f i Win32PlatformUtils.obj
 0001:00000460       ??0RuntimeException@@QAE@QBDIW4Codes@XMLExcepts@@@Z 12001460 f i Win32PlatformUtils.obj
 0001:000004c0       ??0RuntimeException@@QAE@ABV0@@Z 120014c0 f i Win32PlatformUtils.obj
 0001:000004e0       ??0RuntimeException@@QAE@QBDIW4Codes@XMLExcepts@@QBG222@Z 120014e0 f i Win32PlatformUtils.obj
 0001:00000550       ??0RuntimeException@@QAE@QBDIW4Codes@XMLExcepts@@0000@Z 12001550 f i Win32PlatformUtils.obj
 0001:000005c0       ??1RuntimeException@@UAE@XZ 120015c0 f i Win32PlatformUtils.obj
 0001:000005d0       ?duplicate@RuntimeException@@UBEPAVXMLException@@XZ 120015d0 f i Win32PlatformUtils.obj
 0001:00000630       ?getType@RuntimeException@@UBEPBGXZ 12001630 f i Win32PlatformUtils.obj
 0001:00000640       ??_ERuntimeException@@UAEPAXI@Z 12001640 f i Win32PlatformUtils.obj
 0001:000006a0       ??0ArrayIndexOutOfBoundsException@@QAE@QBDIW4Codes@XMLExcepts@@@Z 120016a0 f i Win32PlatformUtils.obj
 0001:00000700       ??0ArrayIndexOutOfBoundsException@@QAE@ABV0@@Z 12001700 f i Win32PlatformUtils.obj
 0001:00000720       ??0ArrayIndexOutOfBoundsException@@QAE@QBDIW4Codes@XMLExcepts@@QBG222@Z 12001720 f i Win32PlatformUtils.obj
 0001:00000790       ??0ArrayIndexOutOfBoundsException@@QAE@QBDIW4Codes@XMLExcepts@@0000@Z 12001790 f i Win32PlatformUtils.obj
 0001:00000800       ??1ArrayIndexOutOfBoundsException@@UAE@XZ 12001800 f i Win32PlatformUtils.obj
 0001:00000810       ?duplicate@ArrayIndexOutOfBoundsException@@UBEPAVXMLException@@XZ 12001810 f i Win32PlatformUtils.obj
 0001:00000870       ?getType@ArrayIndexOutOfBoundsException@@UBEPBGXZ 12001870 f i Win32PlatformUtils.obj
 0001:00000880       ??_EArrayIndexOutOfBoundsException@@UAEPAXI@Z 12001880 f i Win32PlatformUtils.obj
 0001:000008e0       ??4XercesElementWildcard@@QAEAAV0@ABV0@@Z 120018e0 f i Win32PlatformUtils.obj
 0001:000008e0       ??4XMLUniCharacter@@QAEAAV0@ABV0@@Z 120018e0 f i Win32PlatformUtils.obj
 0001:000008e0       ??4HexBin@@QAEAAV0@ABV0@@Z 120018e0 f i Win32PlatformUtils.obj
 0001:000008e0       ??4XMLPlatformUtils@@QAEAAV0@ABV0@@Z 120018e0 f i Win32PlatformUtils.obj
 0001:000008e0       ??4XUtil@@QAEAAV0@ABV0@@Z  120018e0 f i Win32PlatformUtils.obj
 0001:000008e0       ??4XMLString@@QAEAAV0@ABV0@@Z 120018e0 f i Win32PlatformUtils.obj
 0001:000008e0       ??4Base64@@QAEAAV0@ABV0@@Z 120018e0 f i Win32PlatformUtils.obj
 0001:000008e0       ??4RegxUtil@@QAEAAV0@ABV0@@Z 120018e0 f i Win32PlatformUtils.obj
 0001:000008e0       ??4SchemaSymbols@@QAEAAV0@ABV0@@Z 120018e0 f i Win32PlatformUtils.obj
 0001:000008e0       ??4XMLReaderFactory@@QAEAAV0@ABV0@@Z 120018e0 f i Win32PlatformUtils.obj
 0001:000008e0       ??4XMLUni@@QAEAAV0@ABV0@@Z 120018e0 f i Win32PlatformUtils.obj
 0001:000008e0       ??4XPathSymbols@@QAEAAV0@ABV0@@Z 120018e0 f i Win32PlatformUtils.obj
 0001:000008f0       ?moveChars@XMLString@@SAXQAGQBGI@Z 120018f0 f i Win32PlatformUtils.obj
 0001:00000920       ?stringLen@XMLString@@SAIQBG@Z 12001920 f i Win32PlatformUtils.obj
 0001:00000950       ?startsWith@XMLString@@SA_NQBG0@Z 12001950 f i Win32PlatformUtils.obj
 0001:00000990       ?startsWithI@XMLString@@SA_NQBG0@Z 12001990 f i Win32PlatformUtils.obj
 0001:000009d0       ?endsWith@XMLString@@SA_NQBG0@Z 120019d0 f i Win32PlatformUtils.obj
 0001:00000a50       ?replicate@XMLString@@SAPAGQBG@Z 12001a50 f i Win32PlatformUtils.obj
 0001:00000ab0       ?validateRegion@XMLString@@CA_NQBGH0HI@Z 12001ab0 f i Win32PlatformUtils.obj
 0001:00000b30       ?getPublicId@InputSource@@QBEPBGXZ 12001b30 f i Win32PlatformUtils.obj
 0001:00000b30       ?getOptions@ModifierToken@@QBEHXZ 12001b30 f i Win32PlatformUtils.obj
 0001:00000b30       ?getIdentityConstraint@IC_Field@@QBEPAVIdentityConstraint@@XZ 12001b30 f i Win32PlatformUtils.obj
 0001:00000b30       ?getTokenRegistry@RangeTokenMap@@IBEPAV?$RefHashTableOf@VRangeTokenElemMap@@@@XZ 12001b30 f i Win32PlatformUtils.obj
 0001:00000b30       ?getKey@XMLEntityDecl@@QBEPBGXZ 12001b30 f i Win32PlatformUtils.obj
 0001:00000b30       ?getName@XMLEntityDecl@@QBEPBGXZ 12001b30 f i Win32PlatformUtils.obj
 0001:00000b30       ?getBlockSet@ComplexTypeInfo@@QBEHXZ 12001b30 f i Win32PlatformUtils.obj
 0001:00000b30       ?getPublicId@XMLNotationDecl@@QBEPBGXZ 12001b30 f i Win32PlatformUtils.obj
 0001:00000b30       ?getEnumeration@XMLAttDef@@QBEPBGXZ 12001b30 f i Win32PlatformUtils.obj
 0001:00000b30       ?getElementName@IdentityConstraint@@QBEPAGXZ 12001b30 f i Win32PlatformUtils.obj
 0001:00000b30       ?getHost@XMLURL@@QBEPBGXZ  12001b30 f i Win32PlatformUtils.obj
 0001:00000b30       ?getMin@ClosureToken@@UBEHXZ 12001b30 f i Win32PlatformUtils.obj
 0001:00000b30       ?curPos@BinHTTPURLInputStream@@UBEIXZ 12001b30 f i Win32PlatformUtils.obj
 0001:00000b30       ?getReferenceNo@ConditionToken@@UBEHXZ 12001b30 f i Win32PlatformUtils.obj
 0001:00000b30       ?getUserInfo@XMLUri@@QBEPBGXZ 12001b30 f i Win32PlatformUtils.obj
 0001:00000b30       ?getLocalPart@QName@@QAEPAGXZ 12001b30 f i Win32PlatformUtils.obj
 0001:00000b30       ?getNoParen@ParenToken@@UBEHXZ 12001b30 f i Win32PlatformUtils.obj
 0001:00000b30       ?getReferenceNo@StringToken@@UBEHXZ 12001b30 f i Win32PlatformUtils.obj
 0001:00000b30       ?getValue@XMLAttr@@QBEPBGXZ 12001b30 f i Win32PlatformUtils.obj
 0001:00000b30       ?getFacetsDefined@DatatypeValidator@@IBEHXZ 12001b30 f i Win32PlatformUtils.obj
 0001:00000b30       ?getNextOp@Op@@QBEPBV1@XZ  12001b30 f i Win32PlatformUtils.obj
 0001:00000b30       ?getCreateReason@XMLElementDecl@@QBE?AW4CreateReasons@1@XZ 12001b30 f i Win32PlatformUtils.obj
 0001:00000b30       ?getScale@XMLBigDecimal@@QBEIXZ 12001b30 f i Win32PlatformUtils.obj
 0001:00000b30       ?getIdentityConstraint@ValueStore@@QBEPAVIdentityConstraint@@XZ 12001b30 f i Win32PlatformUtils.obj
 0001:00000b30       ?getEncodingName@XMLTranscoder@@QBEPBGXZ 12001b30 f i Win32PlatformUtils.obj
 0001:00000b30       ?getLocationPaths@XercesXPath@@QBEPAV?$RefVectorOf@VXercesLocationPath@@@@XZ 12001b30 f i Win32PlatformUtils.obj
 0001:00000b30       ?getChar@CharToken@@UBEHXZ 12001b30 f i Win32PlatformUtils.obj
 0001:00000b30       ?getLocalPart@QName@@QBEPBGXZ 12001b30 f i Win32PlatformUtils.obj
 0001:00000b40       ??0HashBase@@QAE@XZ        12001b40 f i Win32PlatformUtils.obj
 0001:00000b50       ??0HashBase@@QAE@ABV0@@Z   12001b50 f i Win32PlatformUtils.obj
 0001:00000b60       ??4IDOM_Attr@@IAEAAV0@ABV0@@Z 12001b60 f i Win32PlatformUtils.obj
 0001:00000b60       ??4HashXMLCh@@QAEAAV0@ABV0@@Z 12001b60 f i Win32PlatformUtils.obj
 0001:00000b60       ??4IDOM_NodeFilter@@IAEAAV0@ABV0@@Z 12001b60 f i Win32PlatformUtils.obj
 0001:00000b60       ??4HashPtr@@QAEAAV0@ABV0@@Z 12001b60 f i Win32PlatformUtils.obj
 0001:00000b60       ??4IDOM_CDATASection@@IAEAAV0@ABV0@@Z 12001b60 f i Win32PlatformUtils.obj
 0001:00000b60       ??4IDOM_Document@@IAEAAV0@ABV0@@Z 12001b60 f i Win32PlatformUtils.obj
 0001:00000b60       ??4IDOM_Entity@@IAEAAV0@ABV0@@Z 12001b60 f i Win32PlatformUtils.obj
 0001:00000b60       ??4IDOM_NodeList@@IAEAAV0@ABV0@@Z 12001b60 f i Win32PlatformUtils.obj
 0001:00000b60       ??4Grammar@@QAEAAV0@ABV0@@Z 12001b60 f i Win32PlatformUtils.obj
 0001:00000b60       ??4HashBase@@QAEAAV0@ABV0@@Z 12001b60 f i Win32PlatformUtils.obj
 0001:00000b60       ??4IDOM_Node@@IAEAAV0@ABV0@@Z 12001b60 f i Win32PlatformUtils.obj
 0001:00000b60       ??4IDOM_NodeIterator@@IAEAAV0@ABV0@@Z 12001b60 f i Win32PlatformUtils.obj
 0001:00000b60       ??4IDOM_TreeWalker@@IAEAAV0@ABV0@@Z 12001b60 f i Win32PlatformUtils.obj
 0001:00000b60       ??4IDOM_Element@@IAEAAV0@ABV0@@Z 12001b60 f i Win32PlatformUtils.obj
 0001:00000b60       ??4IDOM_Range@@IAEAAV0@ABV0@@Z 12001b60 f i Win32PlatformUtils.obj
 0001:00000b60       ??4IDOM_EntityReference@@IAEAAV0@ABV0@@Z 12001b60 f i Win32PlatformUtils.obj
 0001:00000b60       ??4IDOM_DocumentType@@IAEAAV0@ABV0@@Z 12001b60 f i Win32PlatformUtils.obj
 0001:00000b60       ??4XMLNumber@@QAEAAV0@ABV0@@Z 12001b60 f i Win32PlatformUtils.obj
 0001:00000b60       ??4XMLAttDefList@@IAEAAV0@ABV0@@Z 12001b60 f i Win32PlatformUtils.obj
 0001:00000b60       ??4HashCMStateSet@@QAEAAV0@ABV0@@Z 12001b60 f i Win32PlatformUtils.obj
 0001:00000b60       ??4IDOM_DocumentFragment@@IAEAAV0@ABV0@@Z 12001b60 f i Win32PlatformUtils.obj
 0001:00000b60       ??4IDOM_Comment@@IAEAAV0@ABV0@@Z 12001b60 f i Win32PlatformUtils.obj
 0001:00000b60       ??4IDOM_DOMImplementation@@IAEAAV0@ABV0@@Z 12001b60 f i Win32PlatformUtils.obj
 0001:00000b60       ??4IDOM_Notation@@IAEAAV0@ABV0@@Z 12001b60 f i Win32PlatformUtils.obj
 0001:00000b60       ??4IDOM_NamedNodeMap@@IAEAAV0@ABV0@@Z 12001b60 f i Win32PlatformUtils.obj
 0001:00000b60       ??4IDOM_ProcessingInstruction@@IAEAAV0@ABV0@@Z 12001b60 f i Win32PlatformUtils.obj
 0001:00000b60       ??4IDOM_CharacterData@@IAEAAV0@ABV0@@Z 12001b60 f i Win32PlatformUtils.obj
 0001:00000b60       ??4IDOM_Text@@IAEAAV0@ABV0@@Z 12001b60 f i Win32PlatformUtils.obj
 0001:00000b70       ??0IllegalArgumentException@@QAE@QBDIW4Codes@XMLExcepts@@@Z 12001b70 f i Win32PlatformUtils.obj
 0001:00000bd0       ??0IllegalArgumentException@@QAE@ABV0@@Z 12001bd0 f i Win32PlatformUtils.obj
 0001:00000bf0       ??0IllegalArgumentException@@QAE@QBDIW4Codes@XMLExcepts@@QBG222@Z 12001bf0 f i Win32PlatformUtils.obj
 0001:00000c60       ??0IllegalArgumentException@@QAE@QBDIW4Codes@XMLExcepts@@0000@Z 12001c60 f i Win32PlatformUtils.obj
 0001:00000cd0       ??1IllegalArgumentException@@UAE@XZ 12001cd0 f i Win32PlatformUtils.obj
 0001:00000ce0       ?duplicate@IllegalArgumentException@@UBEPAVXMLException@@XZ 12001ce0 f i Win32PlatformUtils.obj
 0001:00000d40       ?getType@IllegalArgumentException@@UBEPBGXZ 12001d40 f i Win32PlatformUtils.obj
 0001:00000d50       ??_EIllegalArgumentException@@UAEPAXI@Z 12001d50 f i Win32PlatformUtils.obj
 0001:00000db0       ??0NoSuchElementException@@QAE@QBDIW4Codes@XMLExcepts@@@Z 12001db0 f i Win32PlatformUtils.obj
 0001:00000e10       ??0NoSuchElementException@@QAE@ABV0@@Z 12001e10 f i Win32PlatformUtils.obj
 0001:00000e30       ??0NoSuchElementException@@QAE@QBDIW4Codes@XMLExcepts@@QBG222@Z 12001e30 f i Win32PlatformUtils.obj
 0001:00000ea0       ??0NoSuchElementException@@QAE@QBDIW4Codes@XMLExcepts@@0000@Z 12001ea0 f i Win32PlatformUtils.obj
 0001:00000f10       ??1NoSuchElementException@@UAE@XZ 12001f10 f i Win32PlatformUtils.obj
 0001:00000f20       ?duplicate@NoSuchElementException@@UBEPAVXMLException@@XZ 12001f20 f i Win32PlatformUtils.obj
 0001:00000f80       ?getType@NoSuchElementException@@UBEPBGXZ 12001f80 f i Win32PlatformUtils.obj
 0001:00000f90       ??_ENoSuchElementException@@UAEPAXI@Z 12001f90 f i Win32PlatformUtils.obj
 0001:00000ff0       ??0HashXMLCh@@QAE@ABV0@@Z  12001ff0 f i Win32PlatformUtils.obj
 0001:00001000       ??_EHashXMLCh@@UAEPAXI@Z   12002000 f i Win32PlatformUtils.obj
 0001:00001060       ??0NullPointerException@@QAE@QBDIW4Codes@XMLExcepts@@@Z 12002060 f i Win32PlatformUtils.obj
 0001:000010c0       ??0NullPointerException@@QAE@ABV0@@Z 120020c0 f i Win32PlatformUtils.obj
 0001:000010e0       ??0NullPointerException@@QAE@QBDIW4Codes@XMLExcepts@@QBG222@Z 120020e0 f i Win32PlatformUtils.obj
 0001:00001150       ??0NullPointerException@@QAE@QBDIW4Codes@XMLExcepts@@0000@Z 12002150 f i Win32PlatformUtils.obj
 0001:000011c0       ??1NullPointerException@@UAE@XZ 120021c0 f i Win32PlatformUtils.obj
 0001:000011d0       ?duplicate@NullPointerException@@UBEPAVXMLException@@XZ 120021d0 f i Win32PlatformUtils.obj
 0001:00001230       ?getType@NullPointerException@@UBEPBGXZ 12002230 f i Win32PlatformUtils.obj
 0001:00001240       ??_ENullPointerException@@UAEPAXI@Z 12002240 f i Win32PlatformUtils.obj
 0001:000012a0       ??9XMLURL@@QBE_NABV0@@Z    120022a0 f i Win32PlatformUtils.obj
 0001:000012c0       ?getURLText@XMLURL@@QBEPBGXZ 120022c0 f i Win32PlatformUtils.obj
 0001:000012e0       ??0MalformedURLException@@QAE@QBDIW4Codes@XMLExcepts@@@Z 120022e0 f i Win32PlatformUtils.obj
 0001:00001340       ??0MalformedURLException@@QAE@ABV0@@Z 12002340 f i Win32PlatformUtils.obj
 0001:00001360       ??0MalformedURLException@@QAE@QBDIW4Codes@XMLExcepts@@QBG222@Z 12002360 f i Win32PlatformUtils.obj
 0001:000013d0       ??0MalformedURLException@@QAE@QBDIW4Codes@XMLExcepts@@0000@Z 120023d0 f i Win32PlatformUtils.obj
 0001:00001440       ??1MalformedURLException@@UAE@XZ 12002440 f i Win32PlatformUtils.obj
 0001:00001450       ?duplicate@MalformedURLException@@UBEPAVXMLException@@XZ 12002450 f i Win32PlatformUtils.obj
 0001:000014b0       ?getType@MalformedURLException@@UBEPBGXZ 120024b0 f i Win32PlatformUtils.obj
 0001:000014c0       ??_EMalformedURLException@@UAEPAXI@Z 120024c0 f i Win32PlatformUtils.obj
 0001:00001520       ??1XMLNetAccessor@@UAE@XZ  12002520 f i Win32PlatformUtils.obj
 0001:00001530       ??0XMLNetAccessor@@IAE@XZ  12002530 f i Win32PlatformUtils.obj
 0001:00001540       ??_EXMLNetAccessor@@UAEPAXI@Z 12002540 f i Win32PlatformUtils.obj
 0001:000015a0       ??0NetAccessorException@@QAE@QBDIW4Codes@XMLExcepts@@@Z 120025a0 f i Win32PlatformUtils.obj
 0001:00001600       ??0NetAccessorException@@QAE@ABV0@@Z 12002600 f i Win32PlatformUtils.obj
 0001:00001620       ??0NetAccessorException@@QAE@QBDIW4Codes@XMLExcepts@@QBG222@Z 12002620 f i Win32PlatformUtils.obj
 0001:00001690       ??0NetAccessorException@@QAE@QBDIW4Codes@XMLExcepts@@0000@Z 12002690 f i Win32PlatformUtils.obj
 0001:00001700       ??1NetAccessorException@@UAE@XZ 12002700 f i Win32PlatformUtils.obj
 0001:00001710       ?duplicate@NetAccessorException@@UBEPAVXMLException@@XZ 12002710 f i Win32PlatformUtils.obj
 0001:00001770       ?getType@NetAccessorException@@UBEPBGXZ 12002770 f i Win32PlatformUtils.obj
 0001:00001780       ??_ENetAccessorException@@UAEPAXI@Z 12002780 f i Win32PlatformUtils.obj
 0001:000017e0       ?getId@WinSockNetAccessor@@UBEPBGXZ 120027e0 f i Win32PlatformUtils.obj
 0001:000017f0       ?panic@XMLPlatformUtils@@SAXW4PanicReasons@1@@Z 120027f0 f   Win32PlatformUtils.obj
 0001:00001870       ?curFilePos@XMLPlatformUtils@@SAIPAX@Z 12002870 f   Win32PlatformUtils.obj
 0001:000018c0       ?closeFile@XMLPlatformUtils@@SAXPAX@Z 120028c0 f   Win32PlatformUtils.obj
 0001:00001900       ?fileSize@XMLPlatformUtils@@SAIPAX@Z 12002900 f   Win32PlatformUtils.obj
 0001:000019c0       ?openFile@XMLPlatformUtils@@SAPAXQBD@Z 120029c0 f   Win32PlatformUtils.obj
 0001:000019f0       ?openFile@XMLPlatformUtils@@SAPAXQBG@Z 120029f0 f   Win32PlatformUtils.obj
 0001:00001b10       ?openStdInHandle@XMLPlatformUtils@@SAPAXXZ 12002b10 f   Win32PlatformUtils.obj
 0001:00001ba0       ?readFileBuffer@XMLPlatformUtils@@SAIPAXIQAE@Z 12002ba0 f   Win32PlatformUtils.obj
 0001:00001c10       ?resetFile@XMLPlatformUtils@@SAXPAX@Z 12002c10 f   Win32PlatformUtils.obj
 0001:00001c60       ?getFullPath@XMLPlatformUtils@@SAPAGQBG@Z 12002c60 f   Win32PlatformUtils.obj
 0001:00001e00       ?isRelative@XMLPlatformUtils@@SA_NQBG@Z 12002e00 f   Win32PlatformUtils.obj
 0001:00001e60       ?weavePaths@XMLPlatformUtils@@SAPAGQBG0@Z 12002e60 f   Win32PlatformUtils.obj
 0001:000020a0       ?getCurrentMillis@XMLPlatformUtils@@SAKXZ 120030a0 f   Win32PlatformUtils.obj
 0001:000020b0       ?closeMutex@XMLPlatformUtils@@SAXQAX@Z 120030b0 f   Win32PlatformUtils.obj
 0001:000020d0       ?lockMutex@XMLPlatformUtils@@SAXQAX@Z 120030d0 f   Win32PlatformUtils.obj
 0001:000020e0       ?makeMutex@XMLPlatformUtils@@SAPAXXZ 120030e0 f   Win32PlatformUtils.obj
 0001:00002100       ?unlockMutex@XMLPlatformUtils@@SAXQAX@Z 12003100 f   Win32PlatformUtils.obj
 0001:00002110       ?compareAndSwap@XMLPlatformUtils@@SAPAXPAPAXQBX1@Z 12003110 f   Win32PlatformUtils.obj
 0001:00002130       ?atomicIncrement@XMLPlatformUtils@@SAHAAH@Z 12003130 f   Win32PlatformUtils.obj
 0001:00002140       ?atomicDecrement@XMLPlatformUtils@@SAHAAH@Z 12003140 f   Win32PlatformUtils.obj
 0001:00002150       ?makeNetAccessor@XMLPlatformUtils@@CAPAVXMLNetAccessor@@XZ 12003150 f   Win32PlatformUtils.obj
 0001:000021b0       ?loadAMsgSet@XMLPlatformUtils@@CAPAVXMLMsgLoader@@QBG@Z 120031b0 f   Win32PlatformUtils.obj
 0001:00002210       ?makeTransService@XMLPlatformUtils@@CAPAVXMLTransService@@XZ 12003210 f   Win32PlatformUtils.obj
 0001:00002270       ?platformInit@XMLPlatformUtils@@CAXXZ 12003270 f   Win32PlatformUtils.obj
 0001:000022a0       _DllMain@12                120032a0 f   Win32MsgLoader.obj
 0001:000022c0       ??0Win32MsgLoader@@QAE@QBG@Z 120032c0 f   Win32MsgLoader.obj
 0001:000023e0       ??_EWin32MsgLoader@@UAEPAXI@Z 120033e0 f i Win32MsgLoader.obj
 0001:00002440       ??1Win32MsgLoader@@UAE@XZ  12003440 f   Win32MsgLoader.obj
 0001:000024a0       ?loadMsg@Win32MsgLoader@@UAE_NIQAGI@Z 120034a0 f   Win32MsgLoader.obj
 0001:00002550       ?loadMsg@Win32MsgLoader@@UAE_NIQAGIQBG111@Z 12003550 f   Win32MsgLoader.obj
 0001:000025a0       ?loadMsg@Win32MsgLoader@@UAE_NIQAGIQBD111@Z 120035a0 f   Win32MsgLoader.obj
 0001:00002670       ??0TranscodingException@@QAE@QBDIW4Codes@XMLExcepts@@@Z 12003670 f i Win32TransService.obj
 0001:000026d0       ??0TranscodingException@@QAE@ABV0@@Z 120036d0 f i Win32TransService.obj
 0001:000026f0       ??0TranscodingException@@QAE@QBDIW4Codes@XMLExcepts@@QBG222@Z 120036f0 f i Win32TransService.obj
 0001:00002760       ??0TranscodingException@@QAE@QBDIW4Codes@XMLExcepts@@0000@Z 12003760 f i Win32TransService.obj
 0001:000027d0       ??1TranscodingException@@UAE@XZ 120037d0 f i Win32TransService.obj
 0001:000027e0       ?duplicate@TranscodingException@@UBEPAVXMLException@@XZ 120037e0 f i Win32TransService.obj
 0001:00002840       ?getType@TranscodingException@@UBEPBGXZ 12003840 f i Win32TransService.obj
 0001:00002850       ??_ETranscodingException@@UAEPAXI@Z 12003850 f i Win32TransService.obj
 0001:000028b0       ??0Win32TransService@@QAE@XZ 120038b0 f   Win32TransService.obj
 0001:00002e60       ??_EWin32TransService@@UAEPAXI@Z 12003e60 f i Win32TransService.obj
 0001:00002ec0       ??1Win32TransService@@UAE@XZ 12003ec0 f   Win32TransService.obj
 0001:00002fa0       ?compareIString@Win32TransService@@UAEHQBG0@Z 12003fa0 f   Win32TransService.obj
 0001:00002fc0       ?compareNIString@Win32TransService@@UAEHQBG0I@Z 12003fc0 f   Win32TransService.obj
 0001:00002fe0       ?getId@Win32TransService@@UBEPBGXZ 12003fe0 f   Win32TransService.obj
 0001:00002ff0       ?isSpace@Win32TransService@@UBE_NG@Z 12003ff0 f   Win32TransService.obj
 0001:00003010       ?makeNewLCPTranscoder@Win32TransService@@UAEPAVXMLLCPTranscoder@@XZ 12004010 f   Win32TransService.obj
 0001:00003060       ?isCDATASectionImpl@CDATASectionImpl@@UAE_NXZ 12004060 f   Win32TransService.obj
 0001:00003060       ?isAttrImpl@AttrImpl@@UAE_NXZ 12004060 f   Win32TransService.obj
 0001:00003060       ?isElementImpl@ElementImpl@@UAE_NXZ 12004060 f   Win32TransService.obj
 0001:00003060       ?isTextImpl@TextImpl@@UAE_NXZ 12004060 f   Win32TransService.obj
 0001:00003060       ?isEntityReference@EntityReferenceImpl@@UAE_NXZ 12004060 f   Win32TransService.obj
 0001:00003060       ?supportsSrcOfs@Win32TransService@@UBE_NXZ 12004060 f   Win32TransService.obj
 0001:00003060       ?requiresNamespaces@SchemaValidator@@UBE_NXZ 12004060 f   Win32TransService.obj
 0001:00003060       ?isDocumentFragmentImpl@DocumentFragmentImpl@@UAE_NXZ 12004060 f   Win32TransService.obj
 0001:00003060       ?isDocumentImpl@DocumentImpl@@UAE_NXZ 12004060 f   Win32TransService.obj
 0001:00003060       ?isDocumentTypeImpl@DocumentTypeImpl@@UAE_NXZ 12004060 f   Win32TransService.obj
 0001:00003070       ?upperCase@Win32TransService@@UBEXQAG@Z 12004070 f   Win32TransService.obj
 0001:00003080       ?isAlias@Win32TransService@@CA_NQAUHKEY__@@QADI@Z 12004080 f   Win32TransService.obj
 0001:000030b0       ?makeNewXMLTranscoder@Win32TransService@@MAEPAVXMLTranscoder@@QBGAAW4Codes@XMLTransService@@I@Z 120040b0 f   Win32TransService.obj
 0001:00003210       ??0Win32Transcoder@@QAE@QBGIII@Z 12004210 f   Win32TransService.obj
 0001:00003240       ??_EWin32Transcoder@@UAEPAXI@Z 12004240 f i Win32TransService.obj
 0001:000032a0       ??1Win32Transcoder@@UAE@XZ 120042a0 f   Win32TransService.obj
 0001:000032b0       ?transcodeFrom@Win32Transcoder@@UAEIQBEIQAGIAAIQAE@Z 120042b0 f   Win32TransService.obj
 0001:000033e0       ?transcodeTo@Win32Transcoder@@UAEIQBGIQAEIAAIW4UnRepOpts@XMLTranscoder@@@Z 120043e0 f   Win32TransService.obj
 0001:000034c0       ?canTranscodeTo@Win32Transcoder@@UBE_NI@Z 120044c0 f   Win32TransService.obj
 0001:00003540       ??0Win32LCPTranscoder@@QAE@XZ 12004540 f   Win32TransService.obj
 0001:00003560       ??_EWin32LCPTranscoder@@UAEPAXI@Z 12004560 f i Win32TransService.obj
 0001:000035c0       ??1Win32LCPTranscoder@@UAE@XZ 120045c0 f   Win32TransService.obj
 0001:000035d0       ?calcRequiredSize@Win32LCPTranscoder@@UAEIQBD@Z 120045d0 f   Win32TransService.obj
 0001:00003600       ?calcRequiredSize@Win32LCPTranscoder@@UAEIQBG@Z 12004600 f   Win32TransService.obj
 0001:00003630       ?transcode@Win32LCPTranscoder@@UAEPADQBG@Z 12004630 f   Win32TransService.obj
 0001:000036b0       ?transcode@Win32LCPTranscoder@@UAEPAGQBD@Z 120046b0 f   Win32TransService.obj
 0001:00003730       ?transcode@Win32LCPTranscoder@@UAE_NQBDQAGI@Z 12004730 f   Win32TransService.obj
 0001:00003780       ?transcode@Win32LCPTranscoder@@UAE_NQBGQADI@Z 12004780 f   Win32TransService.obj
 0001:000037e0       ?Initialize@BinHTTPURLInputStream@@CAXXZ 120047e0 f   BinHTTPURLInputStream.obj
 0001:00003a60       ?Cleanup@BinHTTPURLInputStream@@SAXXZ 12004a60 f   BinHTTPURLInputStream.obj
 0001:00003b00       ?gethostbyname@BinHTTPURLInputStream@@CAPAUhostent@@PBD@Z 12004b00 f i BinHTTPURLInputStream.obj
 0001:00003b10       ?inet_addr@BinHTTPURLInputStream@@CAKPBD@Z 12004b10 f i BinHTTPURLInputStream.obj
 0001:00003b20       ?gethostbyaddr@BinHTTPURLInputStream@@CAPAUhostent@@PBDHH@Z 12004b20 f i BinHTTPURLInputStream.obj
 0001:00003b40       ?htons@BinHTTPURLInputStream@@CAGG@Z 12004b40 f i BinHTTPURLInputStream.obj
 0001:00003b50       ?socket@BinHTTPURLInputStream@@CAGHHH@Z 12004b50 f i BinHTTPURLInputStream.obj
 0001:00003b70       ?connect@BinHTTPURLInputStream@@CAHGPBUsockaddr@@H@Z 12004b70 f i BinHTTPURLInputStream.obj
 0001:00003b90       ?send@BinHTTPURLInputStream@@CAHGPBDHH@Z 12004b90 f i BinHTTPURLInputStream.obj
 0001:00003bb0       ?recv@BinHTTPURLInputStream@@CAHGPADHH@Z 12004bb0 f i BinHTTPURLInputStream.obj
 0001:00003bd0       ?shutdown@BinHTTPURLInputStream@@CAHIH@Z 12004bd0 f i BinHTTPURLInputStream.obj
 0001:00003bf0       ?closesocket@BinHTTPURLInputStream@@CAHI@Z 12004bf0 f i BinHTTPURLInputStream.obj
 0001:00003c00       ??0BinHTTPURLInputStream@@QAE@ABVXMLURL@@@Z 12004c00 f   BinHTTPURLInputStream.obj
 0001:000043c0       ??_EBinHTTPURLInputStream@@UAEPAXI@Z 120053c0 f i BinHTTPURLInputStream.obj
 0001:00004420       ??1BinHTTPURLInputStream@@UAE@XZ 12005420 f   BinHTTPURLInputStream.obj
 0001:00004480       ?readBytes@BinHTTPURLInputStream@@UAEIQAEI@Z 12005480 f   BinHTTPURLInputStream.obj
 0001:00004520       ??0WinSockNetAccessor@@QAE@XZ 12005520 f   WinSockNetAccessor.obj
 0001:00004530       ??_EWinSockNetAccessor@@UAEPAXI@Z 12005530 f i WinSockNetAccessor.obj
 0001:00004590       ??1WinSockNetAccessor@@UAE@XZ 12005590 f   WinSockNetAccessor.obj
 0001:000045e0       ?makeNew@WinSockNetAccessor@@UAEPAVBinInputStream@@ABVXMLURL@@@Z 120055e0 f   WinSockNetAccessor.obj
 0001:00004690       ?getOpType@Op@@QBEFXZ      12005690 f i ASCIIRangeFactory.obj
 0001:00004690       ?getTokenType@Token@@QBEGXZ 12005690 f i ASCIIRangeFactory.obj
 0001:000046a0       ?getString@Token@@UBEPBGXZ 120056a0 f i ASCIIRangeFactory.obj
 0001:000046a0       ?size@Token@@UBEHXZ        120056a0 f i ASCIIRangeFactory.obj
 0001:000046a0       ?getNoParen@Token@@UBEHXZ  120056a0 f i ASCIIRangeFactory.obj
 0001:000046a0       ?getContentLeafNameTypeVector@AllContentModel@@UBEPAVContentLeafNameTypeVector@@XZ 120056a0 f i ASCIIRangeFactory.obj
 0001:000046a0       ?getGrammarType@DTDGrammar@@UAE?AW4GrammarType@Grammar@@XZ 120056a0 f i ASCIIRangeFactory.obj
 0001:000046a0       ?getContentLeafNameTypeVector@MixedContentModel@@UBEPAVContentLeafNameTypeVector@@XZ 120056a0 f i ASCIIRangeFactory.obj
 0001:000046a0       ?getReferenceNo@Token@@UBEHXZ 120056a0 f i ASCIIRangeFactory.obj
 0001:000046b0       ?getChild@Token@@UBEPAV1@H@Z 120056b0 f i ASCIIRangeFactory.obj
 0001:000046c0       ?getMin@Token@@UBEHXZ      120056c0 f i ASCIIRangeFactory.obj
 0001:000046c0       ?getMax@Token@@UBEHXZ      120056c0 f i ASCIIRangeFactory.obj
 0001:000046c0       ?getChar@Token@@UBEHXZ     120056c0 f i ASCIIRangeFactory.obj
 0001:000046d0       ?setTokenType@Token@@QAEXG@Z 120056d0 f i ASCIIRangeFactory.obj
 0001:000046d0       ?setOpType@Op@@QAEXF@Z     120056d0 f i ASCIIRangeFactory.obj
 0001:000046e0       ?isSet@RegularExpression@@AAE_NHH@Z 120056e0 f i ASCIIRangeFactory.obj
 0001:000046e0       ?isSet@Token@@AAE_NHI@Z    120056e0 f i ASCIIRangeFactory.obj
 0001:00004700       ?addChild@Token@@UAEXQAV1@QAVTokenFactory@@@Z 12005700 f i ASCIIRangeFactory.obj
 0001:00004730       ?addRange@Token@@UAEXHH@Z  12005730 f i ASCIIRangeFactory.obj
 0001:00004760       ?mergeRanges@Token@@UAEXQBV1@@Z 12005760 f i ASCIIRangeFactory.obj
 0001:00004790       ?sortRanges@Token@@UAEXXZ  12005790 f i ASCIIRangeFactory.obj
 0001:000047c0       ?compactRanges@Token@@UAEXXZ 120057c0 f i ASCIIRangeFactory.obj
 0001:000047f0       ?subtractRanges@Token@@UAEXQAVRangeToken@@@Z 120057f0 f i ASCIIRangeFactory.obj
 0001:00004820       ?intersectRanges@Token@@UAEXQAVRangeToken@@@Z 12005820 f i ASCIIRangeFactory.obj
 0001:00004850       ??_FXMLStringPool@@QAEXXZ  12005850 f i ASCIIRangeFactory.obj
 0001:00004860       ?getRangeToken@RangeTokenElemMap@@QBEPAVRangeToken@@_N@Z 12005860 f i ASCIIRangeFactory.obj
 0001:00004880       ?setRangeToken@RangeTokenElemMap@@QAEXQAVRangeToken@@_N@Z 12005880 f i ASCIIRangeFactory.obj
 0001:000048a0       ??0ASCIIRangeFactory@@QAE@XZ 120058a0 f   ASCIIRangeFactory.obj
 0001:000048c0       ??_EASCIIRangeFactory@@UAEPAXI@Z 120058c0 f i ASCIIRangeFactory.obj
 0001:00004920       ??1ASCIIRangeFactory@@UAE@XZ 12005920 f   ASCIIRangeFactory.obj
 0001:00004930       ?buildRanges@ASCIIRangeFactory@@MAEXXZ 12005930 f   ASCIIRangeFactory.obj
 0001:00004a80       ?initializeKeywordMap@ASCIIRangeFactory@@UAEXXZ 12005a80 f   ASCIIRangeFactory.obj
 0001:00004af0       ??0BlockRangeFactory@@QAE@XZ 12005af0 f   BlockRangeFactory.obj
 0001:00004b10       ??_EBlockRangeFactory@@UAEPAXI@Z 12005b10 f i BlockRangeFactory.obj
 0001:00004b70       ??1BlockRangeFactory@@UAE@XZ 12005b70 f   BlockRangeFactory.obj
 0001:00004b80       ?buildRanges@BlockRangeFactory@@MAEXXZ 12005b80 f   BlockRangeFactory.obj
 0001:00004c80       ?initializeKeywordMap@BlockRangeFactory@@UAEXXZ 12005c80 f   BlockRangeFactory.obj
 0001:00004cc0       ?cleanUp@BMPattern@@AAEXXZ 12005cc0 f i BMPattern.obj
 0001:00004cf0       ??0BMPattern@@QAE@QBG_N@Z  12005cf0 f   BMPattern.obj
 0001:00004dc0       ??0BMPattern@@QAE@QBGH_N@Z 12005dc0 f   BMPattern.obj
 0001:00004e90       ??1BMPattern@@QAE@XZ       12005e90 f   BMPattern.obj
 0001:00004ec0       ?matches@BMPattern@@QAEHQBGHH@Z 12005ec0 f   BMPattern.obj
 0001:00005060       ?initialize@BMPattern@@AAEXXZ 12006060 f   BMPattern.obj
 0001:000051f0       ?match@CharToken@@QAE_NH@Z 120061f0 f i CharToken.obj
 0001:00005210       ??0CharToken@@QAE@GH@Z     12006210 f   CharToken.obj
 0001:00005230       ??_ECharToken@@UAEPAXI@Z   12006230 f i CharToken.obj
 0001:00005290       ??1CharToken@@UAE@XZ       12006290 f   CharToken.obj
 0001:000052a0       ?getChild@ClosureToken@@UBEPAVToken@@H@Z 120062a0 f i ClosureToken.obj
 0001:000052a0       ?getChild@ModifierToken@@UBEPAVToken@@H@Z 120062a0 f i ClosureToken.obj
 0001:000052b0       ??0ClosureToken@@QAE@GQAVToken@@@Z 120062b0 f   ClosureToken.obj
 0001:000052e0       ??_EClosureToken@@UAEPAXI@Z 120062e0 f i ClosureToken.obj
 0001:00005340       ??1ClosureToken@@UAE@XZ    12006340 f   ClosureToken.obj
 0001:00005350       ?size@ConcatToken@@UBEHXZ  12006350 f i ConcatToken.obj
 0001:00005360       ?getChild@ConcatToken@@UBEPAVToken@@H@Z 12006360 f i ConcatToken.obj
 0001:00005380       ??0ConcatToken@@QAE@QAVToken@@0@Z 12006380 f   ConcatToken.obj
 0001:000053b0       ??_EConcatToken@@UAEPAXI@Z 120063b0 f i ConcatToken.obj
 0001:00005410       ??1ConcatToken@@UAE@XZ     12006410 f   ConcatToken.obj
 0001:00005420       ?size@ConditionToken@@UBEHXZ 12006420 f i ConditionToken.obj
 0001:00005430       ?getChild@ConditionToken@@UBEPAVToken@@H@Z 12006430 f i ConditionToken.obj
 0001:00005480       ??0ConditionToken@@QAE@IQAVToken@@00@Z 12006480 f   ConditionToken.obj
 0001:000054c0       ??_EConditionToken@@UAEPAXI@Z 120064c0 f i ConditionToken.obj
 0001:00005520       ??1ConditionToken@@UAE@XZ  12006520 f   ConditionToken.obj
 0001:00005530       ?getNoGroups@Match@@QBEHXZ 12006530 f i Match.obj
 0001:00005570       ?getStartPos@Match@@QBEHH@Z 12006570 f i Match.obj
 0001:000055e0       ?getEndPos@Match@@QBEHH@Z  120065e0 f i Match.obj
 0001:00005650       ?setStartPos@Match@@QAEXHH@Z 12006650 f i Match.obj
 0001:000056c0       ?setEndPos@Match@@QAEXHH@Z 120066c0 f i Match.obj
 0001:00005730       ??0KVStringPair@@QAE@XZ    12006730 f   Match.obj
 0001:00005730       ??0Match@@QAE@XZ           12006730 f   Match.obj
 0001:00005740       ?setNoGroups@Match@@QAEXH@Z 12006740 f   Match.obj
 0001:000057c0       ?cleanUp@Match@@AAEXXZ     120067c0 f   Match.obj
 0001:000057c0       ??1Match@@QAE@XZ           120067c0 f   Match.obj
 0001:000057f0       ??0ModifierToken@@QAE@QAVToken@@HH@Z 120067f0 f   ModifierToken.obj
 0001:00005820       ??_EModifierToken@@UAEPAXI@Z 12006820 f i ModifierToken.obj
 0001:00005880       ??1ModifierToken@@UAE@XZ   12006880 f   ModifierToken.obj
 0001:00005890       ??_EOp@@UAEPAXI@Z          12006890 f i Op.obj
 0001:000058f0       ??_ERangeOp@@UAEPAXI@Z     120068f0 f i Op.obj
 0001:000058f0       ??_ECharOp@@UAEPAXI@Z      120068f0 f i Op.obj
 0001:000058f0       ??_EChildOp@@UAEPAXI@Z     120068f0 f i Op.obj
 0001:00005950       ??1UnionOp@@UAE@XZ         12006950 f i Op.obj
 0001:000059f0       ??_EUnionOp@@UAEPAXI@Z     120069f0 f i Op.obj
 0001:00005a50       ??_EModifierOp@@UAEPAXI@Z  12006a50 f i Op.obj
 0001:00005ab0       ??1StringOp@@UAE@XZ        12006ab0 f i Op.obj
 0001:00005b00       ??_EStringOp@@UAEPAXI@Z    12006b00 f i Op.obj
 0001:00005b60       ??1Op@@UAE@XZ              12006b60 f i Op.obj
 0001:00005b60       ??1CharOp@@UAE@XZ          12006b60 f i Op.obj
 0001:00005b60       ??1ConditionOp@@UAE@XZ     12006b60 f i Op.obj
 0001:00005b60       ??1RangeOp@@UAE@XZ         12006b60 f i Op.obj
 0001:00005b60       ??1ChildOp@@UAE@XZ         12006b60 f i Op.obj
 0001:00005b60       ??1ModifierOp@@UAE@XZ      12006b60 f i Op.obj
 0001:00005b70       ??_EConditionOp@@UAEPAXI@Z 12006b70 f i Op.obj
 0001:00005bd0       ??0Op@@IAE@F@Z             12006bd0 f   Op.obj
 0001:00005bf0       ?getSize@Op@@UBEHXZ        12006bf0 f   Op.obj
 0001:00005c20       ?getData@Op@@UBEHXZ        12006c20 f   Op.obj
 0001:00005c50       ?getData2@Op@@UBEHXZ       12006c50 f   Op.obj
 0001:00005c80       ?getRefNo@Op@@UBEHXZ       12006c80 f   Op.obj
 0001:00005cb0       ?elementAt@Op@@UBEPBV1@H@Z 12006cb0 f   Op.obj
 0001:00005ce0       ?getChild@Op@@UBEPBV1@XZ   12006ce0 f   Op.obj
 0001:00005d10       ?getConditionFlow@Op@@UBEPBV1@XZ 12006d10 f   Op.obj
 0001:00005d40       ?getYesFlow@Op@@UBEPBV1@XZ 12006d40 f   Op.obj
 0001:00005d70       ?getNoFlow@Op@@UBEPBV1@XZ  12006d70 f   Op.obj
 0001:00005da0       ?getLiteral@Op@@UBEPBGXZ   12006da0 f   Op.obj
 0001:00005dd0       ?getToken@Op@@UBEPBVToken@@XZ 12006dd0 f   Op.obj
 0001:00005e00       ??0CharOp@@QAE@FH@Z        12006e00 f   Op.obj
 0001:00005e30       ??0UnionOp@@QAE@FH@Z       12006e30 f   Op.obj
 0001:00005ee0       ?getSize@UnionOp@@UBEHXZ   12006ee0 f   Op.obj
 0001:00005ef0       ?elementAt@UnionOp@@UBEPBVOp@@H@Z 12006ef0 f   Op.obj
 0001:00005f40       ?addElement@UnionOp@@QAEXQAVOp@@@Z 12006f40 f   Op.obj
 0001:00005fd0       ??0ChildOp@@QAE@F@Z        12006fd0 f   Op.obj
 0001:00005ff0       ??0ModifierOp@@QAE@FHH@Z   12006ff0 f   Op.obj
 0001:00006020       ??0RangeOp@@QAE@FQBVToken@@@Z 12007020 f   Op.obj
 0001:00006050       ??0StringOp@@QAE@FQBG@Z    12007050 f   Op.obj
 0001:000060f0       ??0ConditionOp@@QAE@FHQBVOp@@00@Z 120070f0 f   Op.obj
 0001:00006130       ?reset@OpFactory@@QAEXXZ   12007130 f i OpFactory.obj
 0001:00006170       ??0OpFactory@@QAE@XZ       12007170 f   OpFactory.obj
 0001:00006200       ??1OpFactory@@QAE@XZ       12007200 f   OpFactory.obj
 0001:00006260       ?createDotOp@OpFactory@@QAEPAVOp@@XZ 12007260 f   OpFactory.obj
 0001:00006340       ?createCharOp@OpFactory@@QAEPAVCharOp@@H@Z 12007340 f   OpFactory.obj
 0001:00006420       ?createAnchorOp@OpFactory@@QAEPAVCharOp@@H@Z 12007420 f   OpFactory.obj
 0001:00006500       ?createCaptureOp@OpFactory@@QAEPAVCharOp@@HQBVOp@@@Z 12007500 f   OpFactory.obj
 0001:000065f0       ?createUnionOp@OpFactory@@QAEPAVUnionOp@@H@Z 120075f0 f   OpFactory.obj
 0001:000066d0       ?createClosureOp@OpFactory@@QAEPAVChildOp@@H@Z 120076d0 f   OpFactory.obj
 0001:000067b0       ?createNonGreedyClosureOp@OpFactory@@QAEPAVChildOp@@XZ 120077b0 f   OpFactory.obj
 0001:00006890       ?createQuestionOp@OpFactory@@QAEPAVChildOp@@_N@Z 12007890 f   OpFactory.obj
 0001:00006980       ?createRangeOp@OpFactory@@QAEPAVRangeOp@@QBVToken@@@Z 12007980 f   OpFactory.obj
 0001:00006a60       ?createLookOp@OpFactory@@QAEPAVChildOp@@FQBVOp@@0@Z 12007a60 f   OpFactory.obj
 0001:00006b60       ?createBackReferenceOp@OpFactory@@QAEPAVCharOp@@H@Z 12007b60 f   OpFactory.obj
 0001:00006c40       ?createStringOp@OpFactory@@QAEPAVStringOp@@QBG@Z 12007c40 f   OpFactory.obj
 0001:00006d20       ?createIndependentOp@OpFactory@@QAEPAVChildOp@@QBVOp@@0@Z 12007d20 f   OpFactory.obj
 0001:00006e20       ?createModifierOp@OpFactory@@QAEPAVModifierOp@@QBVOp@@0HH@Z 12007e20 f   OpFactory.obj
 0001:00006ea0       ?createConditionOp@OpFactory@@QAEPAVConditionOp@@QBVOp@@H000@Z 12007ea0 f   OpFactory.obj
 0001:00006f20       ?getChild@ParenToken@@UBEPAVToken@@H@Z 12007f20 f i ParenToken.obj
 0001:00006f30       ??0ParenToken@@QAE@GQAVToken@@H@Z 12007f30 f   ParenToken.obj
 0001:00006f60       ??_EParenToken@@UAEPAXI@Z  12007f60 f i ParenToken.obj
 0001:00006fc0       ??1ParenToken@@UAE@XZ      12007fc0 f   ParenToken.obj
 0001:00006fd0       ?getParseContext@RegxParser@@QBEGXZ 12007fd0 f i ParserForXMLSchema.obj
 0001:00006fe0       ?getState@RegxParser@@QBEGXZ 12007fe0 f i ParserForXMLSchema.obj
 0001:00006ff0       ?hasBackReferences@RegxParser@@QBE_NXZ 12007ff0 f i ParserForXMLSchema.obj
 0001:00007000       ?setParseContext@RegxParser@@QAEXG@Z 12008000 f i ParserForXMLSchema.obj
 0001:00007010       ?isSet@RegxParser@@AAE_NH@Z 12008010 f i ParserForXMLSchema.obj
 0001:00007030       ?hexChar@RegxParser@@AAEHH@Z 12008030 f i ParserForXMLSchema.obj
 0001:00007070       ?size@UnionToken@@UBEHXZ   12008070 f i ParserForXMLSchema.obj
 0001:00007080       ?getChild@UnionToken@@UBEPAVToken@@H@Z 12008080 f i ParserForXMLSchema.obj
 0001:00007080       ?getMatcherAt@XPathMatcherStack@@QBEPAVXPathMatcher@@I@Z 12008080 f i ParserForXMLSchema.obj
 0001:00007080       ?elementAt@XercesGroupInfo@@QBEPBVSchemaElementDecl@@I@Z 12008080 f i ParserForXMLSchema.obj
 0001:00007080       ?elementAt@XercesGroupInfo@@QAEPAVSchemaElementDecl@@I@Z 12008080 f i ParserForXMLSchema.obj
 0001:000070d0       ??0ParseException@@QAE@QBDIW4Codes@XMLExcepts@@@Z 120080d0 f i ParserForXMLSchema.obj
 0001:00007130       ??0ParseException@@QAE@ABV0@@Z 12008130 f i ParserForXMLSchema.obj
 0001:00007150       ??0ParseException@@QAE@QBDIW4Codes@XMLExcepts@@QBG222@Z 12008150 f i ParserForXMLSchema.obj
 0001:000071c0       ??0ParseException@@QAE@QBDIW4Codes@XMLExcepts@@0000@Z 120081c0 f i ParserForXMLSchema.obj
 0001:00007230       ??1ParseException@@UAE@XZ  12008230 f i ParserForXMLSchema.obj
 0001:00007240       ?duplicate@ParseException@@UBEPAVXMLException@@XZ 12008240 f i ParserForXMLSchema.obj
 0001:000072a0       ?getType@ParseException@@UBEPBGXZ 120082a0 f i ParserForXMLSchema.obj
 0001:000072b0       ??_EParseException@@UAEPAXI@Z 120082b0 f i ParserForXMLSchema.obj
 0001:00007310       ??0ParserForXMLSchema@@QAE@XZ 12008310 f   ParserForXMLSchema.obj
 0001:00007330       ??_EParserForXMLSchema@@UAEPAXI@Z 12008330 f i ParserForXMLSchema.obj
 0001:00007390       ??1ParserForXMLSchema@@UAE@XZ 12008390 f   ParserForXMLSchema.obj
 0001:000073a0       ?processCaret@ParserForXMLSchema@@MAEPAVToken@@XZ 120083a0 f   ParserForXMLSchema.obj
 0001:000073c0       ?processDollar@ParserForXMLSchema@@MAEPAVToken@@XZ 120083c0 f   ParserForXMLSchema.obj
 0001:000073e0       ?processPlus@ParserForXMLSchema@@MAEPAVToken@@QAV2@@Z 120083e0 f   ParserForXMLSchema.obj
 0001:00007410       ?processStar@ParserForXMLSchema@@MAEPAVToken@@QAV2@@Z 12008410 f   ParserForXMLSchema.obj
 0001:00007430       ?processQuestion@ParserForXMLSchema@@MAEPAVToken@@QAV2@@Z 12008430 f   ParserForXMLSchema.obj
 0001:00007470       ?processParen@ParserForXMLSchema@@MAEPAVToken@@XZ 12008470 f   ParserForXMLSchema.obj
 0001:000074d0       ?parseCharacterClass@ParserForXMLSchema@@MAEPAVRangeToken@@_N@Z 120084d0 f   ParserForXMLSchema.obj
 0001:00007920       ?processCInCharacterClass@ParserForXMLSchema@@MAEHQAVRangeToken@@H@Z 12008920 f   ParserForXMLSchema.obj
 0001:00007940       ?processLook@ParserForXMLSchema@@MAEPAVToken@@G@Z 12008940 f   ParserForXMLSchema.obj
 0001:00007970       ?processBacksolidus_A@ParserForXMLSchema@@MAEPAVToken@@XZ 12008970 f   ParserForXMLSchema.obj
 0001:000079a0       ?processBacksolidus_B@ParserForXMLSchema@@MAEPAVToken@@XZ 120089a0 f   ParserForXMLSchema.obj
 0001:000079d0       ?processBacksolidus_b@ParserForXMLSchema@@MAEPAVToken@@XZ 120089d0 f   ParserForXMLSchema.obj
 0001:00007a00       ?processBacksolidus_C@ParserForXMLSchema@@MAEPAVToken@@XZ 12008a00 f   ParserForXMLSchema.obj
 0001:00007a20       ?processBacksolidus_c@ParserForXMLSchema@@MAEPAVToken@@XZ 12008a20 f   ParserForXMLSchema.obj
 0001:00007a40       ?processBacksolidus_g@ParserForXMLSchema@@MAEPAVToken@@XZ 12008a40 f   ParserForXMLSchema.obj
 0001:00007a70       ?processBacksolidus_gt@ParserForXMLSchema@@MAEPAVToken@@XZ 12008a70 f   ParserForXMLSchema.obj
 0001:00007aa0       ?processBacksolidus_I@ParserForXMLSchema@@MAEPAVToken@@XZ 12008aa0 f   ParserForXMLSchema.obj
 0001:00007ac0       ?processBacksolidus_i@ParserForXMLSchema@@MAEPAVToken@@XZ 12008ac0 f   ParserForXMLSchema.obj
 0001:00007ae0       ?processBacksolidus_lt@ParserForXMLSchema@@MAEPAVToken@@XZ 12008ae0 f   ParserForXMLSchema.obj
 0001:00007b10       ?processBacksolidus_X@ParserForXMLSchema@@MAEPAVToken@@XZ 12008b10 f   ParserForXMLSchema.obj
 0001:00007b40       ?processBacksolidus_Z@ParserForXMLSchema@@MAEPAVToken@@XZ 12008b40 f   ParserForXMLSchema.obj
 0001:00007b70       ?processBacksolidus_z@ParserForXMLSchema@@MAEPAVToken@@XZ 12008b70 f   ParserForXMLSchema.obj
 0001:00007ba0       ?processBackReference@ParserForXMLSchema@@MAEPAVToken@@XZ 12008ba0 f   ParserForXMLSchema.obj
 0001:00007bd0       ?processCondition@ParserForXMLSchema@@MAEPAVToken@@XZ 12008bd0 f   ParserForXMLSchema.obj
 0001:00007c00       ?processIndependent@ParserForXMLSchema@@MAEPAVToken@@XZ 12008c00 f   ParserForXMLSchema.obj
 0001:00007c30       ?processModifiers@ParserForXMLSchema@@MAEPAVToken@@XZ 12008c30 f   ParserForXMLSchema.obj
 0001:00007c60       ?processParen2@ParserForXMLSchema@@MAEPAVToken@@XZ 12008c60 f   ParserForXMLSchema.obj
 0001:00007c90       ?parseSetOperations@ParserForXMLSchema@@MAEPAVRangeToken@@XZ 12008c90 f   ParserForXMLSchema.obj
 0001:00007cc0       ?getTokenForShorthand@ParserForXMLSchema@@MAEPAVToken@@H@Z 12008cc0 f   ParserForXMLSchema.obj
 0001:00007e00       ?checkQuestion@ParserForXMLSchema@@MAE_NH@Z 12008e00 f   ParserForXMLSchema.obj
 0001:00007e10       ?decodeEscaped@ParserForXMLSchema@@MAEHXZ 12008e10 f   ParserForXMLSchema.obj
 0001:00007f30       ??0RangeFactory@@IAE@XZ    12008f30 f   RangeFactory.obj
 0001:00007f40       ??_ERangeFactory@@UAEPAXI@Z 12008f40 f i RangeFactory.obj
 0001:00007fa0       ??1RangeFactory@@UAE@XZ    12008fa0 f   RangeFactory.obj
 0001:00007fb0       ??0RangeToken@@QAE@G@Z     12008fb0 f   RangeToken.obj
 0001:00007ff0       ??_ERangeToken@@UAEPAXI@Z  12008ff0 f i RangeToken.obj
 0001:00008050       ??1RangeToken@@UAE@XZ      12009050 f   RangeToken.obj
 0001:000080b0       ?getCaseInsensitiveToken@RangeToken@@QAEPAV1@QAVTokenFactory@@@Z 120090b0 f   RangeToken.obj
 0001:000080f0       ?addRange@RangeToken@@UAEXHH@Z 120090f0 f   RangeToken.obj
 0001:00008230       ?sortRanges@RangeToken@@UAEXXZ 12009230 f   RangeToken.obj
 0001:000082e0       ?compactRanges@RangeToken@@UAEXXZ 120092e0 f   RangeToken.obj
 0001:000083e0       ?mergeRanges@RangeToken@@UAEXQBVToken@@@Z 120093e0 f   RangeToken.obj
 0001:000085c0       ?subtractRanges@RangeToken@@UAEXQAV1@@Z 120095c0 f   RangeToken.obj
 0001:00008760       ?intersectRanges@RangeToken@@UAEXQAV1@@Z 12009760 f   RangeToken.obj
 0001:000088c0       ?complementRanges@RangeToken@@SAPAVToken@@QAV1@QAVTokenFactory@@@Z 120098c0 f   RangeToken.obj
 0001:00008990       ?match@RangeToken@@QAE_NH@Z 12009990 f   RangeToken.obj
 0001:00008a90       ?expand@RangeToken@@AAEXI@Z 12009a90 f   RangeToken.obj
 0001:00008b20       ?createMap@RangeToken@@AAEXXZ 12009b20 f   RangeToken.obj
 0001:00008bc0       ??0RangeTokenElemMap@@QAE@I@Z 12009bc0 f   RangeTokenMap.obj
 0001:00008be0       ??0RangeTokenMap@@IAE@XZ   12009be0 f   RangeTokenMap.obj
 0001:00008c10       ??_ERangeTokenMap@@UAEPAXI@Z 12009c10 f i RangeTokenMap.obj
 0001:00008c70       ??1RangeTokenMap@@UAE@XZ   12009c70 f   RangeTokenMap.obj
 0001:00008df0       ?getRange@RangeTokenMap@@IAEPAVRangeToken@@QBG_N@Z 12009df0 f   RangeTokenMap.obj
 0001:00008f70       ?addCategory@RangeTokenMap@@QAEXQBG@Z 12009f70 f   RangeTokenMap.obj
 0001:00008f90       ?addRangeMap@RangeTokenMap@@QAEXQBGQAVRangeFactory@@@Z 12009f90 f   RangeTokenMap.obj
 0001:00008fb0       ?addKeywordMap@RangeTokenMap@@QAEXQBG0@Z 12009fb0 f   RangeTokenMap.obj
 0001:000091d0       ?setRangeToken@RangeTokenMap@@QAEXQBGQAVRangeToken@@_N@Z 1200a1d0 f   RangeTokenMap.obj
 0001:00009310       ?initializeRegistry@RangeTokenMap@@AAEXXZ 1200a310 f   RangeTokenMap.obj
 0001:000094c0       ?instance@RangeTokenMap@@SAPAV1@XZ 1200a4c0 f   RangeTokenMap.obj
 0001:000095f0       ?reinitInstance@RangeTokenMap@@SAXXZ 1200a5f0 f   RangeTokenMap.obj
 0001:00009610       ?put@?$RefHashTableOf@VRangeFactory@@@@QAEXPAXQAVRangeFactory@@@Z 1200a610 f i RangeTokenMap.obj
 0001:00009710       ??_G?$NameIdPoolBucketElem@VXMLNotationDecl@@@@QAEPAXI@Z 1200a710 f i RangeTokenMap.obj
 0001:00009710       ??_GRangeTokenElemMap@@QAEPAXI@Z 1200a710 f i RangeTokenMap.obj
 0001:00009730       ?cleanUp@RegularExpression@@AAEXXZ 1200a730 f i RegularExpression.obj
 0001:000097c0       ?compileLook@RegularExpression@@AAEPAVOp@@QBVToken@@QBV2@_NG@Z 1200a7c0 f i RegularExpression.obj
 0001:000098b0       ?compileSingle@RegularExpression@@AAEPAVOp@@QBVToken@@QAV2@G@Z 1200a8b0 f i RegularExpression.obj
 0001:00009990       ?compileUnion@RegularExpression@@AAEPAVOp@@QBVToken@@QAV2@_N@Z 1200a990 f i RegularExpression.obj
 0001:000099f0       ?compileCondition@RegularExpression@@AAEPAVOp@@QBVToken@@QAV2@_N@Z 1200a9f0 f i RegularExpression.obj
 0001:00009a90       ?compileParenthesis@RegularExpression@@AAEPAVOp@@QBVToken@@QAV2@_N@Z 1200aa90 f i RegularExpression.obj
 0001:00009b60       ?compileConcat@RegularExpression@@AAEPAVOp@@QBVToken@@QAV2@_N@Z 1200ab60 f i RegularExpression.obj
 0001:00009be0       ?compileClosure@RegularExpression@@AAEPAVOp@@QBVToken@@QAV2@_NG@Z 1200abe0 f i RegularExpression.obj
 0001:00009d10       ?matchUnion@RegularExpression@@AAEHQAVContext@1@QBVOp@@HF@Z 1200ad10 f i RegularExpression.obj
 0001:00009d70       ?matchModifier@RegularExpression@@AAEHQAVContext@1@QBVOp@@HF@Z 1200ad70 f i RegularExpression.obj
 0001:00009dc0       ?getWordType@RegularExpression@@AAEGQBGHHH@Z 1200adc0 f i RegularExpression.obj
 0001:00009df0       ?getPreviousWordType@RegularExpression@@AAEGQBGHHH@Z 1200adf0 f i RegularExpression.obj
 0001:00009e60       ?matchIgnoreCase@RegularExpression@@AAE_NHH@Z 1200ae60 f i RegularExpression.obj
 0001:00009e80       ?isEOLChar@RegxUtil@@SA_NG@Z 1200ae80 f i RegularExpression.obj
 0001:00009eb0       ?composeFromSurrogate@RegxUtil@@SAHGG@Z 1200aeb0 f i RegularExpression.obj
 0001:00009ed0       ?isLowSurrogate@RegxUtil@@SA_NG@Z 1200aed0 f i RegularExpression.obj
 0001:00009ef0       ?isHighSurrogate@RegxUtil@@SA_NG@Z 1200aef0 f i RegularExpression.obj
 0001:00009f10       ?isWordChar@RegxUtil@@SA_NG@Z 1200af10 f i RegularExpression.obj
 0001:00009f50       ??1Context@RegularExpression@@QAE@XZ 1200af50 f   RegularExpression.obj
 0001:00009f90       ?reset@Context@RegularExpression@@QAEXQBGHHH@Z 1200af90 f   RegularExpression.obj
 0001:0000a080       ?nextCh@Context@RegularExpression@@QAE_NAAH0F@Z 1200b080 f   RegularExpression.obj
 0001:0000a160       ??0RegularExpression@@QAE@QBD@Z 1200b160 f   RegularExpression.obj
 0001:0000a2a0       ??0RegularExpression@@QAE@QBD0@Z 1200b2a0 f   RegularExpression.obj
 0001:0000a400       ??0RegularExpression@@QAE@QBG@Z 1200b400 f   RegularExpression.obj
 0001:0000a520       ??0RegularExpression@@QAE@QBG0@Z 1200b520 f   RegularExpression.obj
 0001:0000a640       ??1RegularExpression@@QAE@XZ 1200b640 f   RegularExpression.obj
 0001:0000a720       ?setPattern@RegularExpression@@AAEXQBG0@Z 1200b720 f   RegularExpression.obj
 0001:0000a910       ?matches@RegularExpression@@QAE_NQBD@Z 1200b910 f   RegularExpression.obj
 0001:0000a9a0       ?matches@RegularExpression@@QAE_NQBDHH@Z 1200b9a0 f   RegularExpression.obj
 0001:0000aa20       ?matches@RegularExpression@@QAE_NQBDQAVMatch@@@Z 1200ba20 f   RegularExpression.obj
 0001:0000aac0       ?matches@RegularExpression@@QAE_NQBDHHQAVMatch@@@Z 1200bac0 f   RegularExpression.obj
 0001:0000ab40       ?matches@RegularExpression@@QAE_NQBG@Z 1200bb40 f   RegularExpression.obj
 0001:0000ab90       ?matches@RegularExpression@@QAE_NQBGHH@Z 1200bb90 f   RegularExpression.obj
 0001:0000abb0       ?matches@RegularExpression@@QAE_NQBGQAVMatch@@@Z 1200bbb0 f   RegularExpression.obj
 0001:0000ac00       ?matches@RegularExpression@@QAE_NQBGHHQAVMatch@@@Z 1200bc00 f   RegularExpression.obj
 0001:0000b400       ?getOptionValue@RegularExpression@@SAHG@Z 1200c400 f   RegularExpression.obj
 0001:0000b4e0       ?match@RegularExpression@@AAEHQAVContext@1@QBVOp@@HF@Z 1200c4e0 f   RegularExpression.obj
 0001:0000bb90       ?matchChar@RegularExpression@@AAE_NQAVContext@1@HAAHF_N@Z 1200cb90 f   RegularExpression.obj
 0001:0000bc10       ?matchDot@RegularExpression@@AAE_NQAVContext@1@AAHF@Z 1200cc10 f   RegularExpression.obj
 0001:0000bcc0       ?matchRange@RegularExpression@@AAE_NQAVContext@1@QBVOp@@AAHF_N@Z 1200ccc0 f   RegularExpression.obj
 0001:0000bd50       ?matchAnchor@RegularExpression@@AAE_NQAVContext@1@HH@Z 1200cd50 f   RegularExpression.obj
 0001:0000c270       ?matchBackReference@RegularExpression@@AAE_NQAVContext@1@HAAHF_N@Z 1200d270 f   RegularExpression.obj
 0001:0000c4c0       ?matchString@RegularExpression@@AAE_NQAVContext@1@QBGAAHF_N@Z 1200d4c0 f   RegularExpression.obj
 0001:0000c560       ?matchCapture@RegularExpression@@AAEHQAVContext@1@QBVOp@@HF@Z 1200d560 f   RegularExpression.obj
 0001:0000c820       ?matchCondition@RegularExpression@@AAE_NQAVContext@1@QBVOp@@HF@Z 1200d820 f   RegularExpression.obj
 0001:0000c940       ?parseOptions@RegularExpression@@AAEHQBG@Z 1200d940 f   RegularExpression.obj
 0001:0000cab0       ?compile@RegularExpression@@AAEXQBVToken@@@Z 1200dab0 f   RegularExpression.obj
 0001:0000cae0       ?compile@RegularExpression@@AAEPAVOp@@QBVToken@@QAV2@_N@Z 1200dae0 f   RegularExpression.obj
 0001:0000cea0       ?prepare@RegularExpression@@AAEXXZ 1200dea0 f   RegularExpression.obj
 0001:0000d1b0       ?getCharType@RegularExpression@@AAEGG@Z 1200e1b0 f   RegularExpression.obj
 0001:0000d300       ??1?$Janitor@VContext@RegularExpression@@@@QAE@XZ 1200e300 f i RegularExpression.obj
 0001:0000d360       ??0RegxParser@@QAE@XZ      1200e360 f   RegxParser.obj
 0001:0000d3a0       ??_ERegxParser@@UAEPAXI@Z  1200e3a0 f i RegxParser.obj
 0001:0000d400       ??1RegxParser@@UAE@XZ      1200e400 f   RegxParser.obj
 0001:0000d4a0       ?parse@RegxParser@@QAEPAVToken@@QBGH@Z 1200e4a0 f   RegxParser.obj
 0001:0000d750       ?processNext@RegxParser@@IAEXXZ 1200e750 f   RegxParser.obj
 0001:0000dd10       ?parseRegx@RegxParser@@IAEPAVToken@@XZ 1200ed10 f   RegxParser.obj
 0001:0000dd80       ?parseTerm@RegxParser@@AAEPAVToken@@XZ 1200ed80 f   RegxParser.obj
 0001:0000de10       ?processCaret@RegxParser@@MAEPAVToken@@XZ 1200ee10 f   RegxParser.obj
 0001:0000de30       ?processDollar@RegxParser@@MAEPAVToken@@XZ 1200ee30 f   RegxParser.obj
 0001:0000de50       ?processLook@RegxParser@@MAEPAVToken@@G@Z 1200ee50 f   RegxParser.obj
 0001:0000df00       ?processBacksolidus_A@RegxParser@@MAEPAVToken@@XZ 1200ef00 f   RegxParser.obj
 0001:0000df20       ?processBacksolidus_Z@RegxParser@@MAEPAVToken@@XZ 1200ef20 f   RegxParser.obj
 0001:0000df40       ?processBacksolidus_z@RegxParser@@MAEPAVToken@@XZ 1200ef40 f   RegxParser.obj
 0001:0000df60       ?processBacksolidus_b@RegxParser@@MAEPAVToken@@XZ 1200ef60 f   RegxParser.obj
 0001:0000df80       ?processBacksolidus_B@RegxParser@@MAEPAVToken@@XZ 1200ef80 f   RegxParser.obj
 0001:0000dfa0       ?processBacksolidus_lt@RegxParser@@MAEPAVToken@@XZ 1200efa0 f   RegxParser.obj
 0001:0000dfc0       ?processBacksolidus_gt@RegxParser@@MAEPAVToken@@XZ 1200efc0 f   RegxParser.obj
 0001:0000dfe0       ?processStar@RegxParser@@MAEPAVToken@@QAV2@@Z 1200efe0 f   RegxParser.obj
 0001:0000e020       ?processPlus@RegxParser@@MAEPAVToken@@QAV2@@Z 1200f020 f   RegxParser.obj
 0001:0000e060       ?processQuestion@RegxParser@@MAEPAVToken@@QAV2@@Z 1200f060 f   RegxParser.obj
 0001:0000e0e0       ?processParen@RegxParser@@MAEPAVToken@@XZ 1200f0e0 f   RegxParser.obj
 0001:0000e1a0       ?processParen2@RegxParser@@MAEPAVToken@@XZ 1200f1a0 f   RegxParser.obj
 0001:0000e250       ?processCondition@RegxParser@@MAEPAVToken@@XZ 1200f250 f   RegxParser.obj
 0001:0000e600       ?processModifiers@RegxParser@@MAEPAVToken@@XZ 1200f600 f   RegxParser.obj
 0001:0000e850       ?processIndependent@RegxParser@@MAEPAVToken@@XZ 1200f850 f   RegxParser.obj
 0001:0000e900       ?processBacksolidus_c@RegxParser@@MAEPAVToken@@XZ 1200f900 f   RegxParser.obj
 0001:0000e970       ?processBacksolidus_i@RegxParser@@MAEPAVToken@@XZ 1200f970 f   RegxParser.obj
 0001:0000e990       ?processBacksolidus_g@RegxParser@@MAEPAVToken@@XZ 1200f990 f   RegxParser.obj
 0001:0000e9b0       ?processBacksolidus_X@RegxParser@@MAEPAVToken@@XZ 1200f9b0 f   RegxParser.obj
 0001:0000e9d0       ?processBackReference@RegxParser@@MAEPAVToken@@XZ 1200f9d0 f   RegxParser.obj
 0001:0000eb30       ?parseFactor@RegxParser@@AAEPAVToken@@XZ 1200fb30 f   RegxParser.obj
 0001:0000ef90       ?parseAtom@RegxParser@@AAEPAVToken@@XZ 1200ff90 f   RegxParser.obj
 0001:0000f350       ?processBacksolidus_pP@RegxParser@@IAEPAVRangeToken@@H@Z 12010350 f   RegxParser.obj
 0001:0000f620       ?processCInCharacterClass@RegxParser@@MAEHQAVRangeToken@@H@Z 12010620 f   RegxParser.obj
 0001:0000f630       ?parseCharacterClass@RegxParser@@MAEPAVRangeToken@@_N@Z 12010630 f   RegxParser.obj
 0001:0000fb40       ?parseSetOperations@RegxParser@@MAEPAVRangeToken@@XZ 12010b40 f   RegxParser.obj
 0001:0000fc40       ?getTokenForShorthand@RegxParser@@MAEPAVToken@@H@Z 12010c40 f   RegxParser.obj
 0001:0000fd70       ?decodeEscaped@RegxParser@@MAEHXZ 12010d70 f   RegxParser.obj
 0001:000101f0       ?checkQuestion@RegxParser@@MAE_NH@Z 120111f0 f   RegxParser.obj
 0001:00010210       ?ensureExtraCapacity@?$RefVectorOf@VQName@@@@QAEXI@Z 12011210 f i RegxParser.obj
 0001:00010210       ?ensureExtraCapacity@?$RefVectorOf@VIDOM_Node@@@@QAEXI@Z 12011210 f i RegxParser.obj
 0001:00010210       ?ensureExtraCapacity@?$RefVectorOf@VXMLAttr@@@@QAEXI@Z 12011210 f i RegxParser.obj
 0001:00010210       ?ensureExtraCapacity@?$RefVectorOf@VNodeImpl@@@@QAEXI@Z 12011210 f i RegxParser.obj
 0001:00010210       ?ensureExtraCapacity@?$RefVectorOf@VSchemaAttDef@@@@QAEXI@Z 12011210 f i RegxParser.obj
 0001:00010210       ?ensureExtraCapacity@?$RefVectorOf@VSchemaInfo@@@@QAEXI@Z 12011210 f i RegxParser.obj
 0001:00010210       ?ensureExtraCapacity@?$RefVectorOf@VFieldValueMap@@@@QAEXI@Z 12011210 f i RegxParser.obj
 0001:00010210       ?ensureExtraCapacity@?$RefVectorOf@VToken@@@@QAEXI@Z 12011210 f i RegxParser.obj
 0001:00010210       ?ensureExtraCapacity@?$RefVectorOf@VSchemaElementDecl@@@@QAEXI@Z 12011210 f i RegxParser.obj
 0001:00010210       ?ensureExtraCapacity@?$RefVectorOf@VXMLBuffer@@@@QAEXI@Z 12011210 f i RegxParser.obj
 0001:00010210       ?ensureExtraCapacity@?$RefVectorOf@VXMLNumber@@@@QAEXI@Z 12011210 f i RegxParser.obj
 0001:00010210       ?ensureExtraCapacity@?$RefVectorOf@VIC_Field@@@@QAEXI@Z 12011210 f i RegxParser.obj
 0001:00010210       ?ensureExtraCapacity@?$RefVectorOf@VXercesStep@@@@QAEXI@Z 12011210 f i RegxParser.obj
 0001:00010210       ?ensureExtraCapacity@?$RefVectorOf@VXMLReader@@@@QAEXI@Z 12011210 f i RegxParser.obj
 0001:00010210       ?ensureExtraCapacity@?$RefVectorOf@VXercesLocationPath@@@@QAEXI@Z 12011210 f i RegxParser.obj
 0001:00010210       ?ensureExtraCapacity@?$RefVectorOf@VXPathMatcher@@@@QAEXI@Z 12011210 f i RegxParser.obj
 0001:00010210       ?ensureExtraCapacity@?$RefVectorOf@VReferencePosition@RegxParser@@@@QAEXI@Z 12011210 f i RegxParser.obj
 0001:00010210       ?ensureExtraCapacity@?$RefVectorOf@G@@QAEXI@Z 12011210 f i RegxParser.obj
 0001:00010210       ?ensureExtraCapacity@?$RefVectorOf@VDatatypeValidator@@@@QAEXI@Z 12011210 f i RegxParser.obj
 0001:00010210       ?ensureExtraCapacity@?$RefVectorOf@VAttributeInfo@@@@QAEXI@Z 12011210 f i RegxParser.obj
 0001:00010290       ??0XMLBuffer@@QAE@H@Z      12011290 f i RegxUtil.obj
 0001:000102d0       ??1XMLBuffer@@QAE@XZ       120112d0 f i RegxUtil.obj
 0001:000102e0       ?append@XMLBuffer@@QAEXG@Z 120112e0 f i RegxUtil.obj
 0001:00010310       ?getRawBuffer@XMLBuffer@@QBEPBGXZ 12011310 f i RegxUtil.obj
 0001:00010310       ?getRawBuffer@XMLBuffer@@QAEPAGXZ 12011310 f i RegxUtil.obj
 0001:00010320       ?reset@XMLBuffer@@QAEXXZ   12011320 f i RegxUtil.obj
 0001:00010330       ?getInUse@XMLBuffer@@QAE_NXZ 12011330 f i RegxUtil.obj
 0001:00010340       ?isEmpty@XMLBuffer@@QAE_NXZ 12011340 f i RegxUtil.obj
 0001:00010350       ?setInUse@XMLBuffer@@QAEX_N@Z 12011350 f i RegxUtil.obj
 0001:00010360       ??_FXMLBuffer@@QAEXXZ      12011360 f i RegxUtil.obj
 0001:000103a0       ?decomposeToSurrogates@RegxUtil@@SAPAGH@Z 120113a0 f   RegxUtil.obj
 0001:000103e0       ?stripExtendedComment@RegxUtil@@SAPAGQBG@Z 120113e0 f   RegxUtil.obj
 0001:00010620       ??0StringToken@@QAE@GQBGH@Z 12011620 f   StringToken.obj
 0001:000106d0       ??_EStringToken@@UAEPAXI@Z 120116d0 f i StringToken.obj
 0001:00010730       ??1StringToken@@UAE@XZ     12011730 f   StringToken.obj
 0001:00010790       ??0Token@@QAE@G@Z          12011790 f   Token.obj
 0001:000107b0       ??_EToken@@UAEPAXI@Z       120117b0 f i Token.obj
 0001:00010810       ??1Token@@UAE@XZ           12011810 f   Token.obj
 0001:00010820       ?getMinLength@Token@@QBEHXZ 12011820 f   Token.obj
 0001:00010990       ?getMaxLength@Token@@QBEHXZ 12011990 f   Token.obj
 0001:00010b30       ?analyzeFirstCharacter@Token@@QAEHQAVRangeToken@@HQAVTokenFactory@@@Z 12011b30 f   Token.obj
 0001:00010de0       ?findFixedString@Token@@QAEPAV1@HAAH@Z 12011de0 f   Token.obj
 0001:00010f70       ?isShorterThan@Token@@AAE_NQAV1@@Z 12011f70 f   Token.obj
 0001:00011010       ??0TokenFactory@@QAE@XZ    12012010 f   TokenFactory.obj
 0001:000110d0       ??1TokenFactory@@QAE@XZ    120120d0 f   TokenFactory.obj
 0001:00011160       ?createToken@TokenFactory@@QAEPAVToken@@G@Z 12012160 f   TokenFactory.obj
 0001:00011260       ?createLook@TokenFactory@@QAEPAVParenToken@@GQAVToken@@@Z 12012260 f   TokenFactory.obj
 0001:00011350       ?createParenthesis@TokenFactory@@QAEPAVParenToken@@QAVToken@@H@Z 12012350 f   TokenFactory.obj
 0001:00011440       ?createClosure@TokenFactory@@QAEPAVClosureToken@@QAVToken@@_N@Z 12012440 f   TokenFactory.obj
 0001:00011560       ?createConcat@TokenFactory@@QAEPAVConcatToken@@QAVToken@@0@Z 12012560 f   TokenFactory.obj
 0001:00011650       ?createUnion@TokenFactory@@QAEPAVUnionToken@@_N@Z 12012650 f   TokenFactory.obj
 0001:00011760       ?createRange@TokenFactory@@QAEPAVRangeToken@@_N@Z 12012760 f   TokenFactory.obj
 0001:00011870       ?createChar@TokenFactory@@QAEPAVCharToken@@I_N@Z 12012870 f   TokenFactory.obj
 0001:00011990       ?createBackReference@TokenFactory@@QAEPAVStringToken@@H@Z 12012990 f   TokenFactory.obj
 0001:00011a70       ?createString@TokenFactory@@QAEPAVStringToken@@QBG@Z 12012a70 f   TokenFactory.obj
 0001:00011b50       ?createModifierGroup@TokenFactory@@QAEPAVModifierToken@@QAVToken@@HH@Z 12012b50 f   TokenFactory.obj
 0001:00011c40       ?createCondition@TokenFactory@@QAEPAVConditionToken@@HQAVToken@@00@Z 12012c40 f   TokenFactory.obj
 0001:00011d30       ?getRange@TokenFactory@@QAEPAVRangeToken@@QBG_N@Z 12012d30 f   TokenFactory.obj
 0001:00011d60       ?getLineBegin@TokenFactory@@QAEPAVToken@@XZ 12012d60 f   TokenFactory.obj
 0001:00011d80       ?getLineBegin2@TokenFactory@@QAEPAVToken@@XZ 12012d80 f   TokenFactory.obj
 0001:00011da0       ?getLineEnd@TokenFactory@@QAEPAVToken@@XZ 12012da0 f   TokenFactory.obj
 0001:00011dc0       ?getStringBegin@TokenFactory@@QAEPAVToken@@XZ 12012dc0 f   TokenFactory.obj
 0001:00011de0       ?getStringEnd@TokenFactory@@QAEPAVToken@@XZ 12012de0 f   TokenFactory.obj
 0001:00011e00       ?getStringEnd2@TokenFactory@@QAEPAVToken@@XZ 12012e00 f   TokenFactory.obj
 0001:00011e20       ?getWordEdge@TokenFactory@@QAEPAVToken@@XZ 12012e20 f   TokenFactory.obj
 0001:00011e40       ?getNotWordEdge@TokenFactory@@QAEPAVToken@@XZ 12012e40 f   TokenFactory.obj
 0001:00011e60       ?getWordBegin@TokenFactory@@QAEPAVToken@@XZ 12012e60 f   TokenFactory.obj
 0001:00011e80       ?getWordEnd@TokenFactory@@QAEPAVToken@@XZ 12012e80 f   TokenFactory.obj
 0001:00011ea0       ?getDot@TokenFactory@@QAEPAVToken@@XZ 12012ea0 f   TokenFactory.obj
 0001:00011ec0       ?getCombiningCharacterSequence@TokenFactory@@QAEPAVToken@@XZ 12012ec0 f   TokenFactory.obj
 0001:00011f30       ?getGraphemePattern@TokenFactory@@QAEPAVToken@@XZ 12012f30 f   TokenFactory.obj
 0001:00012190       ?initializeRegistry@TokenFactory@@AAEXXZ 12013190 f   TokenFactory.obj
 0001:00012370       ??0UnicodeRangeFactory@@QAE@XZ 12013370 f   UnicodeRangeFactory.obj
 0001:00012390       ??_EUnicodeRangeFactory@@UAEPAXI@Z 12013390 f i UnicodeRangeFactory.obj
 0001:000123f0       ??1UnicodeRangeFactory@@UAE@XZ 120133f0 f   UnicodeRangeFactory.obj
 0001:00012400       ?buildRanges@UnicodeRangeFactory@@MAEXXZ 12013400 f   UnicodeRangeFactory.obj
 0001:00012630       ?initializeKeywordMap@UnicodeRangeFactory@@UAEXXZ 12013630 f   UnicodeRangeFactory.obj
 0001:000126d0       ?getUniCategory@UnicodeRangeFactory@@AAEGG@Z 120136d0 f   UnicodeRangeFactory.obj
 0001:00012760       ??0UnionToken@@QAE@G@Z     12013760 f   UnionToken.obj
 0001:00012780       ??_EUnionToken@@UAEPAXI@Z  12013780 f i UnionToken.obj
 0001:000127e0       ??1UnionToken@@UAE@XZ      120137e0 f   UnionToken.obj
 0001:00012870       ?addChild@UnionToken@@UAEXQAVToken@@QAVTokenFactory@@@Z 12013870 f   UnionToken.obj
 0001:00012c40       ??0XMLRangeFactory@@QAE@XZ 12013c40 f   XMLRangeFactory.obj
 0001:00012c60       ??_EXMLRangeFactory@@UAEPAXI@Z 12013c60 f i XMLRangeFactory.obj
 0001:00012cc0       ??1XMLRangeFactory@@UAE@XZ 12013cc0 f   XMLRangeFactory.obj
 0001:00012cd0       ?buildRanges@XMLRangeFactory@@MAEXXZ 12013cd0 f   XMLRangeFactory.obj
 0001:00013250       ?initializeKeywordMap@XMLRangeFactory@@UAEXXZ 12014250 f   XMLRangeFactory.obj
 0001:000132c0       ?getType@XMLUniCharacter@@SAGG@Z 120142c0 f   XMLUniCharacter.obj
 0001:000132e0       ?isPad@Base64@@CA_NABE@Z   120142e0 f i Base64.obj
 0001:00013300       ?set1stOctet@Base64@@CAEABE0@Z 12014300 f i Base64.obj
 0001:00013320       ?set2ndOctet@Base64@@CAEABE0@Z 12014320 f i Base64.obj
 0001:00013340       ?set3rdOctet@Base64@@CAEABE0@Z 12014340 f i Base64.obj
 0001:00013360       ?split1stOctet@Base64@@CAXABEAAE1@Z 12014360 f i Base64.obj
 0001:00013380       ?split2ndOctet@Base64@@CAXABEAAE1@Z 12014380 f i Base64.obj
 0001:000133b0       ?split3rdOctet@Base64@@CAXABEAAE1@Z 120143b0 f i Base64.obj
 0001:000133d0       ?encode@Base64@@SAPAEQBEIPAI@Z 120143d0 f   Base64.obj
 0001:00013620       ?getDataLength@Base64@@SAHQBG@Z 12014620 f   Base64.obj
 0001:00013660       ?decode@Base64@@SAPAEQBEPAI@Z 12014660 f   Base64.obj
 0001:000139c0       ?decode@Base64@@SAPAGQBGPAI@Z 120149c0 f   Base64.obj
 0001:00013b00       ?init@Base64@@CAXXZ        12014b00 f   Base64.obj
 0001:00013b40       ?isData@Base64@@CA_NABE@Z  12014b40 f   Base64.obj
 0001:00013b60       ?getIsOpen@BinFileInputStream@@QBE_NXZ 12014b60 f i BinFileInputStream.obj
 0001:00013b70       ??0BinFileInputStream@@QAE@QBG@Z 12014b70 f   BinFileInputStream.obj
 0001:00013bd0       ??_EBinFileInputStream@@UAEPAXI@Z 12014bd0 f i BinFileInputStream.obj
 0001:00013c30       ??0BinFileInputStream@@QAE@QBD@Z 12014c30 f   BinFileInputStream.obj
 0001:00013cb0       ??0BinFileInputStream@@QAE@QAX@Z 12014cb0 f   BinFileInputStream.obj
 0001:00013cd0       ??1BinFileInputStream@@UAE@XZ 12014cd0 f   BinFileInputStream.obj
 0001:00013d30       ?getSize@BinFileInputStream@@QBEIXZ 12014d30 f   BinFileInputStream.obj
 0001:00013d40       ?reset@BinFileInputStream@@QAEXXZ 12014d40 f   BinFileInputStream.obj
 0001:00013d50       ?curPos@BinFileInputStream@@UBEIXZ 12014d50 f   BinFileInputStream.obj
 0001:00013d60       ?readBytes@BinFileInputStream@@UAEIQAEI@Z 12014d60 f   BinFileInputStream.obj
 0001:00013d80       ??1BinInputStream@@UAE@XZ  12014d80 f   BinInputStream.obj
 0001:00013d90       ??_EBinInputStream@@UAEPAXI@Z 12014d90 f i BinInputStream.obj
 0001:00013df0       ??0BinInputStream@@IAE@XZ  12014df0 f   BinInputStream.obj
 0001:00013e00       ?reset@BinMemInputStream@@QAEXXZ 12014e00 f i BinMemInputStream.obj
 0001:00013e10       ??0BinMemInputStream@@QAE@QBEIW4BufOpts@0@@Z 12014e10 f   BinMemInputStream.obj
 0001:00013eb0       ??_EBinMemInputStream@@UAEPAXI@Z 12014eb0 f i BinMemInputStream.obj
 0001:00013f10       ??1BinMemInputStream@@UAE@XZ 12014f10 f   BinMemInputStream.obj
 0001:00013f80       ?readBytes@BinMemInputStream@@UAEIQAEI@Z 12014f80 f   BinMemInputStream.obj
 0001:00013fd0       ??0BitSet@@QAE@I@Z         12014fd0 f   BitSet.obj
 0001:00013ff0       ??0BitSet@@QAE@ABV0@@Z     12014ff0 f   BitSet.obj
 0001:00014040       ?equals@BitSet@@QBE_NABV1@@Z 12015040 f   BitSet.obj
 0001:00014080       ?get@BitSet@@QBE_NI@Z      12015080 f   BitSet.obj
 0001:000140b0       ?size@BitSet@@QBEIXZ       120150b0 f   BitSet.obj
 0001:000140c0       ?allAreCleared@BitSet@@QBE_NXZ 120150c0 f   BitSet.obj
 0001:000140e0       ?allAreSet@BitSet@@QBE_NXZ 120150e0 f   BitSet.obj
 0001:00014100       ?clearAll@BitSet@@QAEXXZ   12015100 f   BitSet.obj
 0001:00014120       ?clear@BitSet@@QAEXI@Z     12015120 f   BitSet.obj
 0001:00014160       ?set@BitSet@@QAEXI@Z       12015160 f   BitSet.obj
 0001:000141a0       ?andWith@BitSet@@QAEXABV1@@Z 120151a0 f   BitSet.obj
 0001:000141f0       ?orWith@BitSet@@QAEXABV1@@Z 120151f0 f   BitSet.obj
 0001:00014240       ?xorWith@BitSet@@QAEXABV1@@Z 12015240 f   BitSet.obj
 0001:00014290       ?hash@BitSet@@QBEII@Z      12015290 f   BitSet.obj
 0001:000142c0       ?ensureCapacity@BitSet@@AAEXI@Z 120152c0 f   BitSet.obj
 0001:00014340       ??0HashPtr@@QAE@ABV0@@Z    12015340 f i HashPtr.obj
 0001:00014350       ??0HashPtr@@QAE@XZ         12015350 f   HashPtr.obj
 0001:00014360       ??1HashPtr@@QAE@XZ         12015360 f   HashPtr.obj
 0001:00014370       ?getHashVal@HashPtr@@UAEIQBXI@Z 12015370 f   HashPtr.obj
 0001:00014380       ?equals@HashPtr@@UAE_NQBX0@Z 12015380 f   HashPtr.obj
 0001:000143a0       ??0HashXMLCh@@QAE@XZ       120153a0 f   HashXMLCh.obj
 0001:000143b0       ??1HashXMLCh@@UAE@XZ       120153b0 f   HashXMLCh.obj
 0001:000143c0       ?getHashVal@HashXMLCh@@UAEIQBXI@Z 120153c0 f   HashXMLCh.obj
 0001:000143e0       ?equals@HashXMLCh@@UAE_NQBX0@Z 120153e0 f   HashXMLCh.obj
 0001:00014400       ?swapBytes@BitOps@@SAGG@Z  12015400 f i HeaderDummy.obj
 0001:00014420       ?swapBytes@BitOps@@SAII@Z  12015420 f i HeaderDummy.obj
 0001:00014450       ??0EmptyStackException@@QAE@QBDIW4Codes@XMLExcepts@@@Z 12015450 f i HeaderDummy.obj
 0001:000144b0       ??0EmptyStackException@@QAE@ABV0@@Z 120154b0 f i HeaderDummy.obj
 0001:000144d0       ??0EmptyStackException@@QAE@QBDIW4Codes@XMLExcepts@@QBG222@Z 120154d0 f i HeaderDummy.obj
 0001:00014540       ??0EmptyStackException@@QAE@QBDIW4Codes@XMLExcepts@@0000@Z 12015540 f i HeaderDummy.obj
 0001:000145b0       ??1EmptyStackException@@UAE@XZ 120155b0 f i HeaderDummy.obj
 0001:000145c0       ?duplicate@EmptyStackException@@UBEPAVXMLException@@XZ 120155c0 f i HeaderDummy.obj
 0001:00014620       ?getType@EmptyStackException@@UBEPBGXZ 12015620 f i HeaderDummy.obj
 0001:00014630       ??_EEmptyStackException@@UAEPAXI@Z 12015630 f i HeaderDummy.obj
 0001:00014690       ??0InvalidCastException@@QAE@QBDIW4Codes@XMLExcepts@@@Z 12015690 f i HeaderDummy.obj
 0001:000146f0       ??0InvalidCastException@@QAE@ABV0@@Z 120156f0 f i HeaderDummy.obj
 0001:00014710       ??0InvalidCastException@@QAE@QBDIW4Codes@XMLExcepts@@QBG222@Z 12015710 f i HeaderDummy.obj
 0001:00014780       ??0InvalidCastException@@QAE@QBDIW4Codes@XMLExcepts@@0000@Z 12015780 f i HeaderDummy.obj
 0001:000147f0       ??1InvalidCastException@@UAE@XZ 120157f0 f i HeaderDummy.obj
 0001:00014800       ?duplicate@InvalidCastException@@UBEPAVXMLException@@XZ 12015800 f i HeaderDummy.obj
 0001:00014860       ?getType@InvalidCastException@@UBEPBGXZ 12015860 f i HeaderDummy.obj
 0001:00014870       ??_EInvalidCastException@@UAEPAXI@Z 12015870 f i HeaderDummy.obj
 0001:000148d0       ??0IOException@@QAE@QBDIW4Codes@XMLExcepts@@@Z 120158d0 f i HeaderDummy.obj
 0001:00014930       ??0IOException@@QAE@ABV0@@Z 12015930 f i HeaderDummy.obj
 0001:00014950       ??0IOException@@QAE@QBDIW4Codes@XMLExcepts@@QBG222@Z 12015950 f i HeaderDummy.obj
 0001:000149c0       ??0IOException@@QAE@QBDIW4Codes@XMLExcepts@@0000@Z 120159c0 f i HeaderDummy.obj
 0001:00014a30       ??1IOException@@UAE@XZ     12015a30 f i HeaderDummy.obj
 0001:00014a40       ?duplicate@IOException@@UBEPAVXMLException@@XZ 12015a40 f i HeaderDummy.obj
 0001:00014aa0       ?getType@IOException@@UBEPBGXZ 12015aa0 f i HeaderDummy.obj
 0001:00014ab0       ??_EIOException@@UAEPAXI@Z 12015ab0 f i HeaderDummy.obj
 0001:00014b10       ??0UnexpectedEOFException@@QAE@QBDIW4Codes@XMLExcepts@@@Z 12015b10 f i HeaderDummy.obj
 0001:00014b70       ??0UnexpectedEOFException@@QAE@ABV0@@Z 12015b70 f i HeaderDummy.obj
 0001:00014b90       ??0UnexpectedEOFException@@QAE@QBDIW4Codes@XMLExcepts@@QBG222@Z 12015b90 f i HeaderDummy.obj
 0001:00014c00       ??0UnexpectedEOFException@@QAE@QBDIW4Codes@XMLExcepts@@0000@Z 12015c00 f i HeaderDummy.obj
 0001:00014c70       ??1UnexpectedEOFException@@UAE@XZ 12015c70 f i HeaderDummy.obj
 0001:00014c80       ?duplicate@UnexpectedEOFException@@UBEPAVXMLException@@XZ 12015c80 f i HeaderDummy.obj
 0001:00014ce0       ?getType@UnexpectedEOFException@@UBEPBGXZ 12015ce0 f i HeaderDummy.obj
 0001:00014cf0       ??_EUnexpectedEOFException@@UAEPAXI@Z 12015cf0 f i HeaderDummy.obj
 0001:00014d50       ??0UnsupportedEncodingException@@QAE@QBDIW4Codes@XMLExcepts@@@Z 12015d50 f i HeaderDummy.obj
 0001:00014db0       ??0UnsupportedEncodingException@@QAE@ABV0@@Z 12015db0 f i HeaderDummy.obj
 0001:00014dd0       ??0UnsupportedEncodingException@@QAE@QBDIW4Codes@XMLExcepts@@QBG222@Z 12015dd0 f i HeaderDummy.obj
 0001:00014e40       ??0UnsupportedEncodingException@@QAE@QBDIW4Codes@XMLExcepts@@0000@Z 12015e40 f i HeaderDummy.obj
 0001:00014eb0       ??1UnsupportedEncodingException@@UAE@XZ 12015eb0 f i HeaderDummy.obj
 0001:00014ec0       ?duplicate@UnsupportedEncodingException@@UBEPAVXMLException@@XZ 12015ec0 f i HeaderDummy.obj
 0001:00014f20       ?getType@UnsupportedEncodingException@@UBEPBGXZ 12015f20 f i HeaderDummy.obj
 0001:00014f30       ??_EUnsupportedEncodingException@@UAEPAXI@Z 12015f30 f i HeaderDummy.obj
 0001:00014f90       ??0UTFDataFormatException@@QAE@QBDIW4Codes@XMLExcepts@@@Z 12015f90 f i HeaderDummy.obj
 0001:00014ff0       ??0UTFDataFormatException@@QAE@ABV0@@Z 12015ff0 f i HeaderDummy.obj
 0001:00015010       ??0UTFDataFormatException@@QAE@QBDIW4Codes@XMLExcepts@@QBG222@Z 12016010 f i HeaderDummy.obj
 0001:00015080       ??0UTFDataFormatException@@QAE@QBDIW4Codes@XMLExcepts@@0000@Z 12016080 f i HeaderDummy.obj
 0001:000150f0       ??1UTFDataFormatException@@UAE@XZ 120160f0 f i HeaderDummy.obj
 0001:00015100       ?duplicate@UTFDataFormatException@@UBEPAVXMLException@@XZ 12016100 f i HeaderDummy.obj
 0001:00015160       ?getType@UTFDataFormatException@@UBEPBGXZ 12016160 f i HeaderDummy.obj
 0001:00015170       ??_EUTFDataFormatException@@UAEPAXI@Z 12016170 f i HeaderDummy.obj
 0001:000151d0       ?getDataLength@HexBin@@SAHQBG@Z 120161d0 f   HexBin.obj
 0001:000152b0       ?isArrayByteHex@HexBin@@SA_NQBG@Z 120162b0 f   HexBin.obj
 0001:00015370       ?isHex@HexBin@@CA_NABG@Z   12016370 f   HexBin.obj
 0001:00015390       ?init@HexBin@@CAXXZ        12016390 f   HexBin.obj
 0001:000153f0       ??4Match@@QAEAAV0@ABV0@@Z  120163f0 f i KVStringPair.obj
 0001:000153f0       ??4XMLBuffer@@QAEAAV0@ABV0@@Z 120163f0 f i KVStringPair.obj
 0001:000153f0       ??4KVStringPair@@QAEAAV0@ABV0@@Z 120163f0 f i KVStringPair.obj
 0001:00015420       ??0KVStringPair@@QAE@QBG0@Z 12016420 f   KVStringPair.obj
 0001:00015500       ??0KVStringPair@@QAE@ABV0@@Z 12016500 f   KVStringPair.obj
 0001:000155f0       ??1KVStringPair@@QAE@XZ    120165f0 f   KVStringPair.obj
 0001:00015610       ?setKey@KVStringPair@@QAEXQBG@Z 12016610 f   KVStringPair.obj
 0001:00015680       ?setValue@KVStringPair@@QAEXQBG@Z 12016680 f   KVStringPair.obj
 0001:000156f0       ?set@KVStringPair@@QAEXQBG0@Z 120166f0 f   KVStringPair.obj
 0001:000157b0       ??0XMLMutex@@QAE@XZ        120167b0 f   Mutexes.obj
 0001:000157d0       ??1XMLMutex@@QAE@XZ        120167d0 f   Mutexes.obj
 0001:000157f0       ?lock@XMLMutex@@QAEXXZ     120167f0 f   Mutexes.obj
 0001:00015800       ?unlock@XMLMutex@@QAEXXZ   12016800 f   Mutexes.obj
 0001:00015810       ??0XMLMutexLock@@QAE@QAVXMLMutex@@@Z 12016810 f   Mutexes.obj
 0001:00015830       ??1XMLMutexLock@@QAE@XZ    12016830 f   Mutexes.obj
 0001:00015840       ??4XMLReader@@QAEAAV0@ABV0@@Z 12016840 f i PlatformUtils.obj
 0001:00015860       ?isBaseChar@XMLReader@@SA_NG@Z 12016860 f i PlatformUtils.obj
 0001:00015880       ?isNameChar@XMLReader@@SA_NG@Z 12016880 f i PlatformUtils.obj
 0001:000158a0       ?isPlainContentChar@XMLReader@@SA_NG@Z 120168a0 f i PlatformUtils.obj
 0001:000158c0       ?isSpecialCharDataChar@XMLReader@@SA_NG@Z 120168c0 f i PlatformUtils.obj
 0001:000158e0       ?isSpecialStartTagChar@XMLReader@@SA_NG@Z 120168e0 f i PlatformUtils.obj
 0001:00015900       ?isXMLChar@XMLReader@@SA_NG@Z 12016900 f i PlatformUtils.obj
 0001:00015920       ?isXMLLetter@XMLReader@@SA_NG@Z 12016920 f i PlatformUtils.obj
 0001:00015940       ?isWhitespace@XMLReader@@SA_NG@Z 12016940 f i PlatformUtils.obj
 0001:00015960       ?charsLeftInBuffer@XMLReader@@QBEKXZ 12016960 f i PlatformUtils.obj
 0001:00015970       ?getColumnNumber@XMLReader@@QBEIXZ 12016970 f i PlatformUtils.obj
 0001:00015980       ?getEncodingStr@XMLReader@@QBEPBGXZ 12016980 f i PlatformUtils.obj
 0001:00015990       ?getLineNumber@XMLReader@@QBEIXZ 12016990 f i PlatformUtils.obj
 0001:000159a0       ?getNoMoreFlag@XMLReader@@QBE_NXZ 120169a0 f i PlatformUtils.obj
 0001:000159b0       ?getPublicId@XMLReader@@QBEPBGXZ 120169b0 f i PlatformUtils.obj
 0001:000159c0       ?getReaderNum@XMLReader@@QBEIXZ 120169c0 f i PlatformUtils.obj
 0001:000159d0       ?getRefFrom@XMLReader@@QBE?AW4RefFrom@1@XZ 120169d0 f i PlatformUtils.obj
 0001:000159e0       ?getSource@XMLReader@@QBE?AW4Sources@1@XZ 120169e0 f i PlatformUtils.obj
 0001:000159f0       ?getSystemId@XMLReader@@QBEPBGXZ 120169f0 f i PlatformUtils.obj
 0001:00015a00       ?getThrowAtEnd@XMLReader@@QBE_NXZ 12016a00 f i PlatformUtils.obj
 0001:00015a10       ?getType@XMLReader@@QBE?AW4Types@1@XZ 12016a10 f i PlatformUtils.obj
 0001:00015a20       ?isNELRecognized@XMLReader@@SA_NXZ 12016a20 f i PlatformUtils.obj
 0001:00015a30       ?setReaderNum@XMLReader@@QAEXI@Z 12016a30 f i PlatformUtils.obj
 0001:00015a40       ?setThrowAtEnd@XMLReader@@QAEX_N@Z 12016a40 f i PlatformUtils.obj
 0001:00015a50       ?movePlainContentChars@XMLReader@@QAEXAAVXMLBuffer@@@Z 12016a50 f i PlatformUtils.obj
 0001:00015ab0       ?getNextCharIfNot@XMLReader@@QAE_NGAAG@Z 12016ab0 f i PlatformUtils.obj
 0001:00015bf0       ?Initialize@XMLPlatformUtils@@SAXXZ 12016bf0 f   PlatformUtils.obj
 0001:00015cf0       ?Terminate@XMLPlatformUtils@@SAXXZ 12016cf0 f   PlatformUtils.obj
 0001:00015df0       ?loadMsgSet@XMLPlatformUtils@@SAPAVXMLMsgLoader@@QBG@Z 12016df0 f   PlatformUtils.obj
 0001:00015e00       ?recognizeNEL@XMLPlatformUtils@@SAX_N@Z 12016e00 f   PlatformUtils.obj
 0001:00015e60       ?isNELRecognized@XMLPlatformUtils@@SA_NXZ 12016e60 f   PlatformUtils.obj
 0001:00015e70       ??4QName@@QAEAAV0@ABV0@@Z  12016e70 f i QName.obj
 0001:00015e90       ??0QName@@QAE@XZ           12016e90 f   QName.obj
 0001:00015eb0       ??0QName@@QAE@QBG0I@Z      12016eb0 f   QName.obj
 0001:00016010       ??0QName@@QAE@QBGI@Z       12017010 f   QName.obj
 0001:000160a0       ??1QName@@QAE@XZ           120170a0 f   QName.obj
 0001:000160a0       ?cleanUp@QName@@QAEXXZ     120170a0 f   QName.obj
 0001:000160d0       ??0QName@@QAE@QBV0@@Z      120170d0 f   QName.obj
 0001:000161b0       ?getRawName@QName@@QAEPAGXZ 120171b0 f   QName.obj
 0001:000161b0       ?getRawName@QName@@QBEPBGXZ 120171b0 f   QName.obj
 0001:00016270       ?setName@QName@@QAEXQBG0I@Z 12017270 f   QName.obj
 0001:00016380       ?setName@QName@@QAEXQBGI@Z 12017380 f   QName.obj
 0001:00016540       ?setPrefix@QName@@QAEXPBG@Z 12017540 f   QName.obj
 0001:000165c0       ?setNPrefix@QName@@QAEXPBGI@Z 120175c0 f   QName.obj
 0001:00016630       ?setNLocalPart@QName@@QAEXPBGI@Z 12017630 f   QName.obj
 0001:000166a0       ?setValues@QName@@QAEXABV1@@Z 120176a0 f   QName.obj
 0001:000167a0       ??8QName@@QAE_NABV0@@Z     120177a0 f   QName.obj
 0001:000167f0       ??0XMLStringPool@@QAE@I@Z  120177f0 f   StringPool.obj
 0001:00016940       ??1XMLStringPool@@QAE@XZ   12017940 f   StringPool.obj
 0001:000169f0       ?addOrFind@XMLStringPool@@QAEIQBG@Z 120179f0 f   StringPool.obj
 0001:00016a80       ?exists@XMLStringPool@@QBE_NQBG@Z 12017a80 f   StringPool.obj
 0001:00016b00       ?exists@XMLStringPool@@QBE_NI@Z 12017b00 f   StringPool.obj
 0001:00016b20       ?flushAll@XMLStringPool@@QAEXXZ 12017b20 f   StringPool.obj
 0001:00016ba0       ?getId@XMLStringPool@@QBEIQBG@Z 12017ba0 f   StringPool.obj
 0001:00016c30       ?getValueForId@XMLStringPool@@QBEPBGI@Z 12017c30 f   StringPool.obj
 0001:00016c80       ?addNewEntry@XMLStringPool@@AAEIQBG@Z 12017c80 f   StringPool.obj
 0001:00016eb0       ??0XMLTransService@@IAE@XZ 12017eb0 f   TransService.obj
 0001:00016ec0       ??_EXMLTransService@@UAEPAXI@Z 12017ec0 f i TransService.obj
 0001:00016fe0       ??1XMLTransService@@UAE@XZ 12017fe0 f   TransService.obj
 0001:000170c0       ?addEncoding@XMLTransService@@SAXQBGQAVENameMap@@@Z 120180c0 f   TransService.obj
 0001:000170e0       ?makeNewTranscoderFor@XMLTransService@@QAEPAVXMLTranscoder@@QBDAAW4Codes@1@I@Z 120180e0 f   TransService.obj
 0001:00017150       ?makeNewTranscoderFor@XMLTransService@@QAEPAVXMLTranscoder@@QBGAAW4Codes@1@I@Z 12018150 f   TransService.obj
 0001:000172d0       ??1XMLTranscoder@@UAE@XZ   120182d0 f   TransService.obj
 0001:000172f0       ??_EXMLTranscoder@@UAEPAXI@Z 120182f0 f i TransService.obj
 0001:00017350       ??0XMLTranscoder@@IAE@QBGI@Z 12018350 f   TransService.obj
 0001:000173d0       ??0XMLLCPTranscoder@@IAE@XZ 120183d0 f   TransService.obj
 0001:000173e0       ??_EXMLLCPTranscoder@@UAEPAXI@Z 120183e0 f i TransService.obj
 0001:00017440       ??1XMLLCPTranscoder@@UAE@XZ 12018440 f   TransService.obj
 0001:00017450       ?initTransService@XMLTransService@@AAEXXZ 12018450 f   TransService.obj
 0001:00018580       ?put@?$RefHashTableOf@VENameMap@@@@QAEXPAXQAVENameMap@@@Z 12019580 f i TransService.obj
 0001:00018690       ?makeNew@?$ENameMapFor@VXMLChTranscoder@@@@UBEPAVXMLTranscoder@@I@Z 12019690 f i TransService.obj
 0001:00018700       ?makeNew@?$ENameMapFor@VXMLASCIITranscoder@@@@UBEPAVXMLTranscoder@@I@Z 12019700 f i TransService.obj
 0001:00018770       ?makeNew@?$ENameMapFor@VXMLUTF8Transcoder@@@@UBEPAVXMLTranscoder@@I@Z 12019770 f i TransService.obj
 0001:000187e0       ?makeNew@?$ENameMapFor@VXML88591Transcoder@@@@UBEPAVXMLTranscoder@@I@Z 120197e0 f i TransService.obj
 0001:00018850       ??0?$EEndianNameMapFor@VXMLUTF16Transcoder@@@@QAE@QBG_N@Z 12019850 f i TransService.obj
 0001:000188c0       ?makeNew@?$EEndianNameMapFor@VXMLUTF16Transcoder@@@@UBEPAVXMLTranscoder@@I@Z 120198c0 f i TransService.obj
 0001:00018930       ??0?$EEndianNameMapFor@VXMLUCS4Transcoder@@@@QAE@QBG_N@Z 12019930 f i TransService.obj
 0001:000189a0       ?makeNew@?$EEndianNameMapFor@VXMLUCS4Transcoder@@@@UBEPAVXMLTranscoder@@I@Z 120199a0 f i TransService.obj
 0001:00018a10       ??0?$ENameMapFor@VXMLEBCDICTranscoder@@@@QAE@QBG@Z 12019a10 f i TransService.obj
 0001:00018a80       ?makeNew@?$ENameMapFor@VXMLEBCDICTranscoder@@@@UBEPAVXMLTranscoder@@I@Z 12019a80 f i TransService.obj
 0001:00018af0       ??0?$ENameMapFor@VXMLIBM1140Transcoder@@@@QAE@QBG@Z 12019af0 f i TransService.obj
 0001:00018b60       ?makeNew@?$ENameMapFor@VXMLIBM1140Transcoder@@@@UBEPAVXMLTranscoder@@I@Z 12019b60 f i TransService.obj
 0001:00018bd0       ??0?$ENameMapFor@VXMLWin1252Transcoder@@@@QAE@QBG@Z 12019bd0 f i TransService.obj
 0001:00018c40       ?makeNew@?$ENameMapFor@VXMLWin1252Transcoder@@@@UBEPAVXMLTranscoder@@I@Z 12019c40 f i TransService.obj
 0001:00018cb0       ??_GENameMap@@QAEPAXI@Z    12019cb0 f i TransService.obj
 0001:00018ce0       ??1XML256TableTranscoder@@UAE@XZ 12019ce0 f   XML256TableTranscoder.obj
 0001:00018cf0       ??_EXML256TableTranscoder@@UAEPAXI@Z 12019cf0 f i XML256TableTranscoder.obj
 0001:00018d50       ?transcodeFrom@XML256TableTranscoder@@UAEIQBEIQAGIAAIQAE@Z 12019d50 f   XML256TableTranscoder.obj
 0001:00018dc0       ?transcodeTo@XML256TableTranscoder@@UAEIQBGIQAEIAAIW4UnRepOpts@XMLTranscoder@@@Z 12019dc0 f   XML256TableTranscoder.obj
 0001:00018e80       ?canTranscodeTo@XML256TableTranscoder@@UBE_NI@Z 12019e80 f   XML256TableTranscoder.obj
 0001:00018ea0       ??0XML256TableTranscoder@@IAE@QBGI0QBUTransRec@XMLTransService@@I@Z 12019ea0 f   XML256TableTranscoder.obj
 0001:00018ee0       ?xlatOneTo@XML256TableTranscoder@@IBEEG@Z 12019ee0 f   XML256TableTranscoder.obj
 0001:00018f40       ??0XML88591Transcoder@@QAE@QBGI@Z 12019f40 f   XML88591Transcoder.obj
 0001:00018f60       ??_EXML88591Transcoder@@UAEPAXI@Z 12019f60 f i XML88591Transcoder.obj
 0001:00018fc0       ??1XML88591Transcoder@@UAE@XZ 12019fc0 f   XML88591Transcoder.obj
 0001:00018fd0       ?transcodeFrom@XML88591Transcoder@@UAEIQBEIQAGIAAIQAE@Z 12019fd0 f   XML88591Transcoder.obj
 0001:00019030       ?transcodeTo@XML88591Transcoder@@UAEIQBGIQAEIAAIW4UnRepOpts@XMLTranscoder@@@Z 1201a030 f   XML88591Transcoder.obj
 0001:000190e0       ?canTranscodeTo@XML88591Transcoder@@UBE_NI@Z 1201a0e0 f   XML88591Transcoder.obj
 0001:000190f0       ??0XMLNumber@@QAE@ABV0@@Z  1201a0f0 f i XMLAbstractDoubleFloat.obj
 0001:00019100       ??_EXMLNumber@@UAEPAXI@Z   1201a100 f i XMLAbstractDoubleFloat.obj
 0001:00019160       ?getTotalDigit@XMLBigInteger@@QBEHXZ 1201a160 f i XMLAbstractDoubleFloat.obj
 0001:00019190       ??8XMLBigInteger@@QBE_NABV0@@Z 1201a190 f i XMLAbstractDoubleFloat.obj
 0001:000191b0       ??4XMLBigDecimal@@QAEAAV0@ABV0@@Z 1201a1b0 f i XMLAbstractDoubleFloat.obj
 0001:000191b0       ??4IDNamedNodeMapImpl@@QAEAAV0@ABV0@@Z 1201a1b0 f i XMLAbstractDoubleFloat.obj
 0001:000191b0       ??4IDOM_DOMException@@QAEAAV0@ABV0@@Z 1201a1b0 f i XMLAbstractDoubleFloat.obj
 0001:000191b0       ??4IDAttrMapImpl@@QAEAAV0@ABV0@@Z 1201a1b0 f i XMLAbstractDoubleFloat.obj
 0001:000191d0       ??1XMLBigDecimal@@UAE@XZ   1201a1d0 f i XMLAbstractDoubleFloat.obj
 0001:00019240       ??_EXMLBigDecimal@@UAEPAXI@Z 1201a240 f i XMLAbstractDoubleFloat.obj
 0001:000192a0       ?getTotalDigit@XMLBigDecimal@@QBEIXZ 1201a2a0 f i XMLAbstractDoubleFloat.obj
 0001:000192d0       ??8XMLBigDecimal@@QBE_NABV0@@Z 1201a2d0 f i XMLAbstractDoubleFloat.obj
 0001:000192f0       ?isSpecialValue@XMLAbstractDoubleFloat@@ABE_NXZ 1201a2f0 f i XMLAbstractDoubleFloat.obj
 0001:00019300       ??0NumberFormatException@@QAE@QBDIW4Codes@XMLExcepts@@@Z 1201a300 f i XMLAbstractDoubleFloat.obj
 0001:00019360       ??0NumberFormatException@@QAE@ABV0@@Z 1201a360 f i XMLAbstractDoubleFloat.obj
 0001:00019380       ??0NumberFormatException@@QAE@QBDIW4Codes@XMLExcepts@@QBG222@Z 1201a380 f i XMLAbstractDoubleFloat.obj
 0001:000193f0       ??0NumberFormatException@@QAE@QBDIW4Codes@XMLExcepts@@0000@Z 1201a3f0 f i XMLAbstractDoubleFloat.obj
 0001:00019460       ??1NumberFormatException@@UAE@XZ 1201a460 f i XMLAbstractDoubleFloat.obj
 0001:00019470       ?duplicate@NumberFormatException@@UBEPAVXMLException@@XZ 1201a470 f i XMLAbstractDoubleFloat.obj
 0001:000194d0       ?getType@NumberFormatException@@UBEPBGXZ 1201a4d0 f i XMLAbstractDoubleFloat.obj
 0001:000194e0       ??_ENumberFormatException@@UAEPAXI@Z 1201a4e0 f i XMLAbstractDoubleFloat.obj
 0001:00019540       ??0XMLAbstractDoubleFloat@@IAE@XZ 1201a540 f   XMLAbstractDoubleFloat.obj
 0001:00019570       ??_EXMLAbstractDoubleFloat@@UAEPAXI@Z 1201a570 f i XMLAbstractDoubleFloat.obj
 0001:000195d0       ??1XMLAbstractDoubleFloat@@UAE@XZ 1201a5d0 f   XMLAbstractDoubleFloat.obj
 0001:00019640       ?init@XMLAbstractDoubleFloat@@IAEXQBG@Z 1201a640 f   XMLAbstractDoubleFloat.obj
 0001:000199b0       ?toString@XMLAbstractDoubleFloat@@UBEPAGXZ 1201a9b0 f   XMLAbstractDoubleFloat.obj
 0001:00019cb0       ?compareValues@XMLAbstractDoubleFloat@@KAHQBV1@0@Z 1201acb0 f   XMLAbstractDoubleFloat.obj
 0001:00019fd0       ?compareSpecial@XMLAbstractDoubleFloat@@CAHQBV1@0@Z 1201afd0 f   XMLAbstractDoubleFloat.obj
 0001:0001a070       ?normalizeZero@XMLAbstractDoubleFloat@@AAEXQAG@Z 1201b070 f   XMLAbstractDoubleFloat.obj
 0001:0001a140       ??0XMLASCIITranscoder@@QAE@QBGI@Z 1201b140 f   XMLASCIITranscoder.obj
 0001:0001a160       ??_EXMLASCIITranscoder@@UAEPAXI@Z 1201b160 f i XMLASCIITranscoder.obj
 0001:0001a1c0       ??1XMLASCIITranscoder@@UAE@XZ 1201b1c0 f   XMLASCIITranscoder.obj
 0001:0001a1d0       ?transcodeFrom@XMLASCIITranscoder@@UAEIQBEIQAGIAAIQAE@Z 1201b1d0 f   XMLASCIITranscoder.obj
 0001:0001a290       ?transcodeTo@XMLASCIITranscoder@@UAEIQBGIQAEIAAIW4UnRepOpts@XMLTranscoder@@@Z 1201b290 f   XMLASCIITranscoder.obj
 0001:0001a340       ?canTranscodeTo@XMLASCIITranscoder@@UBE_NI@Z 1201b340 f   XMLASCIITranscoder.obj
 0001:0001a350       ??0XMLBigDecimal@@QAE@QBG@Z 1201b350 f   XMLBigDecimal.obj
 0001:0001a460       ??0XMLBigDecimal@@QAE@ABV0@@Z 1201b460 f   XMLBigDecimal.obj
 0001:0001a4e0       ??0XMLBigDecimal@@QAE@ABV0@H@Z 1201b4e0 f   XMLBigDecimal.obj
 0001:0001a590       ?parseBigDecimal@XMLBigDecimal@@SAXQBGQAGAAI@Z 1201b590 f   XMLBigDecimal.obj
 0001:0001a750       ?compareValues@XMLBigDecimal@@SAHQBV1@0@Z 1201b750 f   XMLBigDecimal.obj
 0001:0001a990       ?matchScale@XMLBigDecimal@@SAXQAV1@0@Z 1201b990 f   XMLBigDecimal.obj
 0001:0001aa10       ?reScale@XMLBigDecimal@@AAEXI@Z 1201ba10 f   XMLBigDecimal.obj
 0001:0001aa50       ?toString@XMLBigDecimal@@UBEPAGXZ 1201ba50 f   XMLBigDecimal.obj
 0001:0001ab20       ?parseBigInteger@XMLBigInteger@@SAXQBGQAGAAH@Z 1201bb20 f   XMLBigInteger.obj
 0001:0001acb0       ??0XMLBigInteger@@QAE@QBG@Z 1201bcb0 f   XMLBigInteger.obj
 0001:0001ae40       ??1XMLBigInteger@@QAE@XZ   1201be40 f   XMLBigInteger.obj
 0001:0001ae50       ??0XMLBigInteger@@QAE@ABV0@@Z 1201be50 f   XMLBigInteger.obj
 0001:0001aec0       ?compareValues@XMLBigInteger@@SAHQBV1@0@Z 1201bec0 f   XMLBigInteger.obj
 0001:0001afe0       ?multiply@XMLBigInteger@@QAEXI@Z 1201bfe0 f   XMLBigInteger.obj
 0001:0001b090       ?divide@XMLBigInteger@@QAEXI@Z 1201c090 f   XMLBigInteger.obj
 0001:0001b120       ?toString@XMLBigInteger@@QBEPAGXZ 1201c120 f   XMLBigInteger.obj
 0001:0001b1c0       ?intValue@XMLBigInteger@@QBEHXZ 1201c1c0 f   XMLBigInteger.obj
 0001:0001b1e0       ??0XMLChTranscoder@@QAE@QBGI@Z 1201c1e0 f   XMLChTranscoder.obj
 0001:0001b200       ??_EXMLChTranscoder@@UAEPAXI@Z 1201c200 f i XMLChTranscoder.obj
 0001:0001b260       ??1XMLChTranscoder@@UAE@XZ 1201c260 f   XMLChTranscoder.obj
 0001:0001b270       ?transcodeFrom@XMLChTranscoder@@UAEIQBEIQAGIAAIQAE@Z 1201c270 f   XMLChTranscoder.obj
 0001:0001b2d0       ?transcodeTo@XMLChTranscoder@@UAEIQBGIQAEIAAIW4UnRepOpts@XMLTranscoder@@@Z 1201c2d0 f   XMLChTranscoder.obj
 0001:0001b310       ??0SchemaDateTimeException@@QAE@QBDIW4Codes@XMLExcepts@@@Z 1201c310 f i XMLDateTime.obj
 0001:0001b370       ??0SchemaDateTimeException@@QAE@ABV0@@Z 1201c370 f i XMLDateTime.obj
 0001:0001b390       ??0SchemaDateTimeException@@QAE@QBDIW4Codes@XMLExcepts@@QBG222@Z 1201c390 f i XMLDateTime.obj
 0001:0001b400       ??0SchemaDateTimeException@@QAE@QBDIW4Codes@XMLExcepts@@0000@Z 1201c400 f i XMLDateTime.obj
 0001:0001b470       ??1SchemaDateTimeException@@UAE@XZ 1201c470 f i XMLDateTime.obj
 0001:0001b480       ?duplicate@SchemaDateTimeException@@UBEPAVXMLException@@XZ 1201c480 f i XMLDateTime.obj
 0001:0001b4e0       ?getType@SchemaDateTimeException@@UBEPBGXZ 1201c4e0 f i XMLDateTime.obj
 0001:0001b4f0       ??_ESchemaDateTimeException@@UAEPAXI@Z 1201c4f0 f i XMLDateTime.obj
 0001:0001b550       ?setBuffer@XMLDateTime@@QAEXQBG@Z 1201c550 f i XMLDateTime.obj
 0001:0001b610       ?reset@XMLDateTime@@AAEXXZ 1201c610 f i XMLDateTime.obj
 0001:0001b650       ?copy@XMLDateTime@@AAEXABV1@@Z 1201c650 f i XMLDateTime.obj
 0001:0001b700       ?assertBuffer@XMLDateTime@@ABEXXZ 1201c700 f i XMLDateTime.obj
 0001:0001b740       ?initParser@XMLDateTime@@AAEXXZ 1201c740 f i XMLDateTime.obj
 0001:0001b790       ?isNormalized@XMLDateTime@@ABE_NXZ 1201c790 f i XMLDateTime.obj
 0001:0001b7a0       ?getRetVal@XMLDateTime@@CAHHH@Z 1201c7a0 f i XMLDateTime.obj
 0001:0001b7d0       ?compare@XMLDateTime@@SAHQBV1@0_N@Z 1201c7d0 f   XMLDateTime.obj
 0001:0001bb20       ?addDuration@XMLDateTime@@CAXPAV1@QBV1@H@Z 1201cb20 f   XMLDateTime.obj
 0001:0001bd80       ?compareResult@XMLDateTime@@CAHFF_N@Z 1201cd80 f   XMLDateTime.obj
 0001:0001bdd0       ?compare@XMLDateTime@@SAHQBV1@0@Z 1201cdd0 f   XMLDateTime.obj
 0001:0001be80       ?compareResult@XMLDateTime@@CAHQBV1@0_NH@Z 1201ce80 f   XMLDateTime.obj
 0001:0001bff0       ?compareOrder@XMLDateTime@@SAHQBV1@0@Z 1201cff0 f   XMLDateTime.obj
 0001:0001c220       ??1XMLDateTime@@UAE@XZ     1201d220 f   XMLDateTime.obj
 0001:0001c280       ??_EXMLDateTime@@UAEPAXI@Z 1201d280 f i XMLDateTime.obj
 0001:0001c2e0       ??0XMLDateTime@@QAE@XZ     1201d2e0 f   XMLDateTime.obj
 0001:0001c360       ??0XMLDateTime@@QAE@QBG@Z  1201d360 f   XMLDateTime.obj
 0001:0001c450       ??0XMLDateTime@@QAE@ABV0@@Z 1201d450 f   XMLDateTime.obj
 0001:0001c540       ??4XMLDateTime@@QAEAAV0@ABV0@@Z 1201d540 f   XMLDateTime.obj
 0001:0001c600       ?toString@XMLDateTime@@UBEPAGXZ 1201d600 f   XMLDateTime.obj
 0001:0001c690       ?parseDateTime@XMLDateTime@@QAEXXZ 1201d690 f   XMLDateTime.obj
 0001:0001c740       ?parseDate@XMLDateTime@@QAEXXZ 1201d740 f   XMLDateTime.obj
 0001:0001c820       ?parseTime@XMLDateTime@@QAEXXZ 1201d820 f   XMLDateTime.obj
 0001:0001c890       ?parseDay@XMLDateTime@@QAEXXZ 1201d890 f   XMLDateTime.obj
 0001:0001c9d0       ?parseMonth@XMLDateTime@@QAEXXZ 1201d9d0 f   XMLDateTime.obj
 0001:0001cb20       ?parseYear@XMLDateTime@@QAEXXZ 1201db20 f   XMLDateTime.obj
 0001:0001cc00       ?parseMonthDay@XMLDateTime@@QAEXXZ 1201dc00 f   XMLDateTime.obj
 0001:0001cd50       ?parseYearMonth@XMLDateTime@@QAEXXZ 1201dd50 f   XMLDateTime.obj
 0001:0001ce30       ?parseDuration@XMLDateTime@@QAEXXZ 1201de30 f   XMLDateTime.obj
 0001:0001d220       ?getDate@XMLDateTime@@AAEXXZ 1201e220 f   XMLDateTime.obj
 0001:0001d2d0       ?getTime@XMLDateTime@@AAEXXZ 1201e2d0 f   XMLDateTime.obj
 0001:0001d460       ?getYearMonth@XMLDateTime@@AAEXXZ 1201e460 f   XMLDateTime.obj
 0001:0001d570       ?parseTimeZone@XMLDateTime@@AAEXXZ 1201e570 f   XMLDateTime.obj
 0001:0001d5f0       ?getTimeZone@XMLDateTime@@AAEXH@Z 1201e5f0 f   XMLDateTime.obj
 0001:0001d6b0       ?normalize@XMLDateTime@@AAEXXZ 1201e6b0 f   XMLDateTime.obj
 0001:0001d890       ?validateDateTime@XMLDateTime@@ABEXXZ 1201e890 f   XMLDateTime.obj
 0001:0001db40       ?indexOf@XMLDateTime@@ABEHHHG@Z 1201eb40 f   XMLDateTime.obj
 0001:0001db70       ?findUTCSign@XMLDateTime@@AAEHH@Z 1201eb70 f   XMLDateTime.obj
 0001:0001dbc0       ?parseInt@XMLDateTime@@ABEHHH@Z 1201ebc0 f   XMLDateTime.obj
 0001:0001dc50       ?parseIntYear@XMLDateTime@@ABEHH@Z 1201ec50 f   XMLDateTime.obj
 0001:0001dd20       ??0XMLDouble@@QAE@QBG@Z    1201ed20 f   XMLDouble.obj
 0001:0001dd70       ??_EXMLDouble@@UAEPAXI@Z   1201ed70 f i XMLDouble.obj
 0001:0001ddd0       ??1XMLDouble@@UAE@XZ       1201edd0 f   XMLDouble.obj
 0001:0001dde0       ?checkBoundary@XMLDouble@@MAEXQBG@Z 1201ede0 f   XMLDouble.obj
 0001:0001e190       ?reinitXMLDouble@XMLDouble@@SAXXZ 1201f190 f   XMLDouble.obj
 0001:0001e210       ?xlatThisOne@XMLEBCDICTranscoder@@SAGE@Z 1201f210 f   XMLEBCDICTranscoder.obj
 0001:0001e230       ??0XMLEBCDICTranscoder@@QAE@QBGI@Z 1201f230 f   XMLEBCDICTranscoder.obj
 0001:0001e260       ??_EXMLEBCDICTranscoder@@UAEPAXI@Z 1201f260 f i XMLEBCDICTranscoder.obj
 0001:0001e2c0       ??1XMLEBCDICTranscoder@@UAE@XZ 1201f2c0 f   XMLEBCDICTranscoder.obj
 0001:0001e2d0       ?registerCleanup@XMLRegisterCleanup@@QAEXP6AXXZ@Z 1201f2d0 f i XMLException.obj
 0001:0001e360       ??1XMLException@@UAE@XZ    1201f360 f   XMLException.obj
 0001:0001e380       ??_EXMLException@@UAEPAXI@Z 1201f380 f i XMLException.obj
 0001:0001e3f0       ?setPosition@XMLException@@QAEXQBDI@Z 1201f3f0 f   XMLException.obj
 0001:0001e420       ??0XMLException@@QAE@XZ    1201f420 f   XMLException.obj
 0001:0001e440       ??0XMLException@@QAE@QBDI@Z 1201f440 f   XMLException.obj
 0001:0001e480       ??0XMLException@@QAE@ABV0@@Z 1201f480 f   XMLException.obj
 0001:0001e510       ??4XMLException@@QAEXABV0@@Z 1201f510 f   XMLException.obj
 0001:0001e5c0       ?loadExceptText@XMLException@@IAEXW4Codes@XMLExcepts@@@Z 1201f5c0 f   XMLException.obj
 0001:0001e860       ?loadExceptText@XMLException@@IAEXW4Codes@XMLExcepts@@QBG111@Z 1201f860 f   XMLException.obj
 0001:0001e990       ?loadExceptText@XMLException@@IAEXW4Codes@XMLExcepts@@QBD111@Z 1201f990 f   XMLException.obj
 0001:0001eac0       ?reinitMsgMutex@XMLException@@SAXXZ 1201fac0 f   XMLException.obj
 0001:0001eaf0       ?reinitMsgLoader@XMLException@@SAXXZ 1201faf0 f   XMLException.obj
 0001:0001eb10       ?compareValues@XMLDouble@@SAHQBV1@0@Z 1201fb10 f i XMLFloat.obj
 0001:0001eb10       ?compareValues@XMLFloat@@SAHQBV1@0@Z 1201fb10 f i XMLFloat.obj
 0001:0001eb50       ??0XMLFloat@@QAE@QBG@Z     1201fb50 f   XMLFloat.obj
 0001:0001eba0       ??_EXMLFloat@@UAEPAXI@Z    1201fba0 f i XMLFloat.obj
 0001:0001ec00       ??1XMLFloat@@UAE@XZ        1201fc00 f   XMLFloat.obj
 0001:0001ec10       ?checkBoundary@XMLFloat@@MAEXQBG@Z 1201fc10 f   XMLFloat.obj
 0001:0001efc0       ?reinitXMLFloat@XMLFloat@@SAXXZ 1201ffc0 f   XMLFloat.obj
 0001:0001f040       ?xlatThisOne@XMLIBM1140Transcoder@@SAGE@Z 12020040 f   XMLIBM1140Transcoder.obj
 0001:0001f060       ??0XMLIBM1140Transcoder@@QAE@QBGI@Z 12020060 f   XMLIBM1140Transcoder.obj
 0001:0001f090       ??_EXMLIBM1140Transcoder@@UAEPAXI@Z 12020090 f i XMLIBM1140Transcoder.obj
 0001:0001f0f0       ??1XMLIBM1140Transcoder@@UAE@XZ 120200f0 f   XMLIBM1140Transcoder.obj
 0001:0001f100       ??0XMLNumber@@IAE@XZ       12020100 f   XMLNumber.obj
 0001:0001f110       ??1XMLNumber@@UAE@XZ       12020110 f   XMLNumber.obj
 0001:0001f120       ?binToText@XMLString@@SAXKQADII@Z 12020120 f   XMLString.obj
 0001:0001f260       ?binToText@XMLString@@SAXIQADII@Z 12020260 f   XMLString.obj
 0001:0001f280       ?binToText@XMLString@@SAXJQADII@Z 12020280 f   XMLString.obj
 0001:0001f280       ?binToText@XMLString@@SAXHQADII@Z 12020280 f   XMLString.obj
 0001:0001f2c0       ?catString@XMLString@@SAXQADQBD@Z 120202c0 f   XMLString.obj
 0001:0001f2f0       ?compareIString@XMLString@@SAHQBD0@Z 120202f0 f   XMLString.obj
 0001:0001f310       ?compareNString@XMLString@@SAHQBD0I@Z 12020310 f   XMLString.obj
 0001:0001f330       ?compareNIString@XMLString@@SAHQBD0I@Z 12020330 f   XMLString.obj
 0001:0001f350       ?compareString@XMLString@@SAHQBD0@Z 12020350 f   XMLString.obj
 0001:0001f390       ?copyString@XMLString@@SAXQADQBD@Z 12020390 f   XMLString.obj
 0001:0001f3c0       ?cut@XMLString@@SAXQAGI@Z  120203c0 f   XMLString.obj
 0001:0001f3f0       ?hash@XMLString@@SAIQBDI@Z 120203f0 f   XMLString.obj
 0001:0001f460       ?indexOf@XMLString@@SAHQBDD@Z 12020460 f   XMLString.obj
 0001:0001f490       ?indexOf@XMLString@@SAHQBDDI@Z 12020490 f   XMLString.obj
 0001:0001f4f0       ?lastIndexOf@XMLString@@SAHQBDD@Z 120204f0 f   XMLString.obj
 0001:0001f520       ?lastIndexOf@XMLString@@SAHQBDDI@Z 12020520 f   XMLString.obj
 0001:0001f580       ?replaceTokens@XMLString@@SAIQAGIQBG111@Z 12020580 f   XMLString.obj
 0001:0001f6e0       ?replicate@XMLString@@SAPADQBD@Z 120206e0 f   XMLString.obj
 0001:0001f720       ?startsWith@XMLString@@SA_NQBD0@Z 12020720 f   XMLString.obj
 0001:0001f750       ?startsWithI@XMLString@@SA_NQBD0@Z 12020750 f   XMLString.obj
 0001:0001f780       ?stringLen@XMLString@@SAIQBD@Z 12020780 f   XMLString.obj
 0001:0001f7a0       ?transcode@XMLString@@SAPADQBG@Z 120207a0 f   XMLString.obj
 0001:0001f7c0       ?transcode@XMLString@@SA_NQBGQADI@Z 120207c0 f   XMLString.obj
 0001:0001f7e0       ?transcode@XMLString@@SAPAGQBD@Z 120207e0 f   XMLString.obj
 0001:0001f800       ?transcode@XMLString@@SA_NQBDQAGI@Z 12020800 f   XMLString.obj
 0001:0001f820       ?trim@XMLString@@SAXQAD@Z  12020820 f   XMLString.obj
 0001:0001f8a0       ?subString@XMLString@@SAXQADQBDHH@Z 120208a0 f   XMLString.obj
 0001:0001f950       ?isValidNCName@XMLString@@SA_NQBG@Z 12020950 f   XMLString.obj
 0001:0001fa10       ?isValidName@XMLString@@SA_NQBG@Z 12020a10 f   XMLString.obj
 0001:0001fa90       ?isValidEncName@XMLString@@SA_NQBG@Z 12020a90 f   XMLString.obj
 0001:0001fb30       ?isValidQName@XMLString@@SA_NQBG@Z 12020b30 f   XMLString.obj
 0001:0001fd70       ?isAlpha@XMLString@@SA_NG@Z 12020d70 f   XMLString.obj
 0001:0001fda0       ?isDigit@XMLString@@SA_NG@Z 12020da0 f   XMLString.obj
 0001:0001fdc0       ?isAlphaNum@XMLString@@SA_NG@Z 12020dc0 f   XMLString.obj
 0001:0001fe00       ?isHex@XMLString@@SA_NG@Z  12020e00 f   XMLString.obj
 0001:0001fe40       ?isAllWhiteSpace@XMLString@@SA_NQBG@Z 12020e40 f   XMLString.obj
 0001:0001fe80       ?binToText@XMLString@@SAXKQAGII@Z 12020e80 f   XMLString.obj
 0001:0001fff0       ?binToText@XMLString@@SAXIQAGII@Z 12020ff0 f   XMLString.obj
 0001:00020010       ?binToText@XMLString@@SAXJQAGII@Z 12021010 f   XMLString.obj
 0001:00020010       ?binToText@XMLString@@SAXHQAGII@Z 12021010 f   XMLString.obj
 0001:00020050       ?catString@XMLString@@SAXQAGQBG@Z 12021050 f   XMLString.obj
 0001:000200b0       ?compareIString@XMLString@@SAHQBG0@Z 120210b0 f   XMLString.obj
 0001:000200d0       ?compareNString@XMLString@@SAHQBG0I@Z 120210d0 f   XMLString.obj
 0001:00020120       ?compareNIString@XMLString@@SAHQBG0I@Z 12021120 f   XMLString.obj
 0001:00020140       ?compareString@XMLString@@SAHQBG0@Z 12021140 f   XMLString.obj
 0001:000201d0       ?regionMatches@XMLString@@SA_NQBGH0HI@Z 120211d0 f   XMLString.obj
 0001:000202a0       ?regionIMatches@XMLString@@SA_NQBGH0HI@Z 120212a0 f   XMLString.obj
 0001:00020340       ?copyString@XMLString@@SAXQAGQBG@Z 12021340 f   XMLString.obj
 0001:00020380       ?copyNString@XMLString@@SA_NQAGQBGI@Z 12021380 f   XMLString.obj
 0001:000203c0       ?hash@XMLString@@SAIQBGI@Z 120213c0 f   XMLString.obj
 0001:00020440       ?findAny@XMLString@@SAPBGQBG0@Z 12021440 f   XMLString.obj
 0001:00020440       ?findAny@XMLString@@SAPAGQAGQBG@Z 12021440 f   XMLString.obj
 0001:00020490       ?patternMatch@XMLString@@SAHQAGQBG@Z 12021490 f   XMLString.obj
 0001:00020510       ?hashN@XMLString@@SAIQBGII@Z 12021510 f   XMLString.obj
 0001:00020580       ?indexOf@XMLString@@SAHQBGG@Z 12021580 f   XMLString.obj
 0001:000205d0       ?indexOf@XMLString@@SAHQBGGI@Z 120215d0 f   XMLString.obj
 0001:00020650       ?lastIndexOf@XMLString@@SAHQBGG@Z 12021650 f   XMLString.obj
 0001:000206a0       ?lastIndexOf@XMLString@@SAHQBGGI@Z 120216a0 f   XMLString.obj
 0001:00020720       ?makeUName@XMLString@@SAPAGQBG0@Z 12021720 f   XMLString.obj
 0001:00020910       ?textToBin@XMLString@@SA_NQBGAAI@Z 12021910 f   XMLString.obj
 0001:00020a30       ?parseInt@XMLString@@SAHQBG@Z 12021a30 f   XMLString.obj
 0001:00020bc0       ?trim@XMLString@@SAXQAG@Z  12021bc0 f   XMLString.obj
 0001:00020c90       ?upperCase@XMLString@@SAXQAG@Z 12021c90 f   XMLString.obj
 0001:00020cb0       ?subString@XMLString@@SAXQAGQBGHH@Z 12021cb0 f   XMLString.obj
 0001:00020d80       ?tokenizeString@XMLString@@SAPAV?$RefVectorOf@G@@QBG@Z 12021d80 f   XMLString.obj
 0001:00020fd0       ?isInList@XMLString@@SA_NQBG0@Z 12021fd0 f   XMLString.obj
 0001:00021080       ?isWSReplaced@XMLString@@SA_NQBG@Z 12022080 f   XMLString.obj
 0001:000210c0       ?replaceWS@XMLString@@SAXQAG@Z 120220c0 f   XMLString.obj
 0001:00021170       ?isWSCollapsed@XMLString@@SA_NQBG@Z 12022170 f   XMLString.obj
 0001:00021200       ?collapseWS@XMLString@@SAXQAG@Z 12022200 f   XMLString.obj
 0001:00021390       ?initString@XMLString@@CAXQAVXMLLCPTranscoder@@@Z 12022390 f   XMLString.obj
 0001:000213a0       ?termString@XMLString@@CAXXZ 120223a0 f   XMLString.obj
 0001:000213c0       ??4XMLStringTokenizer@@QAEAAV0@ABV0@@Z 120223c0 f i XMLStringTokenizer.obj
 0001:000213e0       ?cleanUp@XMLStringTokenizer@@AAEXXZ 120223e0 f i XMLStringTokenizer.obj
 0001:00021440       ?isDelimeter@XMLStringTokenizer@@AAE_NG@Z 12022440 f i XMLStringTokenizer.obj
 0001:00021460       ?countTokens@XMLStringTokenizer@@QAEHXZ 12022460 f i XMLStringTokenizer.obj
 0001:000214b0       ??0XMLStringTokenizer@@QAE@QBG@Z 120224b0 f   XMLStringTokenizer.obj
 0001:00021680       ??0XMLStringTokenizer@@QAE@QBG0@Z 12022680 f   XMLStringTokenizer.obj
 0001:00021840       ??1XMLStringTokenizer@@QAE@XZ 12022840 f   XMLStringTokenizer.obj
 0001:000218a0       ?nextToken@XMLStringTokenizer@@QAEPAGXZ 120228a0 f   XMLStringTokenizer.obj
 0001:000219b0       ?hasMoreTokens@XMLStringTokenizer@@QAE_NXZ 120229b0 f   XMLStringTokenizer.obj
 0001:00021a10       ??0XMLUCS4Transcoder@@QAE@QBGI_N@Z 12022a10 f   XMLUCSTranscoder.obj
 0001:00021a40       ??_EXMLUCS4Transcoder@@UAEPAXI@Z 12022a40 f i XMLUCSTranscoder.obj
 0001:00021aa0       ??1XMLUCS4Transcoder@@UAE@XZ 12022aa0 f   XMLUCSTranscoder.obj
 0001:00021ab0       ?transcodeFrom@XMLUCS4Transcoder@@UAEIQBEIQAGIAAIQAE@Z 12022ab0 f   XMLUCSTranscoder.obj
 0001:00021ba0       ?transcodeTo@XMLUCS4Transcoder@@UAEIQBGIQAEIAAIW4UnRepOpts@XMLTranscoder@@@Z 12022ba0 f   XMLUCSTranscoder.obj
 0001:00021ce0       ??0XMLUri@@QAE@QBG@Z       12022ce0 f i XMLUri.obj
 0001:00021d20       ??_EXMLUri@@UAEPAXI@Z      12022d20 f i XMLUri.obj
 0001:00021d80       ??0XMLUri@@QAE@QBV0@QBG@Z  12022d80 f i XMLUri.obj
 0001:00021dc0       ?isReservedCharacter@XMLUri@@CA_NG@Z 12022dc0 f i XMLUri.obj
 0001:00021de0       ?isUnreservedCharacter@XMLUri@@CA_NG@Z 12022de0 f i XMLUri.obj
 0001:00021e10       ??1XMLUri@@UAE@XZ          12022e10 f   XMLUri.obj
 0001:00021e80       ?initialize@XMLUri@@AAEXABV1@@Z 12022e80 f   XMLUri.obj
 0001:00022050       ?initialize@XMLUri@@AAEXQBV1@QBG@Z 12023050 f   XMLUri.obj
 0001:00022ac0       ?initializeAuthority@XMLUri@@AAEXQBG@Z 12023ac0 f   XMLUri.obj
 0001:00022cd0       ?initializeScheme@XMLUri@@AAEXQBG@Z 12023cd0 f   XMLUri.obj
 0001:00022ed0       ?initializePath@XMLUri@@AAEXQBG@Z 12023ed0 f   XMLUri.obj
 0001:000233e0       ?setScheme@XMLUri@@QAEXQBG@Z 120243e0 f   XMLUri.obj
 0001:00023510       ?setUserInfo@XMLUri@@QAEXQBG@Z 12024510 f   XMLUri.obj
 0001:00023630       ?setHost@XMLUri@@QAEXQBG@Z 12024630 f   XMLUri.obj
 0001:00023730       ?setPort@XMLUri@@QAEXH@Z   12024730 f   XMLUri.obj
 0001:000237f0       ?setPath@XMLUri@@QAEXQBG@Z 120247f0 f   XMLUri.obj
 0001:00023840       ?setFragment@XMLUri@@QAEXQBG@Z 12024840 f   XMLUri.obj
 0001:00023a00       ?setQueryString@XMLUri@@QAEXQBG@Z 12024a00 f   XMLUri.obj
 0001:00023bc0       ?isConformantSchemeName@XMLUri@@CA_NQBG@Z 12024bc0 f   XMLUri.obj
 0001:00023c30       ?isConformantUserInfo@XMLUri@@CAXQBG@Z 12024c30 f   XMLUri.obj
 0001:00023d60       ?isURIString@XMLUri@@CA_NQBG@Z 12024d60 f   XMLUri.obj
 0001:00023df0       ?isWellFormedAddress@XMLUri@@CA_NQBG@Z 12024df0 f   XMLUri.obj
 0001:000240b0       ?isGenericURI@XMLUri@@AAE_NXZ 120250b0 f   XMLUri.obj
 0001:000240c0       ?lookupByName@XMLURL@@QAE?AW4Protocols@1@QBG@Z 120250c0 f   XMLURL.obj
 0001:00024110       ??0XMLURL@@QAE@XZ          12025110 f   XMLURL.obj
 0001:00024140       ??_EXMLURL@@UAEPAXI@Z      12025140 f i XMLURL.obj
 0001:000241a0       ??0XMLURL@@QAE@QBG0@Z      120251a0 f   XMLURL.obj
 0001:000242c0       ??0XMLURL@@QAE@QBGQBD@Z    120252c0 f   XMLURL.obj
 0001:00024400       ??0XMLURL@@QAE@ABV0@QBG@Z  12025400 f   XMLURL.obj
 0001:000244b0       ??0XMLURL@@QAE@ABV0@QBD@Z  120254b0 f   XMLURL.obj
 0001:00024580       ??0XMLURL@@QAE@QBG@Z       12025580 f   XMLURL.obj
 0001:00024610       ??0XMLURL@@QAE@QBD@Z       12025610 f   XMLURL.obj
 0001:000246c0       ??0XMLURL@@QAE@ABV0@@Z     120256c0 f   XMLURL.obj
 0001:00024890       ??1XMLURL@@UAE@XZ          12025890 f   XMLURL.obj
 0001:000248a0       ??4XMLURL@@QAEAAV0@ABV0@@Z 120258a0 f   XMLURL.obj
 0001:00024a70       ??8XMLURL@@QBE_NABV0@@Z    12025a70 f   XMLURL.obj
 0001:00024ab0       ?getPortNum@XMLURL@@QBEIXZ 12025ab0 f   XMLURL.obj
 0001:00024ad0       ?getProtocolName@XMLURL@@QBEPBGXZ 12025ad0 f   XMLURL.obj
 0001:00024b10       ?setURL@XMLURL@@QAEXQBG@Z  12025b10 f   XMLURL.obj
 0001:00024b30       ?setURL@XMLURL@@QAEXQBG0@Z 12025b30 f   XMLURL.obj
 0001:00024c20       ?setURL@XMLURL@@QAEXABV1@QBG@Z 12025c20 f   XMLURL.obj
 0001:00024c60       ?isRelative@XMLURL@@QBE_NXZ 12025c60 f   XMLURL.obj
 0001:00024c80       ?makeNewStream@XMLURL@@QBEPAVBinInputStream@@XZ 12025c80 f   XMLURL.obj
 0001:00024e00       ?makeRelativeTo@XMLURL@@QAEXQBG@Z 12025e00 f   XMLURL.obj
 0001:00024e80       ?makeRelativeTo@XMLURL@@QAEXABV1@@Z 12025e80 f   XMLURL.obj
 0001:00024eb0       ?buildFullText@XMLURL@@AAEXXZ 12025eb0 f   XMLURL.obj
 0001:00025260       ?cleanup@XMLURL@@AAEXXZ    12026260 f   XMLURL.obj
 0001:000252d0       ?conglomerateWithBase@XMLURL@@AAE_NABV1@_N@Z 120262d0 f   XMLURL.obj
 0001:00025660       ?parse@XMLURL@@AAEXQBG@Z   12026660 f   XMLURL.obj
 0001:00025df0       ?weavePaths@XMLURL@@AAEXQBG@Z 12026df0 f   XMLURL.obj
 0001:00025ff0       ??0XMLUTF16Transcoder@@QAE@QBGI_N@Z 12026ff0 f   XMLUTF16Transcoder.obj
 0001:00026020       ??_EXMLUTF16Transcoder@@UAEPAXI@Z 12027020 f i XMLUTF16Transcoder.obj
 0001:00026080       ??1XMLUTF16Transcoder@@UAE@XZ 12027080 f   XMLUTF16Transcoder.obj
 0001:00026090       ?transcodeFrom@XMLUTF16Transcoder@@UAEIQBEIQAGIAAIQAE@Z 12027090 f   XMLUTF16Transcoder.obj
 0001:00026110       ?transcodeTo@XMLUTF16Transcoder@@UAEIQBGIQAEIAAIW4UnRepOpts@XMLTranscoder@@@Z 12027110 f   XMLUTF16Transcoder.obj
 0001:00026190       ?canTranscodeTo@XMLChTranscoder@@UBE_NI@Z 12027190 f   XMLUTF16Transcoder.obj
 0001:00026190       ?canTranscodeTo@XMLUTF16Transcoder@@UBE_NI@Z 12027190 f   XMLUTF16Transcoder.obj
 0001:00026190       ?canTranscodeTo@XMLUCS4Transcoder@@UBE_NI@Z 12027190 f   XMLUTF16Transcoder.obj
 0001:000261a0       ??0XMLUTF8Transcoder@@QAE@QBGI@Z 120271a0 f   XMLUTF8Transcoder.obj
 0001:000261c0       ??_EXMLUTF8Transcoder@@UAEPAXI@Z 120271c0 f i XMLUTF8Transcoder.obj
 0001:00026220       ??1XMLUTF8Transcoder@@UAE@XZ 12027220 f   XMLUTF8Transcoder.obj
 0001:00026230       ?transcodeFrom@XMLUTF8Transcoder@@UAEIQBEIQAGIAAIQAE@Z 12027230 f   XMLUTF8Transcoder.obj
 0001:00026420       ?transcodeTo@XMLUTF8Transcoder@@UAEIQBGIQAEIAAIW4UnRepOpts@XMLTranscoder@@@Z 12027420 f   XMLUTF8Transcoder.obj
 0001:00026610       ?canTranscodeTo@XMLUTF8Transcoder@@UBE_NI@Z 12027610 f   XMLUTF8Transcoder.obj
 0001:00026630       ??0XMLWin1252Transcoder@@QAE@QBGI@Z 12027630 f   XMLWin1252Transcoder.obj
 0001:00026660       ??_EXMLWin1252Transcoder@@UAEPAXI@Z 12027660 f i XMLWin1252Transcoder.obj
 0001:000266c0       ??1XMLWin1252Transcoder@@UAE@XZ 120276c0 f   XMLWin1252Transcoder.obj
 0001:000266d0       ??0LocalFileInputSource@@QAE@QBG0@Z 120276d0 f   LocalFileInputSource.obj
 0001:00026760       ??_ELocalFileInputSource@@UAEPAXI@Z 12027760 f i LocalFileInputSource.obj
 0001:000267c0       ??0LocalFileInputSource@@QAE@QBG@Z 120277c0 f   LocalFileInputSource.obj
 0001:00026840       ??1LocalFileInputSource@@UAE@XZ 12027840 f   LocalFileInputSource.obj
 0001:00026850       ?makeStream@LocalFileInputSource@@UBEPAVBinInputStream@@XZ 12027850 f   LocalFileInputSource.obj
 0001:000268c0       ?setThrowEOE@ReaderMgr@@QAEX_N@Z 120278c0 f i MemBufInputSource.obj
 0001:000268c0       ?setCopyBufToStream@MemBufInputSource@@QAEX_N@Z 120278c0 f i MemBufInputSource.obj
 0001:000268d0       ??0MemBufInputSource@@QAE@QBEIQBG_N@Z 120278d0 f   MemBufInputSource.obj
 0001:00026910       ??_EMemBufInputSource@@UAEPAXI@Z 12027910 f i MemBufInputSource.obj
 0001:00026970       ??0MemBufInputSource@@QAE@QBEIQBD_N@Z 12027970 f   MemBufInputSource.obj
 0001:000269b0       ??1MemBufInputSource@@UAE@XZ 120279b0 f   MemBufInputSource.obj
 0001:00026a10       ?makeStream@MemBufInputSource@@UBEPAVBinInputStream@@XZ 12027a10 f   MemBufInputSource.obj
 0001:00026a80       ??0StdInInputSource@@QAE@XZ 12027a80 f i StdInInputSource.obj
 0001:00026aa0       ??_EStdInInputSource@@UAEPAXI@Z 12027aa0 f i StdInInputSource.obj
 0001:00026b00       ??1StdInInputSource@@UAE@XZ 12027b00 f i StdInInputSource.obj
 0001:00026b10       ?makeStream@StdInInputSource@@UBEPAVBinInputStream@@XZ 12027b10 f   StdInInputSource.obj
 0001:00026b90       ?urlSrc@URLInputSource@@QBEABVXMLURL@@XZ 12027b90 f i URLInputSource.obj
 0001:00026ba0       ??0URLInputSource@@QAE@ABVXMLURL@@@Z 12027ba0 f   URLInputSource.obj
 0001:00026c20       ??_EURLInputSource@@UAEPAXI@Z 12027c20 f i URLInputSource.obj
 0001:00026c80       ??0URLInputSource@@QAE@QBG0@Z 12027c80 f   URLInputSource.obj
 0001:00026d00       ??0URLInputSource@@QAE@QBG00@Z 12027d00 f   URLInputSource.obj
 0001:00026d80       ??0URLInputSource@@QAE@QBGQBD@Z 12027d80 f   URLInputSource.obj
 0001:00026e00       ??0URLInputSource@@QAE@QBGQBD1@Z 12027e00 f   URLInputSource.obj
 0001:00026e80       ??1URLInputSource@@UAE@XZ  12027e80 f   URLInputSource.obj
 0001:00026ee0       ?makeStream@URLInputSource@@UBEPAVBinInputStream@@XZ 12027ee0 f   URLInputSource.obj
 0001:00026ef0       ??_FXMLAttDef@@QAEXXZ      12027ef0 f i XMLAttDef.obj
 0001:00026f20       ?isExternal@XMLAttDef@@QBE_NXZ 12027f20 f i XMLAttDef.obj
 0001:00026f20       ?getDeclaredInIntSubset@DTDEntityDecl@@UBE_NXZ 12027f20 f i XMLAttDef.obj
 0001:00026f30       ?setEnumeration@XMLAttDef@@QAEXQBG@Z 12027f30 f i XMLAttDef.obj
 0001:00026fb0       ?setProvided@XMLAttDef@@QAEX_N@Z 12027fb0 f i XMLAttDef.obj
 0001:00026fb0       ?setExternalElemDeclaration@XMLElementDecl@@QAEX_N@Z 12027fb0 f i XMLAttDef.obj
 0001:00026fb0       ?setIssueFatalErrorIfNotFound@InputSource@@QAEX_N@Z 12027fb0 f i XMLAttDef.obj
 0001:00026fc0       ?setValue@XMLAttDef@@QAEXQBG@Z 12027fc0 f i XMLAttDef.obj
 0001:00027030       ?getAttTypeString@XMLAttDef@@SAPBGW4AttTypes@1@@Z 12028030 f   XMLAttDef.obj
 0001:00027070       ?getDefAttTypeString@XMLAttDef@@SAPBGW4DefAttTypes@1@@Z 12028070 f   XMLAttDef.obj
 0001:000270b0       ??1XMLAttDef@@UAE@XZ       120280b0 f   XMLAttDef.obj
 0001:000270d0       ??_EXMLAttDef@@UAEPAXI@Z   120280d0 f i XMLAttDef.obj
 0001:00027140       ??0XMLAttDef@@IAE@W4AttTypes@0@W4DefAttTypes@0@@Z 12028140 f   XMLAttDef.obj
 0001:00027180       ??0XMLAttDef@@IAE@QBGW4AttTypes@0@W4DefAttTypes@0@0@Z 12028180 f   XMLAttDef.obj
 0001:000272c0       ?cleanUp@XMLAttDef@@AAEXXZ 120282c0 f   XMLAttDef.obj
 0001:000272e0       ??1XMLAttr@@QAE@XZ         120282e0 f i XMLAttr.obj
 0001:00027310       ?getName@XMLAttr@@QBEPBGXZ 12028310 f i XMLAttr.obj
 0001:00027320       ?getPrefix@XMLAttr@@QBEPBGXZ 12028320 f i XMLAttr.obj
 0001:00027330       ?getURIId@XMLAttr@@QBEIXZ  12028330 f i XMLAttr.obj
 0001:00027340       ?set@XMLAttr@@QAEXIQBG00W4AttTypes@XMLAttDef@@@Z 12028340 f i XMLAttr.obj
 0001:000273f0       ??0XMLAttr@@QAE@XZ         120283f0 f   XMLAttr.obj
 0001:00027470       ??0XMLAttr@@QAE@IQBG00W4AttTypes@XMLAttDef@@_N@Z 12028470 f   XMLAttr.obj
 0001:00027590       ?getQName@XMLAttr@@QBEPBGXZ 12028590 f   XMLAttr.obj
 0001:000275a0       ?setName@XMLAttr@@QAEXIQBG0@Z 120285a0 f   XMLAttr.obj
 0001:000275c0       ?setURIId@XMLAttr@@QAEXI@Z 120285c0 f   XMLAttr.obj
 0001:000275d0       ?setLocalPart@QName@@QAEXPBG@Z 120285d0 f   XMLAttr.obj
 0001:000275d0       ?setValue@XMLAttr@@QAEXQBG@Z 120285d0 f   XMLAttr.obj
 0001:00027650       ?cleanUp@XMLAttr@@AAEXXZ   12028650 f   XMLAttr.obj
 0001:00027680       ?append@XMLBuffer@@QAEXQBGI@Z 12028680 f   XMLBuffer.obj
 0001:00027760       ?set@XMLBuffer@@QAEXQBGI@Z 12028760 f   XMLBuffer.obj
 0001:00027830       ?expand@XMLBuffer@@AAEXXZ  12028830 f   XMLBuffer.obj
 0001:000278b0       ?insureCapacity@XMLBuffer@@AAEXI@Z 120288b0 f   XMLBuffer.obj
 0001:00027930       ??0XMLBufferMgr@@QAE@XZ    12028930 f   XMLBufferMgr.obj
 0001:00027970       ??1XMLBufferMgr@@QAE@XZ    12028970 f   XMLBufferMgr.obj
 0001:000279b0       ?bidOnBuffer@XMLBufferMgr@@QAEAAVXMLBuffer@@XZ 120289b0 f   XMLBufferMgr.obj
 0001:00027ad0       ?releaseBuffer@XMLBufferMgr@@QAEXAAVXMLBuffer@@@Z 12028ad0 f   XMLBufferMgr.obj
 0001:00027b20       ??1XMLContentModel@@UAE@XZ 12028b20 f i XMLContentModel.obj
 0001:00027b30       ??0XMLContentModel@@IAE@XZ 12028b30 f i XMLContentModel.obj
 0001:00027b40       ??_EXMLContentModel@@UAEPAXI@Z 12028b40 f i XMLContentModel.obj
 0001:00027ba0       ??1XMLAttDefList@@UAE@XZ   12028ba0 f i XMLElementDecl.obj
 0001:00027bb0       ??_EXMLAttDefList@@UAEPAXI@Z 12028bb0 f i XMLElementDecl.obj
 0001:00027c10       ??0XMLAttDefList@@IAE@XZ   12028c10 f i XMLElementDecl.obj
 0001:00027c20       ??0XMLAttDefList@@IAE@ABV0@@Z 12028c20 f i XMLElementDecl.obj
 0001:00027c30       ?getBaseName@XMLElementDecl@@QBEPBGXZ 12028c30 f i XMLElementDecl.obj
 0001:00027c30       ?getBaseName@XMLElementDecl@@QAEPAGXZ 12028c30 f i XMLElementDecl.obj
 0001:00027c40       ?getURI@XMLElementDecl@@QBE?BIXZ 12028c40 f i XMLElementDecl.obj
 0001:00027c50       ?getFullName@XMLElementDecl@@QBEPBGXZ 12028c50 f i XMLElementDecl.obj
 0001:00027c50       ?getKey@DTDElementDecl@@QBEPBGXZ 12028c50 f i XMLElementDecl.obj
 0001:00027c60       ?isDeclared@XMLElementDecl@@QBE_NXZ 12028c60 f i XMLElementDecl.obj
 0001:00027c70       ?isExternal@XMLElementDecl@@QBE_NXZ 12028c70 f i XMLElementDecl.obj
 0001:00027c70       ?getProvided@XMLAttDef@@QBE_NXZ 12028c70 f i XMLElementDecl.obj
 0001:00027c70       ?getIssueFatalErrorIfNotFound@InputSource@@QBE?B_NXZ 12028c70 f i XMLElementDecl.obj
 0001:00027c80       ?setCreateReason@XMLElementDecl@@QAEXW4CreateReasons@1@@Z 12028c80 f i XMLElementDecl.obj
 0001:00027c80       ?setMin@ClosureToken@@UAEXH@Z 12028c80 f i XMLElementDecl.obj
 0001:00027c80       ?setBlockSet@ComplexTypeInfo@@QAEXH@Z 12028c80 f i XMLElementDecl.obj
 0001:00027c80       ?setErrorReporter@XMLValidator@@QAEXQAVXMLErrorReporter@@@Z 12028c80 f i XMLElementDecl.obj
 0001:00027c80       ?setNextOp@Op@@QAEXQBV1@@Z 12028c80 f i XMLElementDecl.obj
 0001:00027c90       ??1XMLElementDecl@@UAE@XZ  12028c90 f   XMLElementDecl.obj
 0001:00027cb0       ??_EXMLElementDecl@@UAEPAXI@Z 12028cb0 f i XMLElementDecl.obj
 0001:00027d20       ?setElementName@XMLElementDecl@@QAEXQBG0H@Z 12028d20 f   XMLElementDecl.obj
 0001:00027da0       ?setElementName@XMLElementDecl@@QAEXQBGH@Z 12028da0 f   XMLElementDecl.obj
 0001:00027e20       ?setElementName@XMLElementDecl@@QAEXQBVQName@@@Z 12028e20 f   XMLElementDecl.obj
 0001:00027ea0       ??0XMLElementDecl@@IAE@XZ  12028ea0 f   XMLElementDecl.obj
 0001:00027ec0       ?isExternal@XMLEntityDecl@@QBE_NXZ 12028ec0 f i XMLEntityDecl.obj
 0001:00027ee0       ?isUnparsed@XMLEntityDecl@@QBE_NXZ 12028ee0 f i XMLEntityDecl.obj
 0001:00027ef0       ?setSystemId@XMLNotationDecl@@QAEXQBG@Z 12028ef0 f i XMLEntityDecl.obj
 0001:00027ef0       ?setString@StringToken@@QAEXQBG@Z 12028ef0 f i XMLEntityDecl.obj
 0001:00027ef0       ?setNotationName@XMLEntityDecl@@QAEXQBG@Z 12028ef0 f i XMLEntityDecl.obj
 0001:00027f60       ?setPublicId@XMLEntityDecl@@QAEXQBG@Z 12028f60 f i XMLEntityDecl.obj
 0001:00027fd0       ?setSystemId@XMLEntityDecl@@QAEXQBG@Z 12028fd0 f i XMLEntityDecl.obj
 0001:00028040       ?setValue@XMLEntityDecl@@QAEXQBG@Z 12029040 f i XMLEntityDecl.obj
 0001:000280e0       ??0XMLEntityDecl@@QAE@XZ   120290e0 f   XMLEntityDecl.obj
 0001:00028100       ??_EXMLEntityDecl@@UAEPAXI@Z 12029100 f i XMLEntityDecl.obj
 0001:00028190       ??0XMLEntityDecl@@QAE@QBG@Z 12029190 f   XMLEntityDecl.obj
 0001:00028210       ??0XMLEntityDecl@@QAE@QBG0@Z 12029210 f   XMLEntityDecl.obj
 0001:00028380       ??0XMLEntityDecl@@QAE@QBGG@Z 12029380 f   XMLEntityDecl.obj
 0001:00028490       ??1XMLEntityDecl@@UAE@XZ   12029490 f   XMLEntityDecl.obj
 0001:000284d0       ?setName@XMLEntityDecl@@QAEXQBG@Z 120294d0 f   XMLEntityDecl.obj
 0001:00028550       ?cleanUp@XMLEntityDecl@@AAEXXZ 12029550 f   XMLEntityDecl.obj
 0001:00028590       ??1XMLFormatTarget@@UAE@XZ 12029590 f i XMLFormatter.obj
 0001:000285a0       ??0XMLFormatTarget@@IAE@XZ 120295a0 f i XMLFormatter.obj
 0001:000285b0       ??0XMLFormatTarget@@IAE@ABV0@@Z 120295b0 f i XMLFormatter.obj
 0001:000285c0       ?error@DefaultHandler@@UAEXABVSAXParseException@@@Z 120295c0 f i XMLFormatter.obj
 0001:000285c0       ?warning@DefaultHandler@@UAEXABVSAXParseException@@@Z 120295c0 f i XMLFormatter.obj
 0001:000285c0       ?endEntity@DefaultHandler@@UAEXQBG@Z 120295c0 f i XMLFormatter.obj
 0001:000285c0       ?setMin@Token@@UAEXH@Z     120295c0 f i XMLFormatter.obj
 0001:000285c0       ?hasDefaults@IDAttrMapImpl@@UAEX_N@Z 120295c0 f i XMLFormatter.obj
 0001:000285c0       ?validateElement@DTDValidator@@UAEXPBVXMLElementDecl@@@Z 120295c0 f i XMLFormatter.obj
 0001:000285c0       ?skippedEntity@DefaultHandler@@UAEXQBG@Z 120295c0 f i XMLFormatter.obj
 0001:000285c0       ?endElement@HandlerBase@@UAEXQBG@Z 120295c0 f i XMLFormatter.obj
 0001:000285c0       ?setMax@Token@@UAEXH@Z     120295c0 f i XMLFormatter.obj
 0001:000285c0       ?startInputSource@DOMParser@@UAEXABVInputSource@@@Z 120295c0 f i XMLFormatter.obj
 0001:000285c0       ?setContentSpec@SchemaElementDecl@@UAEXPAVContentSpecNode@@@Z 120295c0 f i XMLFormatter.obj
 0001:000285c0       ?endInputSource@IDOMParser@@UAEXABVInputSource@@@Z 120295c0 f i XMLFormatter.obj
 0001:000285c0       ?warning@HandlerBase@@UAEXABVSAXParseException@@@Z 120295c0 f i XMLFormatter.obj
 0001:000285c0       ?validate@AnySimpleTypeDatatypeValidator@@UAEXQBG@Z 120295c0 f i XMLFormatter.obj
 0001:000285c0       ?startInputSource@IDOMParser@@UAEXABVInputSource@@@Z 120295c0 f i XMLFormatter.obj
 0001:000285c0       ?startEntity@DefaultHandler@@UAEXQBG@Z 120295c0 f i XMLFormatter.obj
 0001:000285c0       ?setDocumentLocator@DefaultHandler@@UAEXQBVLocator@@@Z 120295c0 f i XMLFormatter.obj
 0001:000285c0       ?endPrefixMapping@DefaultHandler@@UAEXQBG@Z 120295c0 f i XMLFormatter.obj
 0001:000285c0       ?setContentModel@SchemaElementDecl@@UAEXQAVXMLContentModel@@@Z 120295c0 f i XMLFormatter.obj
 0001:000285c0       ?endInputSource@DOMParser@@UAEXABVInputSource@@@Z 120295c0 f i XMLFormatter.obj
 0001:000285c0       ?setDocumentLocator@HandlerBase@@UAEXQBVLocator@@@Z 120295c0 f i XMLFormatter.obj
 0001:000285c0       ??4XMLFormatTarget@@IAEXABV0@@Z 120295c0 f i XMLFormatter.obj
 0001:000285c0       ?error@HandlerBase@@UAEXABVSAXParseException@@@Z 120295c0 f i XMLFormatter.obj
 0001:000285d0       ??_EXMLFormatTarget@@UAEPAXI@Z 120295d0 f i XMLFormatter.obj
 0001:00028630       ?setSign@XMLBigInteger@@AAEXH@Z 12029630 f i XMLFormatter.obj
 0001:00028630       ?setId@XMLNotationDecl@@QAEXI@Z 12029630 f i XMLFormatter.obj
 0001:00028630       ?setCategoryId@RangeTokenElemMap@@QAEXI@Z 12029630 f i XMLFormatter.obj
 0001:00028630       ?setScope@XercesGroupInfo@@QAEXH@Z 12029630 f i XMLFormatter.obj
 0001:00028630       ?setValueStoreCache@FieldActivator@@QAEXQAVValueStoreCache@@@Z 12029630 f i XMLFormatter.obj
 0001:00028630       ?setEscapeFlags@XMLFormatter@@QAEXW4EscapeFlags@1@@Z 12029630 f i XMLFormatter.obj
 0001:00028640       ?setFinalSet@ComplexTypeInfo@@QAEXH@Z 12029640 f i XMLFormatter.obj
 0001:00028640       ?setUnRepFlags@XMLFormatter@@QAEXW4UnRepFlags@1@@Z 12029640 f i XMLFormatter.obj
 0001:00028640       ?setMax@ClosureToken@@UAEXH@Z 12029640 f i XMLFormatter.obj
 0001:00028640       ?setEntityHandler@ReaderMgr@@QAEXQAVXMLEntityHandler@@@Z 12029640 f i XMLFormatter.obj
 0001:00028640       ?setRootElemId@DTDGrammar@@QAEXI@Z 12029640 f i XMLFormatter.obj
 0001:00028640       ?setId@XMLAttDef@@QAEXI@Z  12029640 f i XMLFormatter.obj
 0001:00028640       ?setId@XMLElementDecl@@QAEXI@Z 12029640 f i XMLFormatter.obj
 0001:00028650       ??6XMLFormatter@@QAEAAV0@W4EscapeFlags@0@@Z 12029650 f i XMLFormatter.obj
 0001:00028650       ??0XMLInteger@@QAE@H@Z     12029650 f i XMLFormatter.obj
 0001:00028660       ??6XMLFormatter@@QAEAAV0@W4UnRepFlags@0@@Z 12029660 f i XMLFormatter.obj
 0001:00028670       ??0XMLFormatter@@QAE@QBDQAVXMLFormatTarget@@W4EscapeFlags@0@W4UnRepFlags@0@@Z 12029670 f   XMLFormatter.obj
 0001:00028740       ??0XMLFormatter@@QAE@QBGQAVXMLFormatTarget@@W4EscapeFlags@0@W4UnRepFlags@0@@Z 12029740 f   XMLFormatter.obj
 0001:00028840       ??1XMLFormatter@@QAE@XZ    12029840 f   XMLFormatter.obj
 0001:000288a0       ?formatBuf@XMLFormatter@@QAEXQBGIW4EscapeFlags@1@W4UnRepFlags@1@@Z 120298a0 f   XMLFormatter.obj
 0001:00028ae0       ??6XMLFormatter@@QAEAAV0@QBG@Z 12029ae0 f   XMLFormatter.obj
 0001:00028b30       ??6XMLFormatter@@QAEAAV0@G@Z 12029b30 f   XMLFormatter.obj
 0001:00028b70       ?getAposRef@XMLFormatter@@AAEPBEAAI@Z 12029b70 f   XMLFormatter.obj
 0001:00028c40       ?getAmpRef@XMLFormatter@@AAEPBEAAI@Z 12029c40 f   XMLFormatter.obj
 0001:00028d10       ?getGTRef@XMLFormatter@@AAEPBEAAI@Z 12029d10 f   XMLFormatter.obj
 0001:00028de0       ?getLTRef@XMLFormatter@@AAEPBEAAI@Z 12029de0 f   XMLFormatter.obj
 0001:00028eb0       ?getQuoteRef@XMLFormatter@@AAEPBEAAI@Z 12029eb0 f   XMLFormatter.obj
 0001:00028f80       ?specialFormat@XMLFormatter@@AAEXQBGIW4EscapeFlags@1@@Z 12029f80 f   XMLFormatter.obj
 0001:00029090       ?getXPath@IC_Selector@@QBEPAVXercesXPath@@XZ 1202a090 f i XMLNotationDecl.obj
 0001:00029090       ?getPrefix@QName@@QAEPAGXZ 1202a090 f i XMLNotationDecl.obj
 0001:00029090       ?getSign@XMLBigInteger@@QBEHXZ 1202a090 f i XMLNotationDecl.obj
 0001:00029090       ?getMatcherCount@XPathMatcherStack@@QBEIXZ 1202a090 f i XMLNotationDecl.obj
 0001:00029090       ?intValue@XMLInteger@@QBEHXZ 1202a090 f i XMLNotationDecl.obj
 0001:00029090       ?getEntity@EndOfEntityException@@QBEABVXMLEntityDecl@@XZ 1202a090 f i XMLNotationDecl.obj
 0001:00029090       ?getEntity@EndOfEntityException@@QAEAAVXMLEntityDecl@@XZ 1202a090 f i XMLNotationDecl.obj
 0001:00029090       ?getPrefix@QName@@QBEPBGXZ 1202a090 f i XMLNotationDecl.obj
 0001:00029090       ?getCategoryId@RangeTokenElemMap@@QBEIXZ 1202a090 f i XMLNotationDecl.obj
 0001:00029090       ?getScope@XercesGroupInfo@@QBEHXZ 1202a090 f i XMLNotationDecl.obj
 0001:00029090       ?getId@XMLNotationDecl@@QBEIXZ 1202a090 f i XMLNotationDecl.obj
 0001:000290a0       ?setPublicId@XMLNotationDecl@@QAEXQBG@Z 1202a0a0 f i XMLNotationDecl.obj
 0001:00029110       ??0XMLNotationDecl@@QAE@XZ 1202a110 f   XMLNotationDecl.obj
 0001:00029120       ??0XMLNotationDecl@@QAE@QBG00@Z 1202a120 f   XMLNotationDecl.obj
 0001:00029290       ??1XMLNotationDecl@@QAE@XZ 1202a290 f   XMLNotationDecl.obj
 0001:00029290       ?cleanUp@XMLNotationDecl@@AAEXXZ 1202a290 f   XMLNotationDecl.obj
 0001:000292c0       ?setName@XMLNotationDecl@@QAEXQBG@Z 1202a2c0 f   XMLNotationDecl.obj
 0001:00029340       ?basicEncodingProbe@XMLRecognizer@@SA?AW4Encodings@1@QBEI@Z 1202a340 f   XMLRecognizer.obj
 0001:00029440       ?encodingForName@XMLRecognizer@@SA?AW4Encodings@1@QBG@Z 1202a440 f   XMLRecognizer.obj
 0001:000295c0       ?nameForEncoding@XMLRecognizer@@SAPBGW4Encodings@1@@Z 1202a5c0 f   XMLRecognizer.obj
 0001:00029600       ??0XMLRefInfo@@QAE@QBG_N1@Z 1202a600 f i XMLValidator.obj
 0001:00029670       ??1XMLRefInfo@@QAE@XZ      1202a670 f i XMLValidator.obj
 0001:00029680       ?getDeclared@XMLRefInfo@@QBE_NXZ 1202a680 f i XMLValidator.obj
 0001:00029680       ?containsTypeWithId@XercesAttGroupInfo@@QBE_NXZ 1202a680 f i XMLValidator.obj
 0001:00029680       ?getDoNamespaces@XMLScanner@@QBE_NXZ 1202a680 f i XMLValidator.obj
 0001:00029680       ?getSpecified@XMLAttr@@QBE_NXZ 1202a680 f i XMLValidator.obj
 0001:00029680       ?getAbstract@ComplexTypeInfo@@QBE_NXZ 1202a680 f i XMLValidator.obj
 0001:00029680       ?getMayMatch@IC_Field@@QBE_NXZ 1202a680 f i XMLValidator.obj
 0001:00029690       ?getUsed@XMLRefInfo@@QBE_NXZ 1202a690 f i XMLValidator.obj
 0001:00029690       ?isValidatorFromUser@XMLScanner@@QAE_NXZ 1202a690 f i XMLValidator.obj
 0001:000296a0       ?setTypeWithId@XercesAttGroupInfo@@QAEX_N@Z 1202a6a0 f i XMLValidator.obj
 0001:000296a0       ?setMayMatch@IC_Field@@QAEX_N@Z 1202a6a0 f i XMLValidator.obj
 0001:000296a0       ?setDeclared@XMLRefInfo@@QAEX_N@Z 1202a6a0 f i XMLValidator.obj
 0001:000296a0       ?setAbstract@ComplexTypeInfo@@QAEX_N@Z 1202a6a0 f i XMLValidator.obj
 0001:000296a0       ?setSpecified@XMLAttr@@QAEX_N@Z 1202a6a0 f i XMLValidator.obj
 0001:000296b0       ?setUsed@XMLRefInfo@@QAEX_N@Z 1202a6b0 f i XMLValidator.obj
 0001:000296c0       ??1XMLValidator@@UAE@XZ    1202a6c0 f i XMLValidator.obj
 0001:000296d0       ?isSubstitutableBy@AnySimpleTypeDatatypeValidator@@UAE_NQBVDatatypeValidator@@@Z 1202a6d0 f i XMLValidator.obj
 0001:000296d0       ?checkRootElement@XMLValidator@@QAE_NI@Z 1202a6d0 f i XMLValidator.obj
 0001:000296e0       ??_FXMLValidator@@QAEXXZ   1202a6e0 f i XMLValidator.obj
 0001:00029700       ??_EXMLValidator@@UAEPAXI@Z 1202a700 f i XMLValidator.obj
 0001:00029760       ?setScannerInfo@XMLValidator@@QAEXQAVXMLScanner@@QAVReaderMgr@@QAVXMLBufferMgr@@@Z 1202a760 f i XMLValidator.obj
 0001:00029780       ??0XMLPScanToken@@QAE@XZ   1202a780 f i XMLValidator.obj
 0001:00029790       ??4XMLPScanToken@@QAEAAV0@ABV0@@Z 1202a790 f i XMLValidator.obj
 0001:000297b0       ?set@XMLPScanToken@@IAEXII@Z 1202a7b0 f i XMLValidator.obj
 0001:000297c0       ?isEmpty@ElemStack@@QBE_NXZ 1202a7c0 f i XMLValidator.obj
 0001:000297d0       ?getValidationFlag@ElemStack@@QAE_NXZ 1202a7d0 f i XMLValidator.obj
 0001:000297e0       ?setValidationFlag@ElemStack@@QAEX_N@Z 1202a7e0 f i XMLValidator.obj
 0001:00029800       ?getCurrentScope@ElemStack@@QAEHXZ 1202a800 f i XMLValidator.obj
 0001:00029810       ?setCurrentScope@ElemStack@@QAEXH@Z 1202a810 f i XMLValidator.obj
 0001:00029830       ?getCurrentGrammar@ElemStack@@QAEPAVGrammar@@XZ 1202a830 f i XMLValidator.obj
 0001:00029840       ?setCurrentGrammar@ElemStack@@QAEXPAVGrammar@@@Z 1202a840 f i XMLValidator.obj
 0001:00029860       ?getCurrentURI@ElemStack@@QAEIXZ 1202a860 f i XMLValidator.obj
 0001:00029870       ?setCurrentURI@ElemStack@@QAEXI@Z 1202a870 f i XMLValidator.obj
 0001:00029890       ??0Locator@@QAE@XZ         1202a890 f i XMLValidator.obj
 0001:000298a0       ??1Locator@@UAE@XZ         1202a8a0 f i XMLValidator.obj
 0001:000298b0       ??_ELocator@@UAEPAXI@Z     1202a8b0 f i XMLValidator.obj
 0001:00029910       ?getCurrentReaderNum@ReaderMgr@@QBEIXZ 1202a910 f i XMLValidator.obj
 0001:00029920       ?getName@ReaderMgr@@QAE_NAAVXMLBuffer@@@Z 1202a920 f i XMLValidator.obj
 0001:00029940       ?getNameToken@ReaderMgr@@QAE_NAAVXMLBuffer@@@Z 1202a940 f i XMLValidator.obj
 0001:00029960       ?getNextCharIfNot@ReaderMgr@@QAE_NGAAG@Z 1202a960 f i XMLValidator.obj
 0001:00029aa0       ?movePlainContentChars@ReaderMgr@@QAEXAAVXMLBuffer@@@Z 1202aaa0 f i XMLValidator.obj
 0001:00029b10       ?getThrowEOE@ReaderMgr@@QBE_NXZ 1202ab10 f i XMLValidator.obj
 0001:00029b20       ?getSrcOffset@ReaderMgr@@QBEIXZ 1202ab20 f i XMLValidator.obj
 0001:00029b30       ?lookingAtChar@ReaderMgr@@QAE_NG@Z 1202ab30 f i XMLValidator.obj
 0001:00029b50       ?lookingAtSpace@ReaderMgr@@QAE_NXZ 1202ab50 f i XMLValidator.obj
 0001:00029b70       ?skippedString@ReaderMgr@@QAE_NQBG@Z 1202ab70 f i XMLValidator.obj
 0001:00029b80       ?skipPastChar@ReaderMgr@@QAEXG@Z 1202ab80 f i XMLValidator.obj
 0001:00029b80       ?skipToChar@ReaderMgr@@QAEXG@Z 1202ab80 f i XMLValidator.obj
 0001:00029ba0       ?peekString@ReaderMgr@@QAE_NQBG@Z 1202aba0 f i XMLValidator.obj
 0001:00029bb0       ??0ThrowEOEJanitor@@QAE@PAVReaderMgr@@_N@Z 1202abb0 f i XMLValidator.obj
 0001:00029bd0       ??1ThrowEOEJanitor@@QAE@XZ 1202abd0 f i XMLValidator.obj
 0001:00029be0       ??0DTDEntityDecl@@QAE@XZ   1202abe0 f i XMLValidator.obj
 0001:00029c00       ??_EDTDEntityDecl@@UAEPAXI@Z 1202ac00 f i XMLValidator.obj
 0001:00029c60       ??0DTDEntityDecl@@QAE@QBG_N@Z 1202ac60 f i XMLValidator.obj
 0001:00029c90       ??0DTDEntityDecl@@QAE@QBG0_N@Z 1202ac90 f i XMLValidator.obj
 0001:00029cc0       ??0DTDEntityDecl@@QAE@QBGG_N1@Z 1202acc0 f i XMLValidator.obj
 0001:00029d00       ??1DTDEntityDecl@@UAE@XZ   1202ad00 f i XMLValidator.obj
 0001:00029d10       ?getIsParameter@DTDEntityDecl@@UBE_NXZ 1202ad10 f i XMLValidator.obj
 0001:00029d20       ?getIsSpecialChar@DTDEntityDecl@@UBE_NXZ 1202ad20 f i XMLValidator.obj
 0001:00029d30       ?setIsParameter@DTDEntityDecl@@QAEX_N@Z 1202ad30 f i XMLValidator.obj
 0001:00029d40       ?setIsSpecialChar@DTDEntityDecl@@QAEX_N@Z 1202ad40 f i XMLValidator.obj
 0001:00029d50       ??1Grammar@@UAE@XZ         1202ad50 f i XMLValidator.obj
 0001:00029d60       ??0Grammar@@IAE@XZ         1202ad60 f i XMLValidator.obj
 0001:00029d70       ??0Grammar@@QAE@ABV0@@Z    1202ad70 f i XMLValidator.obj
 0001:00029d80       ??_EGrammar@@UAEPAXI@Z     1202ad80 f i XMLValidator.obj
 0001:00029de0       ?getContentModel@DTDElementDecl@@UAEPAVXMLContentModel@@XZ 1202ade0 f i XMLValidator.obj
 0001:00029e00       ?setContentModel@DTDElementDecl@@UAEXQAVXMLContentModel@@@Z 1202ae00 f i XMLValidator.obj
 0001:00029e30       ??0DTDGrammar@@QAE@ABV0@@Z 1202ae30 f i XMLValidator.obj
 0001:00029e60       ??4IDOM_RangeException@@QAEAAV0@ABV0@@Z 1202ae60 f i XMLValidator.obj
 0001:00029e60       ??4DTDGrammar@@QAEAAV0@ABV0@@Z 1202ae60 f i XMLValidator.obj
 0001:00029e80       ??_EDTDGrammar@@UAEPAXI@Z  1202ae80 f i XMLValidator.obj
 0001:00029ee0       ?getElemEnumerator@DTDGrammar@@QBE?AV?$NameIdPoolEnumerator@VDTDElementDecl@@@@XZ 1202aee0 f i XMLValidator.obj
 0001:00029f10       ?getNotationEnumerator@DTDGrammar@@QBE?AV?$NameIdPoolEnumerator@VXMLNotationDecl@@@@XZ 1202af10 f i XMLValidator.obj
 0001:00029f40       ?getTargetNamespace@DTDGrammar@@UBEPBGXZ 1202af40 f i XMLValidator.obj
 0001:00029f50       ?getElemId@DTDGrammar@@UBEIIQBG0I@Z 1202af50 f i XMLValidator.obj
 0001:00029ff0       ?getElemDecl@DTDGrammar@@UAEPAVXMLElementDecl@@IQBG0I@Z 1202aff0 f i XMLValidator.obj
 0001:00029ff0       ?getElemDecl@DTDGrammar@@UBEPBVXMLElementDecl@@IQBG0I@Z 1202aff0 f i XMLValidator.obj
 0001:0002a080       ?getElemDecl@DTDGrammar@@UAEPAVXMLElementDecl@@I@Z 1202b080 f i XMLValidator.obj
 0001:0002a080       ?getElemDecl@DTDGrammar@@UBEPBVXMLElementDecl@@I@Z 1202b080 f i XMLValidator.obj
 0001:0002a0d0       ?putElemDecl@DTDGrammar@@UBEIQAVXMLElementDecl@@@Z 1202b0d0 f i XMLValidator.obj
 0001:0002a0e0       ?getNotationDecl@DTDGrammar@@UBEPBVXMLNotationDecl@@QBG@Z 1202b0e0 f i XMLValidator.obj
 0001:0002a0e0       ?getNotationDecl@DTDGrammar@@UAEPAVXMLNotationDecl@@QBG@Z 1202b0e0 f i XMLValidator.obj
 0001:0002a170       ?putNotationDecl@DTDGrammar@@UBEIQAVXMLNotationDecl@@@Z 1202b170 f i XMLValidator.obj
 0001:0002a180       ??_FDTDValidator@@QAEXXZ   1202b180 f i XMLValidator.obj
 0001:0002a190       ??0DatatypeValidator@@QAE@ABV0@@Z 1202b190 f i XMLValidator.obj
 0001:0002a1d0       ??4AnySimpleTypeDatatypeValidator@@QAEAAV0@ABV0@@Z 1202b1d0 f i XMLValidator.obj
 0001:0002a1d0       ??4BooleanDatatypeValidator@@QAEAAV0@ABV0@@Z 1202b1d0 f i XMLValidator.obj
 0001:0002a1d0       ??4DatatypeValidator@@QAEAAV0@ABV0@@Z 1202b1d0 f i XMLValidator.obj
 0001:0002a210       ??_EDatatypeValidator@@UAEPAXI@Z 1202b210 f i XMLValidator.obj
 0001:0002a270       ?cleanUp@DatatypeValidator@@AAEXXZ 1202b270 f i XMLValidator.obj
 0001:0002a330       ?compare@DatatypeValidator@@UAEHQBG0@Z 1202b330 f i XMLValidator.obj
 0001:0002a350       ?isSubstitutableBy@DatatypeValidator@@UAE_NQBV1@@Z 1202b350 f i XMLValidator.obj
 0001:0002a370       ?setFacetsDefined@DatatypeValidator@@IAEXH@Z 1202b370 f i XMLValidator.obj
 0001:0002a380       ?setFixed@DatatypeValidator@@IAEXH@Z 1202b380 f i XMLValidator.obj
 0001:0002a390       ?setPattern@DatatypeValidator@@IAEXPBG@Z 1202b390 f i XMLValidator.obj
 0001:0002a400       ?resetNamespaceList@SchemaAttDef@@QAEXXZ 1202b400 f i XMLValidator.obj
 0001:0002a420       ?setNamespaceList@SchemaAttDef@@QAEXQBV?$ValueVectorOf@I@@@Z 1202b420 f i XMLValidator.obj
 0001:0002a570       ?elementCount@ComplexTypeInfo@@QBEIXZ 1202b570 f i XMLValidator.obj
 0001:0002a580       ?getAttDef@ComplexTypeInfo@@QBEPBVSchemaAttDef@@QBGH@Z 1202b580 f i XMLValidator.obj
 0001:0002a580       ?getAttDef@ComplexTypeInfo@@QAEPAVSchemaAttDef@@QBGH@Z 1202b580 f i XMLValidator.obj
 0001:0002a630       ?elementAt@ComplexTypeInfo@@QBEPBVSchemaElementDecl@@I@Z 1202b630 f i XMLValidator.obj
 0001:0002a630       ?elementAt@ComplexTypeInfo@@QAEPAVSchemaElementDecl@@I@Z 1202b630 f i XMLValidator.obj
 0001:0002a680       ?getContentModel@ComplexTypeInfo@@QAEPAVXMLContentModel@@_N@Z 1202b680 f i XMLValidator.obj
 0001:0002a6a0       ?setAttWithTypeId@ComplexTypeInfo@@QAEX_N@Z 1202b6a0 f i XMLValidator.obj
 0001:0002a6a0       ?setValidationConstraintFatal@XMLScanner@@QAEX_N@Z 1202b6a0 f i XMLValidator.obj
 0001:0002a6b0       ?setPreprocessed@ComplexTypeInfo@@QAEX_N@Z 1202b6b0 f i XMLValidator.obj
 0001:0002a6c0       ?setDefaultType@XMLAttDef@@QAEXW4DefAttTypes@1@@Z 1202b6c0 f i XMLValidator.obj
 0001:0002a6c0       ?setType@XMLAttr@@QAEXW4AttTypes@XMLAttDef@@@Z 1202b6c0 f i XMLValidator.obj
 0001:0002a6c0       ?setContentSpec@XercesGroupInfo@@QAEXQAVContentSpecNode@@@Z 1202b6c0 f i XMLValidator.obj
 0001:0002a6c0       ?setId@XMLEntityDecl@@QAEXI@Z 1202b6c0 f i XMLValidator.obj
 0001:0002a6c0       ?setMatcherStack@FieldActivator@@QAEXQAVXPathMatcherStack@@@Z 1202b6c0 f i XMLValidator.obj
 0001:0002a6c0       ?setDerivedBy@ComplexTypeInfo@@QAEXH@Z 1202b6c0 f i XMLValidator.obj
 0001:0002a6c0       ?setDocTypeHandler@DTDScanner@@QAEXQAVDocTypeHandler@@@Z 1202b6c0 f i XMLValidator.obj
 0001:0002a6d0       ?setScanner@ValueStoreCache@@QAEXQAVXMLScanner@@@Z 1202b6d0 f i XMLValidator.obj
 0001:0002a6d0       ?setScopeDefined@ComplexTypeInfo@@QAEXH@Z 1202b6d0 f i XMLValidator.obj
 0001:0002a6d0       ?setType@DatatypeValidator@@IAEXW4ValidatorType@1@@Z 1202b6d0 f i XMLValidator.obj
 0001:0002a6e0       ?setTypeName@ComplexTypeInfo@@QAEXQBG@Z 1202b6e0 f i XMLValidator.obj
 0001:0002a760       ?addElement@ComplexTypeInfo@@QAEXQAVSchemaElementDecl@@@Z 1202b760 f i XMLValidator.obj
 0001:0002a870       ?setAttWildCard@ComplexTypeInfo@@QAEXQAVSchemaAttDef@@@Z 1202b870 f i XMLValidator.obj
 0001:0002a8a0       ?setContentModel@ComplexTypeInfo@@QAEXQAVXMLContentModel@@@Z 1202b8a0 f i XMLValidator.obj
 0001:0002a8d0       ?hasAttDefs@ComplexTypeInfo@@QBE_NXZ 1202b8d0 f i XMLValidator.obj
 0001:0002a910       ?contains@ComplexTypeInfo@@QAE_NQBG@Z 1202b910 f i XMLValidator.obj
 0001:0002ab10       ??0XPathMatcher@@QAE@ABV0@@Z 1202bb10 f i XMLValidator.obj
 0001:0002ab80       ??4XPathMatcher@@QAEAAV0@ABV0@@Z 1202bb80 f i XMLValidator.obj
 0001:0002abe0       ??_EXPathMatcher@@UAEPAXI@Z 1202bbe0 f i XMLValidator.obj
 0001:0002ac40       ?cleanUp@XPathMatcher@@AAEXXZ 1202bc40 f i XMLValidator.obj
 0001:0002acb0       ??1FieldMatcher@@UAE@XZ    1202bcb0 f i XMLValidator.obj
 0001:0002acc0       ??_EFieldMatcher@@UAEPAXI@Z 1202bcc0 f i XMLValidator.obj
 0001:0002ad20       ?getFieldCount@IdentityConstraint@@QBEHXZ 1202bd20 f i XMLValidator.obj
 0001:0002ad30       ?addField@IdentityConstraint@@QAEXQAVIC_Field@@@Z 1202bd30 f i XMLValidator.obj
 0001:0002ae40       ?getFieldAt@IdentityConstraint@@QAEPAVIC_Field@@I@Z 1202be40 f i XMLValidator.obj
 0001:0002ae40       ?getFieldAt@IdentityConstraint@@QBEPBVIC_Field@@I@Z 1202be40 f i XMLValidator.obj
 0001:0002ae90       ?getContentSpec@SchemaElementDecl@@UAEPAVContentSpecNode@@XZ 1202be90 f i XMLValidator.obj
 0001:0002ae90       ?getContentSpec@SchemaElementDecl@@UBEPBVContentSpecNode@@XZ 1202be90 f i XMLValidator.obj
 0001:0002aeb0       ?getContentModel@SchemaElementDecl@@UAEPAVXMLContentModel@@XZ 1202beb0 f i XMLValidator.obj
 0001:0002aee0       ?getModelType@SchemaElementDecl@@QBE?AW4ModelTypes@1@XZ 1202bee0 f i XMLValidator.obj
 0001:0002af00       ?getDatatypeValidator@SchemaElementDecl@@QBEPAVDatatypeValidator@@XZ 1202bf00 f i XMLValidator.obj
 0001:0002af10       ?getNodeIDMap@DocumentImpl@@QAEPAVNodeIDMap@@XZ 1202bf10 f i XMLValidator.obj
 0001:0002af10       ?getField@FieldMatcher@@QBEPAVIC_Field@@XZ 1202bf10 f i XMLValidator.obj
 0001:0002af10       ?getMinExclusive@AbstractNumericFacetValidator@@IBEQAVXMLNumber@@XZ 1202bf10 f i XMLValidator.obj
 0001:0002af10       ?getContent@ListDatatypeValidator@@ABEQBGXZ 1202bf10 f i XMLValidator.obj
 0001:0002af10       ?getTypeFromAnotherSchemaURI@SchemaElementDecl@@QBEPAGXZ 1202bf10 f i XMLValidator.obj
 0001:0002af20       ?getComplexTypeInfo@SchemaElementDecl@@QBEPAVComplexTypeInfo@@XZ 1202bf20 f i XMLValidator.obj
 0001:0002af30       ?getAttWildCard@SchemaElementDecl@@QAEPAVSchemaAttDef@@XZ 1202bf30 f i XMLValidator.obj
 0001:0002af30       ?getAttWildCard@SchemaElementDecl@@QBEPBVSchemaAttDef@@XZ 1202bf30 f i XMLValidator.obj
 0001:0002af50       ?setDefaultValue@SchemaElementDecl@@QAEXQBG@Z 1202bf50 f i XMLValidator.obj
 0001:0002afd0       ?setSubstitutionGroupName@SchemaElementDecl@@QAEXQBG@Z 1202bfd0 f i XMLValidator.obj
 0001:0002b050       ?setTypeFromAnotherSchemaURI@SchemaElementDecl@@QAEXQBG@Z 1202c050 f i XMLValidator.obj
 0001:0002b0d0       ?setXsiComplexTypeInfo@SchemaElementDecl@@QAEXQAVComplexTypeInfo@@@Z 1202c0d0 f i XMLValidator.obj
 0001:0002b0d0       ?setTotalDigits@DecimalDatatypeValidator@@AAEXI@Z 1202c0d0 f i XMLValidator.obj
 0001:0002b0d0       ?setDocTypeHandler@XMLScanner@@QAEXQAVDocTypeHandler@@@Z 1202c0d0 f i XMLValidator.obj
 0001:0002b0e0       ?setAttWildCard@SchemaElementDecl@@QAEXQAVSchemaAttDef@@@Z 1202c0e0 f i XMLValidator.obj
 0001:0002b110       ?addIdentityConstraint@SchemaElementDecl@@QAEXQAVIdentityConstraint@@@Z 1202c110 f i XMLValidator.obj
 0001:0002b220       ?getIdentityConstraintCount@SchemaElementDecl@@QBEIXZ 1202c220 f i XMLValidator.obj
 0001:0002b230       ?getIdentityConstraintAt@SchemaElementDecl@@QBEPAVIdentityConstraint@@I@Z 1202c230 f i XMLValidator.obj
 0001:0002b280       ??0AbstractStringValidator@@QAE@ABV0@@Z 1202c280 f i XMLValidator.obj
 0001:0002b2f0       ??4QNameDatatypeValidator@@QAEAAV0@ABV0@@Z 1202c2f0 f i XMLValidator.obj
 0001:0002b2f0       ??4AbstractStringValidator@@QAEAAV0@ABV0@@Z 1202c2f0 f i XMLValidator.obj
 0001:0002b2f0       ??4HexBinaryDatatypeValidator@@QAEAAV0@ABV0@@Z 1202c2f0 f i XMLValidator.obj
 0001:0002b2f0       ??4Base64BinaryDatatypeValidator@@QAEAAV0@ABV0@@Z 1202c2f0 f i XMLValidator.obj
 0001:0002b2f0       ??4NOTATIONDatatypeValidator@@QAEAAV0@ABV0@@Z 1202c2f0 f i XMLValidator.obj
 0001:0002b350       ??_EAbstractStringValidator@@UAEPAXI@Z 1202c350 f i XMLValidator.obj
 0001:0002b3b0       ?getSubstitutionGroupName@SchemaElementDecl@@QBEPAGXZ 1202c3b0 f i XMLValidator.obj
 0001:0002b3b0       ?getValueStore@FieldMatcher@@QBEPAVValueStore@@XZ 1202c3b0 f i XMLValidator.obj
 0001:0002b3b0       ?getErrorHandler@SAXParser@@QBEPBVErrorHandler@@XZ 1202c3b0 f i XMLValidator.obj
 0001:0002b3b0       ?getErrorHandler@SAXParser@@QAEPAVErrorHandler@@XZ 1202c3b0 f i XMLValidator.obj
 0001:0002b3b0       ?getEnumeration@AbstractStringValidator@@IBEPAV?$RefVectorOf@G@@XZ 1202c3b0 f i XMLValidator.obj
 0001:0002b3b0       ?getMinInclusive@AbstractNumericFacetValidator@@IBEQAVXMLNumber@@XZ 1202c3b0 f i XMLValidator.obj
 0001:0002b3c0       ?setEnumeration@AbstractStringValidator@@IAEXPAV?$RefVectorOf@G@@_N@Z 1202c3c0 f i XMLValidator.obj
 0001:0002b430       ??0StringDatatypeValidator@@QAE@ABV0@@Z 1202c430 f i XMLValidator.obj
 0001:0002b4b0       ??_EStringDatatypeValidator@@UAEPAXI@Z 1202c4b0 f i XMLValidator.obj
 0001:0002b510       ?setWhiteSpace@StringDatatypeValidator@@AAEXF@Z 1202c510 f i XMLValidator.obj
 0001:0002b520       ??0IDDatatypeValidator@@QAE@ABV0@@Z 1202c520 f i XMLValidator.obj
 0001:0002b5a0       ??4ENTITYDatatypeValidator@@QAEAAV0@ABV0@@Z 1202c5a0 f i XMLValidator.obj
 0001:0002b5a0       ??4IDDatatypeValidator@@QAEAAV0@ABV0@@Z 1202c5a0 f i XMLValidator.obj
 0001:0002b5a0       ??4IDREFDatatypeValidator@@QAEAAV0@ABV0@@Z 1202c5a0 f i XMLValidator.obj
 0001:0002b610       ??_EIDDatatypeValidator@@UAEPAXI@Z 1202c610 f i XMLValidator.obj
 0001:0002b670       ?setComplexTypeInfo@SchemaElementDecl@@QAEXQAVComplexTypeInfo@@@Z 1202c670 f i XMLValidator.obj
 0001:0002b670       ?setIDRefList@IDREFDatatypeValidator@@QAEXPAV?$RefHashTableOf@VXMLRefInfo@@@@@Z 1202c670 f i XMLValidator.obj
 0001:0002b670       ?setIDRefList@IDDatatypeValidator@@QAEXPAV?$RefHashTableOf@VXMLRefInfo@@@@@Z 1202c670 f i XMLValidator.obj
 0001:0002b670       ?setEntityDeclPool@ENTITYDatatypeValidator@@QAEXQAV?$NameIdPool@VDTDEntityDecl@@@@@Z 1202c670 f i XMLValidator.obj
 0001:0002b680       ??0SchemaGrammar@@QAE@ABV0@@Z 1202c680 f i XMLValidator.obj
 0001:0002b6f0       ??4SchemaGrammar@@QAEAAV0@ABV0@@Z 1202c6f0 f i XMLValidator.obj
 0001:0002b750       ??_ESchemaGrammar@@UAEPAXI@Z 1202c750 f i XMLValidator.obj
 0001:0002b7b0       ?getElemEnumerator@SchemaGrammar@@QBE?AV?$RefHash3KeysIdPoolEnumerator@VSchemaElementDecl@@@@XZ 1202c7b0 f i XMLValidator.obj
 0001:0002b850       ?getCurrentNode@IDOMParser@@IAEPAVIDOM_Node@@XZ 1202c850 f i XMLValidator.obj
 0001:0002b850       ?getTokenFactory@RangeTokenMap@@QBEPAVTokenFactory@@XZ 1202c850 f i XMLValidator.obj
 0001:0002b850       ?getAttributeDeclRegistry@SchemaGrammar@@QBEPAV?$RefHashTableOf@VXMLAttDef@@@@XZ 1202c850 f i XMLValidator.obj
 0001:0002b850       ?getSystemId@XMLEntityDecl@@QBEPBGXZ 1202c850 f i XMLValidator.obj
 0001:0002b850       ?getGrammar@DTDValidator@@UBEPAVGrammar@@XZ 1202c850 f i XMLValidator.obj
 0001:0002b850       ?getKey@IC_KeyRef@@QBEPAVIdentityConstraint@@XZ 1202c850 f i XMLValidator.obj
 0001:0002b850       ?getBaseValidator@DatatypeValidator@@QBEPAV1@XZ 1202c850 f i XMLValidator.obj
 0001:0002b850       ?getElementId@ComplexTypeInfo@@QBEIXZ 1202c850 f i XMLValidator.obj
 0001:0002b850       ?getPath@XMLUri@@QBEPBGXZ  1202c850 f i XMLValidator.obj
 0001:0002b850       ?getType@XMLAttDef@@QBE?AW4AttTypes@1@XZ 1202c850 f i XMLValidator.obj
 0001:0002b850       ?getGrammar@SchemaValidator@@UBEPAVGrammar@@XZ 1202c850 f i XMLValidator.obj
 0001:0002b850       ?getUnknownNamespaceId@XMLScanner@@QBEIXZ 1202c850 f i XMLValidator.obj
 0001:0002b860       ?getURI@QName@@QAEIXZ      1202c860 f i XMLValidator.obj
 0001:0002b860       ?getQueryString@XMLUri@@QBEPBGXZ 1202c860 f i XMLValidator.obj
 0001:0002b860       ?getXMLNamespaceId@XMLScanner@@QBEIXZ 1202c860 f i XMLValidator.obj
 0001:0002b860       ?getFacets@DatatypeValidator@@QBEPAV?$RefHashTableOf@VKVStringPair@@@@XZ 1202c860 f i XMLValidator.obj
 0001:0002b860       ?getContentType@ComplexTypeInfo@@QBEHXZ 1202c860 f i XMLValidator.obj
 0001:0002b860       ?getProtocol@XMLURL@@QBE?AW4Protocols@1@XZ 1202c860 f i XMLValidator.obj
 0001:0002b860       ?getValue@XMLAttDef@@QBEPBGXZ 1202c860 f i XMLValidator.obj
 0001:0002b860       ?getValue@XMLEntityDecl@@QBEPBGXZ 1202c860 f i XMLValidator.obj
 0001:0002b860       ?getComplexTypeRegistry@SchemaGrammar@@QBEPAV?$RefHashTableOf@VComplexTypeInfo@@@@XZ 1202c860 f i XMLValidator.obj
 0001:0002b860       ?getURI@QName@@QBE?BIXZ    1202c860 f i XMLValidator.obj
 0001:0002b870       ?getEntityResolver@IDOMParser@@QAEPAVEntityResolver@@XZ 1202c870 f i XMLValidator.obj
 0001:0002b870       ?getEnclosingScope@SchemaElementDecl@@QBEHXZ 1202c870 f i XMLValidator.obj
 0001:0002b870       ?getCreateReason@XMLAttDef@@QBE?AW4CreateReasons@1@XZ 1202c870 f i XMLValidator.obj
 0001:0002b870       ?getFragment@XMLUri@@QBEPBGXZ 1202c870 f i XMLValidator.obj
 0001:0002b870       ?getValueLen@XMLEntityDecl@@QBEIXZ 1202c870 f i XMLValidator.obj
 0001:0002b870       ?getGroupInfoRegistry@SchemaGrammar@@QBEPAV?$RefHashTableOf@VXercesGroupInfo@@@@XZ 1202c870 f i XMLValidator.obj
 0001:0002b870       ?getEntityResolver@DOMParser@@QAEPAVEntityResolver@@XZ 1202c870 f i XMLValidator.obj
 0001:0002b870       ?getContentSpec@DTDElementDecl@@UBEPBVContentSpecNode@@XZ 1202c870 f i XMLValidator.obj
 0001:0002b870       ?getEntityResolver@DOMParser@@QBEPBVEntityResolver@@XZ 1202c870 f i XMLValidator.obj
 0001:0002b870       ?getTypeName@ComplexTypeInfo@@QBEPAGXZ 1202c870 f i XMLValidator.obj
 0001:0002b870       ?getContentSpec@DTDElementDecl@@UAEPAVContentSpecNode@@XZ 1202c870 f i XMLValidator.obj
 0001:0002b870       ?getPattern@DatatypeValidator@@IBEPBGXZ 1202c870 f i XMLValidator.obj
 0001:0002b870       ?getXMLNSNamespaceId@XMLScanner@@QBEIXZ 1202c870 f i XMLValidator.obj
 0001:0002b870       ?getQuery@XMLURL@@QBEPBGXZ 1202c870 f i XMLValidator.obj
 0001:0002b870       ?getEntityResolver@IDOMParser@@QBEPBVEntityResolver@@XZ 1202c870 f i XMLValidator.obj
 0001:0002b880       ?getCharData@RegxParser@@QBEHXZ 1202c880 f i XMLValidator.obj
 0001:0002b880       ?getDefinedScope@SchemaElementDecl@@QBEHXZ 1202c880 f i XMLValidator.obj
 0001:0002b880       ?getErrorHandler@IDOMParser@@QAEPAVErrorHandler@@XZ 1202c880 f i XMLValidator.obj
 0001:0002b880       ?getRegex@DatatypeValidator@@IBEPAVRegularExpression@@XZ 1202c880 f i XMLValidator.obj
 0001:0002b880       ?getUser@XMLURL@@QBEPBGXZ  1202c880 f i XMLValidator.obj
 0001:0002b880       ?getErrorHandler@DOMParser@@QAEPAVErrorHandler@@XZ 1202c880 f i XMLValidator.obj
 0001:0002b880       ?getIdentityConstraint@XPathMatcher@@QBEPAVIdentityConstraint@@XZ 1202c880 f i XMLValidator.obj
 0001:0002b880       ?getAttGroupInfoRegistry@SchemaGrammar@@QBEPAV?$RefHashTableOf@VXercesAttGroupInfo@@@@XZ 1202c880 f i XMLValidator.obj
 0001:0002b880       ?getErrorHandler@DOMParser@@QBEPBVErrorHandler@@XZ 1202c880 f i XMLValidator.obj
 0001:0002b880       ?getBaseDatatypeValidator@ComplexTypeInfo@@QBEPAVDatatypeValidator@@XZ 1202c880 f i XMLValidator.obj
 0001:0002b880       ?getModelType@DTDElementDecl@@QBE?AW4ModelTypes@1@XZ 1202c880 f i XMLValidator.obj
 0001:0002b880       ?getErrorHandler@IDOMParser@@QBEPBVErrorHandler@@XZ 1202c880 f i XMLValidator.obj
 0001:0002b890       ?getDocumentHandler@SAXParser@@QAEPAVDocumentHandler@@XZ 1202c890 f i XMLValidator.obj
 0001:0002b890       ?getDatatypeRegistry@SchemaGrammar@@QBEPAVDatatypeValidatorFactory@@XZ 1202c890 f i XMLValidator.obj
 0001:0002b890       ?getLength@AbstractStringValidator@@IBEIXZ 1202c890 f i XMLValidator.obj
 0001:0002b890       ?getFinalSet@SchemaElementDecl@@QBEHXZ 1202c890 f i XMLValidator.obj
 0001:0002b890       ?getElemId@SchemaAttDef@@QBEIXZ 1202c890 f i XMLValidator.obj
 0001:0002b890       ?getElemId@DTDAttDef@@QBEIXZ 1202c890 f i XMLValidator.obj
 0001:0002b890       ?getDatatypeValidator@ComplexTypeInfo@@QBEPAVDatatypeValidator@@XZ 1202c890 f i XMLValidator.obj
 0001:0002b890       ?getDocumentHandler@SAXParser@@QBEPBVDocumentHandler@@XZ 1202c890 f i XMLValidator.obj
 0001:0002b8a0       ?getMaxLength@AbstractStringValidator@@IBEIXZ 1202c8a0 f i XMLValidator.obj
 0001:0002b8a0       ?getNamespaceScope@SchemaGrammar@@QBEPAVNamespaceScope@@XZ 1202c8a0 f i XMLValidator.obj
 0001:0002b8a0       ?getContentHandler@SAX2XMLReaderImpl@@UBEPAVContentHandler@@XZ 1202c8a0 f i XMLValidator.obj
 0001:0002b8a0       ?getBaseComplexTypeInfo@ComplexTypeInfo@@QBEPAV1@XZ 1202c8a0 f i XMLValidator.obj
 0001:0002b8a0       ?getBlockSet@SchemaElementDecl@@QBEHXZ 1202c8a0 f i XMLValidator.obj
 0001:0002b8a0       ?getEnumeration@UnionDatatypeValidator@@ABEPAV?$RefVectorOf@G@@XZ 1202c8a0 f i XMLValidator.obj
 0001:0002b8a0       ?getFullName@DTDAttDef@@UBEPBGXZ 1202c8a0 f i XMLValidator.obj
 0001:0002b8a0       ?getNodeIDMap@IDDocumentImpl@@QAEPAVIDNodeIDMap@@XZ 1202c8a0 f i XMLValidator.obj
 0001:0002b8a0       ?getAttName@SchemaAttDef@@QBEPAVQName@@XZ 1202c8a0 f i XMLValidator.obj
 0001:0002b8b0       ?getMiscFlags@SchemaElementDecl@@QBEHXZ 1202c8b0 f i XMLValidator.obj
 0001:0002b8b0       ?getDatatypeValidator@SchemaAttDef@@QBEPAVDatatypeValidator@@XZ 1202c8b0 f i XMLValidator.obj
 0001:0002b8b0       ?getMaxInclusive@AbstractNumericFacetValidator@@IBEQAVXMLNumber@@XZ 1202c8b0 f i XMLValidator.obj
 0001:0002b8b0       ?getContentSpec@ComplexTypeInfo@@QBEPAVContentSpecNode@@XZ 1202c8b0 f i XMLValidator.obj
 0001:0002b8b0       ?getValidSubstitutionGroups@SchemaGrammar@@QBEPAV?$RefHash2KeysTableOf@V?$ValueVectorOf@PAVSchemaElementDecl@@@@@@XZ 1202c8b0 f i XMLValidator.obj
 0001:0002b8b0       ?getMinLength@AbstractStringValidator@@IBEIXZ 1202c8b0 f i XMLValidator.obj
 0001:0002b8b0       ?getTokenFactory@RegxParser@@QBEPAVTokenFactory@@XZ 1202c8b0 f i XMLValidator.obj
 0001:0002b8c0       ?getUPAChecked@SchemaGrammar@@QBE_NXZ 1202c8c0 f i XMLValidator.obj
 0001:0002b8d0       ?getIDRefList@SchemaGrammar@@QBEPAV?$RefHashTableOf@VXMLRefInfo@@@@XZ 1202c8d0 f i XMLValidator.obj
 0001:0002b8d0       ?getEntityResolver@SAXParser@@QAEPAVEntityResolver@@XZ 1202c8d0 f i XMLValidator.obj
 0001:0002b8d0       ?getNamespaceList@SchemaAttDef@@QBEPAV?$ValueVectorOf@I@@XZ 1202c8d0 f i XMLValidator.obj
 0001:0002b8d0       ?getAttWildCard@ComplexTypeInfo@@QAEPAVSchemaAttDef@@XZ 1202c8d0 f i XMLValidator.obj
 0001:0002b8d0       ?getAttWildCard@ComplexTypeInfo@@QBEPBVSchemaAttDef@@XZ 1202c8d0 f i XMLValidator.obj
 0001:0002b8d0       ?getDefaultValue@SchemaElementDecl@@QBEPAGXZ 1202c8d0 f i XMLValidator.obj
 0001:0002b8d0       ?getEntityResolver@SAXParser@@QBEPBVEntityResolver@@XZ 1202c8d0 f i XMLValidator.obj
 0001:0002b8d0       ?getScanner@DOMParser@@QBEABVXMLScanner@@XZ 1202c8d0 f i XMLValidator.obj
 0001:0002b8d0       ?getMaxExclusive@AbstractNumericFacetValidator@@IBEQAVXMLNumber@@XZ 1202c8d0 f i XMLValidator.obj
 0001:0002b8e0       ?setTargetNamespace@SchemaGrammar@@QAEXQBG@Z 1202c8e0 f i XMLValidator.obj
 0001:0002b950       ?setGrammar@SchemaValidator@@UAEXPAVGrammar@@@Z 1202c950 f i XMLValidator.obj
 0001:0002b950       ?setAttributeDeclRegistry@SchemaGrammar@@QAEXQAV?$RefHashTableOf@VXMLAttDef@@@@@Z 1202c950 f i XMLValidator.obj
 0001:0002b950       ?setElementId@ComplexTypeInfo@@QAEXI@Z 1202c950 f i XMLValidator.obj
 0001:0002b950       ?setModelType@SchemaElementDecl@@QAEXW4ModelTypes@1@@Z 1202c950 f i XMLValidator.obj
 0001:0002b950       ?setGrammar@DTDValidator@@UAEXPAVGrammar@@@Z 1202c950 f i XMLValidator.obj
 0001:0002b950       ?setCurrentNode@IDOMParser@@IAEXPAVIDOM_Node@@@Z 1202c950 f i XMLValidator.obj
 0001:0002b950       ?setType@XMLAttDef@@QAEXW4AttTypes@1@@Z 1202c950 f i XMLValidator.obj
 0001:0002b960       ?setURI@QName@@QAEXI@Z     1202c960 f i XMLValidator.obj
 0001:0002b960       ?setGrammarResolver@SchemaValidator@@QAEXPAVGrammarResolver@@@Z 1202c960 f i XMLValidator.obj
 0001:0002b960       ?setDocument@IDOMParser@@IAEXPAVIDOM_Document@@@Z 1202c960 f i XMLValidator.obj
 0001:0002b960       ?setDatatypeValidator@SchemaElementDecl@@QAEXPAVDatatypeValidator@@@Z 1202c960 f i XMLValidator.obj
 0001:0002b960       ?setComplexTypeRegistry@SchemaGrammar@@QAEXQAV?$RefHashTableOf@VComplexTypeInfo@@@@@Z 1202c960 f i XMLValidator.obj
 0001:0002b960       ?setContentType@ComplexTypeInfo@@QAEXH@Z 1202c960 f i XMLValidator.obj
 0001:0002b970       ?setCreateReason@XMLAttDef@@QAEXW4CreateReasons@1@@Z 1202c970 f i XMLValidator.obj
 0001:0002b970       ?setEnclosingScope@SchemaElementDecl@@QAEXH@Z 1202c970 f i XMLValidator.obj
 0001:0002b970       ?setGroupInfoRegistry@SchemaGrammar@@QAEXQAV?$RefHashTableOf@VXercesGroupInfo@@@@@Z 1202c970 f i XMLValidator.obj
 0001:0002b980       ?setRegex@DatatypeValidator@@IAEXQAVRegularExpression@@@Z 1202c980 f i XMLValidator.obj
 0001:0002b980       ?setModelType@DTDElementDecl@@QAEXW4ModelTypes@1@@Z 1202c980 f i XMLValidator.obj
 0001:0002b980       ?setBaseDatatypeValidator@ComplexTypeInfo@@QAEXQAVDatatypeValidator@@@Z 1202c980 f i XMLValidator.obj
 0001:0002b980       ?setDefinedScope@SchemaElementDecl@@QAEXH@Z 1202c980 f i XMLValidator.obj
 0001:0002b980       ?setAttGroupInfoRegistry@SchemaGrammar@@QAEXQAV?$RefHashTableOf@VXercesAttGroupInfo@@@@@Z 1202c980 f i XMLValidator.obj
 0001:0002b990       ?setDatatypeValidator@ComplexTypeInfo@@QAEXQAVDatatypeValidator@@@Z 1202c990 f i XMLValidator.obj
 0001:0002b990       ?setElemId@SchemaAttDef@@QAEXI@Z 1202c990 f i XMLValidator.obj
 0001:0002b990       ?setLength@AbstractStringValidator@@IAEXI@Z 1202c990 f i XMLValidator.obj
 0001:0002b990       ?setFinalSet@SchemaElementDecl@@QAEXH@Z 1202c990 f i XMLValidator.obj
 0001:0002b990       ?setDatatypeRegistry@SchemaGrammar@@QAEXQAVDatatypeValidatorFactory@@@Z 1202c990 f i XMLValidator.obj
 0001:0002b990       ?setElemId@DTDAttDef@@QAEXI@Z 1202c990 f i XMLValidator.obj
 0001:0002b9a0       ?setNamespaceScope@SchemaGrammar@@QAEXQAVNamespaceScope@@@Z 1202c9a0 f i XMLValidator.obj
 0001:0002b9a0       ?setBlockSet@SchemaElementDecl@@QAEXH@Z 1202c9a0 f i XMLValidator.obj
 0001:0002b9a0       ?setMaxLength@AbstractStringValidator@@IAEXI@Z 1202c9a0 f i XMLValidator.obj
 0001:0002b9a0       ?setBaseComplexTypeInfo@ComplexTypeInfo@@QAEXQAV1@@Z 1202c9a0 f i XMLValidator.obj
 0001:0002b9b0       ?setTokenFactory@RegxParser@@QAEXQAVTokenFactory@@@Z 1202c9b0 f i XMLValidator.obj
 0001:0002b9b0       ?setValidSubstitutionGroups@SchemaGrammar@@QAEXQAV?$RefHash2KeysTableOf@V?$ValueVectorOf@PAVSchemaElementDecl@@@@@@@Z 1202c9b0 f i XMLValidator.obj
 0001:0002b9b0       ?setMinLength@AbstractStringValidator@@IAEXI@Z 1202c9b0 f i XMLValidator.obj
 0001:0002b9b0       ?setMiscFlags@SchemaElementDecl@@QAEXH@Z 1202c9b0 f i XMLValidator.obj
 0001:0002b9b0       ?setDatatypeValidator@SchemaAttDef@@QAEXPAVDatatypeValidator@@@Z 1202c9b0 f i XMLValidator.obj
 0001:0002b9c0       ?setUPAChecked@SchemaGrammar@@QAEX_N@Z 1202c9c0 f i XMLValidator.obj
 0001:0002b9d0       ?getGrammarType@SchemaGrammar@@UAE?AW4GrammarType@Grammar@@XZ 1202c9d0 f i XMLValidator.obj
 0001:0002b9d0       ?size@ClosureToken@@UBEHXZ 1202c9d0 f i XMLValidator.obj
 0001:0002b9d0       ?size@ParenToken@@UBEHXZ   1202c9d0 f i XMLValidator.obj
 0001:0002b9d0       ?size@ModifierToken@@UBEHXZ 1202c9d0 f i XMLValidator.obj
 0001:0002b9e0       ?getDerivedBy@ComplexTypeInfo@@QBEHXZ 1202c9e0 f i XMLValidator.obj
 0001:0002b9e0       ?getName@XMLNotationDecl@@QBEPBGXZ 1202c9e0 f i XMLValidator.obj
 0001:0002b9e0       ?getValue@XMLBigDecimal@@QBEPAVXMLBigInteger@@XZ 1202c9e0 f i XMLValidator.obj
 0001:0002b9e0       ?getDocTypeHandler@DTDScanner@@QBEPBVDocTypeHandler@@XZ 1202c9e0 f i XMLValidator.obj
 0001:0002b9e0       ?getTargetNamespace@SchemaGrammar@@UBEPBGXZ 1202c9e0 f i XMLValidator.obj
 0001:0002b9e0       ?getCode@XMLException@@QBE?AW4Codes@XMLExcepts@@XZ 1202c9e0 f i XMLValidator.obj
 0001:0002b9e0       ?getLen@XMLBuffer@@QBEIXZ  1202c9e0 f i XMLValidator.obj
 0001:0002b9e0       ?getBufMgr@XMLValidator@@IBEPBVXMLBufferMgr@@XZ 1202c9e0 f i XMLValidator.obj
 0001:0002b9e0       ?getContentSpec@XercesGroupInfo@@QBEPAVContentSpecNode@@XZ 1202c9e0 f i XMLValidator.obj
 0001:0002b9e0       ?getLanguageName@XMLMsgLoader@@QBEPBGXZ 1202c9e0 f i XMLValidator.obj
 0001:0002b9e0       ?getElementName@XMLElementDecl@@QAEPAVQName@@XZ 1202c9e0 f i XMLValidator.obj
 0001:0002b9e0       ?getRefName@XMLRefInfo@@QBEPBGXZ 1202c9e0 f i XMLValidator.obj
 0001:0002b9e0       ?getName@XercesNodeTest@@QBEPAVQName@@XZ 1202c9e0 f i XMLValidator.obj
 0001:0002b9e0       ?getEncodingName@XMLFormatter@@QBEPBGXZ 1202c9e0 f i XMLValidator.obj
 0001:0002b9e0       ?getKey@XMLNotationDecl@@QBEPBGXZ 1202c9e0 f i XMLValidator.obj
 0001:0002b9e0       ?getXPath@IC_Field@@QBEPAVXercesXPath@@XZ 1202c9e0 f i XMLValidator.obj
 0001:0002b9e0       ?getFinalSet@DatatypeValidator@@QBEHXZ 1202c9e0 f i XMLValidator.obj
 0001:0002b9e0       ?getId@XMLEntityDecl@@QBEIXZ 1202c9e0 f i XMLValidator.obj
 0001:0002b9e0       ?getMessage@SAXException@@UBEPBGXZ 1202c9e0 f i XMLValidator.obj
 0001:0002b9e0       ?getNodeTest@XercesStep@@QBEPAVXercesNodeTest@@XZ 1202c9e0 f i XMLValidator.obj
 0001:0002b9e0       ?getDefaultType@XMLAttDef@@QBE?AW4DefAttTypes@1@XZ 1202c9e0 f i XMLValidator.obj
 0001:0002b9e0       ?getEncoding@InputSource@@QBEPBGXZ 1202c9e0 f i XMLValidator.obj
 0001:0002b9e0       ?getElementName@XMLElementDecl@@QBEPBVQName@@XZ 1202c9e0 f i XMLValidator.obj
 0001:0002b9e0       ?getScheme@XMLUri@@QBEPBGXZ 1202c9e0 f i XMLValidator.obj
 0001:0002b9e0       ?getFragment@XMLURL@@QBEPBGXZ 1202c9e0 f i XMLValidator.obj
 0001:0002b9e0       ?getIdentityConstraintName@IdentityConstraint@@QBEPAGXZ 1202c9e0 f i XMLValidator.obj
 0001:0002b9e0       ?getType@XMLAttr@@QBE?AW4AttTypes@XMLAttDef@@XZ 1202c9e0 f i XMLValidator.obj
 0001:0002b9e0       ?getReaderNum@EndOfEntityException@@QBEIXZ 1202c9e0 f i XMLValidator.obj
 0001:0002b9e0       ?getBufMgr@XMLValidator@@IAEPAVXMLBufferMgr@@XZ 1202c9e0 f i XMLValidator.obj
 0001:0002b9e0       ?getBlockSize@XMLTranscoder@@QBEIXZ 1202c9e0 f i XMLValidator.obj
 0001:0002b9e0       ?getIdentityConstraint@IC_Selector@@QBEPAVIdentityConstraint@@XZ 1202c9e0 f i XMLValidator.obj
 0001:0002b9e0       ?getDocTypeHandler@DTDScanner@@QAEPAVDocTypeHandler@@XZ 1202c9e0 f i XMLValidator.obj
 0001:0002b9f0       ?getElemId@SchemaGrammar@@UBEIIQBG0I@Z 1202c9f0 f i XMLValidator.obj
 0001:0002bb20       ?getElemDecl@SchemaGrammar@@UAEPAVXMLElementDecl@@IQBG0I@Z 1202cb20 f i XMLValidator.obj
 0001:0002bb20       ?getElemDecl@SchemaGrammar@@UBEPBVXMLElementDecl@@IQBG0I@Z 1202cb20 f i XMLValidator.obj
 0001:0002bc50       ?getElemDecl@SchemaGrammar@@UBEPBVXMLElementDecl@@I@Z 1202cc50 f i XMLValidator.obj
 0001:0002bc50       ?getElemDecl@SchemaGrammar@@UAEPAVXMLElementDecl@@I@Z 1202cc50 f i XMLValidator.obj
 0001:0002bcd0       ?putElemDecl@SchemaGrammar@@UBEIQAVXMLElementDecl@@@Z 1202ccd0 f i XMLValidator.obj
 0001:0002bd00       ?putGroupElemDecl@SchemaGrammar@@QBEIQAVXMLElementDecl@@@Z 1202cd00 f i XMLValidator.obj
 0001:0002bd30       ?getNotationDecl@SchemaGrammar@@UAEPAVXMLNotationDecl@@QBG@Z 1202cd30 f i XMLValidator.obj
 0001:0002bd30       ?getNotationDecl@SchemaGrammar@@UBEPBVXMLNotationDecl@@QBG@Z 1202cd30 f i XMLValidator.obj
 0001:0002bdc0       ?putNotationDecl@SchemaGrammar@@UBEIQAVXMLNotationDecl@@@Z 1202cdc0 f i XMLValidator.obj
 0001:0002bdd0       ??_FSchemaValidator@@QAEXXZ 1202cdd0 f i XMLValidator.obj
 0001:0002bde0       ?setXsiType@SchemaValidator@@QAEXQBG0I@Z 1202cde0 f i XMLValidator.obj
 0001:0002be60       ?setDeclaredInIntSubset@DTDEntityDecl@@QAEX_N@Z 1202ce60 f i XMLValidator.obj
 0001:0002be60       ?setNillable@SchemaValidator@@QAEX_N@Z 1202ce60 f i XMLValidator.obj
 0001:0002be60       ?setExternalAttDeclaration@XMLAttDef@@QAEX_N@Z 1202ce60 f i XMLValidator.obj
 0001:0002be70       ?handlesDTD@DTDValidator@@UBE_NXZ 1202ce70 f i XMLValidator.obj
 0001:0002be70       ?isAtomic@DatatypeValidator@@UBE_NXZ 1202ce70 f i XMLValidator.obj
 0001:0002be70       ?handlesSchema@SchemaValidator@@UBE_NXZ 1202ce70 f i XMLValidator.obj
 0001:0002be80       ?getDocHandler@XMLScanner@@QAEPAVXMLDocumentHandler@@XZ 1202ce80 f i XMLValidator.obj
 0001:0002be80       ?getDocHandler@XMLScanner@@QBEPBVXMLDocumentHandler@@XZ 1202ce80 f i XMLValidator.obj
 0001:0002be90       ?getEntityHandler@XMLScanner@@QAEPAVXMLEntityHandler@@XZ 1202ce90 f i XMLValidator.obj
 0001:0002be90       ?getEntityHandler@XMLScanner@@QBEPBVXMLEntityHandler@@XZ 1202ce90 f i XMLValidator.obj
 0001:0002bea0       ?getErrorReporter@XMLScanner@@QAEPAVXMLErrorReporter@@XZ 1202cea0 f i XMLValidator.obj
 0001:0002bea0       ?getErrorReporter@XMLScanner@@QBEPBVXMLErrorReporter@@XZ 1202cea0 f i XMLValidator.obj
 0001:0002beb0       ?getAdoptContentSpec@ComplexTypeInfo@@QBE_NXZ 1202ceb0 f i XMLValidator.obj
 0001:0002beb0       ?getExitOnFirstFatal@XMLScanner@@QBE_NXZ 1202ceb0 f i XMLValidator.obj
 0001:0002bec0       ?getValidationConstraintFatal@XMLScanner@@QBE_NXZ 1202cec0 f i XMLValidator.obj
 0001:0002bec0       ?containsAttWithTypeId@ComplexTypeInfo@@QBE_NXZ 1202cec0 f i XMLValidator.obj
 0001:0002bed0       ?getIDRefList@XMLScanner@@QBEPBV?$RefHashTableOf@VXMLRefInfo@@@@XZ 1202ced0 f i XMLValidator.obj
 0001:0002bed0       ?getIDRefList@XMLScanner@@QAEPAV?$RefHashTableOf@VXMLRefInfo@@@@XZ 1202ced0 f i XMLValidator.obj
 0001:0002bee0       ?getPreprocessed@ComplexTypeInfo@@QBE_NXZ 1202cee0 f i XMLValidator.obj
 0001:0002bee0       ?getInException@XMLScanner@@QBE_NXZ 1202cee0 f i XMLValidator.obj
 0001:0002bef0       ?getLocator@XMLScanner@@QBEPBVLocator@@XZ 1202cef0 f i XMLValidator.obj
 0001:0002bf00       ?getSrcOffset@XMLScanner@@QBEIXZ 1202cf00 f i XMLValidator.obj
 0001:0002bf10       ?getStandalone@XMLScanner@@QBE_NXZ 1202cf10 f i XMLValidator.obj
 0001:0002bf20       ?getValidationScheme@XMLScanner@@QBE?AW4ValSchemes@1@XZ 1202cf20 f i XMLValidator.obj
 0001:0002bf30       ?getValidator@XMLScanner@@QAEPAVXMLValidator@@XZ 1202cf30 f i XMLValidator.obj
 0001:0002bf30       ?getValidator@XMLScanner@@QBEPBVXMLValidator@@XZ 1202cf30 f i XMLValidator.obj
 0001:0002bf40       ?getDoSchema@XMLScanner@@QBE_NXZ 1202cf40 f i XMLValidator.obj
 0001:0002bf50       ?getValidationSchemaFullChecking@XMLScanner@@QBE_NXZ 1202cf50 f i XMLValidator.obj
 0001:0002bf60       ?getEntityEnumerator@XMLScanner@@QBE?AV?$NameIdPoolEnumerator@VDTDEntityDecl@@@@XZ 1202cf60 f i XMLValidator.obj
 0001:0002bf90       ?getEntityDecl@XMLScanner@@QAEPAVDTDEntityDecl@@QBG@Z 1202cf90 f i XMLValidator.obj
 0001:0002bf90       ?getEntityDecl@XMLScanner@@QBEPBVDTDEntityDecl@@QBG@Z 1202cf90 f i XMLValidator.obj
 0001:0002c020       ?getEntityDeclPool@XMLScanner@@QAEPAV?$NameIdPool@VDTDEntityDecl@@@@XZ 1202d020 f i XMLValidator.obj
 0001:0002c020       ?getEntityDeclPool@XMLScanner@@QBEPBV?$NameIdPool@VDTDEntityDecl@@@@XZ 1202d020 f i XMLValidator.obj
 0001:0002c030       ?getURIStringPool@XMLScanner@@QBEPBVXMLStringPool@@XZ 1202d030 f i XMLValidator.obj
 0001:0002c030       ?getURIStringPool@XMLScanner@@QAEPAVXMLStringPool@@XZ 1202d030 f i XMLValidator.obj
 0001:0002c040       ?getHasNoDTD@XMLScanner@@QBE_NXZ 1202d040 f i XMLValidator.obj
 0001:0002c050       ?getExternalSchemaLocation@XMLScanner@@QBEPAGXZ 1202d050 f i XMLValidator.obj
 0001:0002c060       ?getExternalNoNamespaceSchemaLocation@XMLScanner@@QBEPAGXZ 1202d060 f i XMLValidator.obj
 0001:0002c070       ?setIDRefList@GeneralAttributeCheck@@QAEXQAV?$RefHashTableOf@VXMLRefInfo@@@@@Z 1202d070 f i XMLValidator.obj
 0001:0002c070       ?setDocHandler@XMLScanner@@QAEXQAVXMLDocumentHandler@@@Z 1202d070 f i XMLValidator.obj
 0001:0002c080       ?setDoNamespaces@XMLScanner@@QAEX_N@Z 1202d080 f i XMLValidator.obj
 0001:0002c100       ?setErrorReporter@XMLScanner@@QAEXQAVXMLErrorReporter@@@Z 1202d100 f i XMLValidator.obj
 0001:0002c130       ?setErrorHandler@XMLScanner@@QAEXQAVErrorHandler@@@Z 1202d130 f i XMLValidator.obj
 0001:0002c140       ?setEntityHandler@XMLScanner@@QAEXQAVXMLEntityHandler@@@Z 1202d140 f i XMLValidator.obj
 0001:0002c160       ?setEntityResolver@XMLScanner@@QAEXQAVEntityResolver@@@Z 1202d160 f i XMLValidator.obj
 0001:0002c170       ?setAdoptContentSpec@ComplexTypeInfo@@QAEX_N@Z 1202d170 f i XMLValidator.obj
 0001:0002c170       ?setExitOnFirstFatal@XMLScanner@@QAEX_N@Z 1202d170 f i XMLValidator.obj
 0001:0002c180       ?setValidationScheme@XMLScanner@@QAEXW4ValSchemes@1@@Z 1202d180 f i XMLValidator.obj
 0001:0002c1a0       ?setValidator@XMLScanner@@QAEXQAVXMLValidator@@@Z 1202d1a0 f i XMLValidator.obj
 0001:0002c1e0       ?setDoSchema@XMLScanner@@QAEX_N@Z 1202d1e0 f i XMLValidator.obj
 0001:0002c1f0       ?setValidationSchemaFullChecking@XMLScanner@@QAEX_N@Z 1202d1f0 f i XMLValidator.obj
 0001:0002c200       ?setHasNoDTD@XMLScanner@@QAEX_N@Z 1202d200 f i XMLValidator.obj
 0001:0002c210       ?setRootElemName@XMLScanner@@QAEXPAG@Z 1202d210 f i XMLValidator.obj
 0001:0002c290       ?setExternalSchemaLocation@XMLScanner@@QAEXQBG@Z 1202d290 f i XMLValidator.obj
 0001:0002c310       ?setExternalNoNamespaceSchemaLocation@XMLScanner@@QAEXQBG@Z 1202d310 f i XMLValidator.obj
 0001:0002c390       ?setExternalSchemaLocation@XMLScanner@@QAEXQBD@Z 1202d390 f i XMLValidator.obj
 0001:0002c3c0       ?setExternalNoNamespaceSchemaLocation@XMLScanner@@QAEXQBD@Z 1202d3c0 f i XMLValidator.obj
 0001:0002c3f0       ?incrementErrorCount@XMLScanner@@QAEXXZ 1202d3f0 f i XMLValidator.obj
 0001:0002c400       ?getDoValidation@XMLScanner@@QBE_NXZ 1202d400 f i XMLValidator.obj
 0001:0002c410       ?setDoValidation@XMLScanner@@QAEX_N0@Z 1202d410 f i XMLValidator.obj
 0001:0002c480       ?emitError@XMLValidator@@QAEXW4Codes@XMLValid@@@Z 1202d480 f   XMLValidator.obj
 0001:0002c710       ?emitError@XMLValidator@@QAEXW4Codes@XMLValid@@QBG111@Z 1202d710 f   XMLValidator.obj
 0001:0002c830       ?emitError@XMLValidator@@QAEXW4Codes@XMLValid@@QBD111@Z 1202d830 f   XMLValidator.obj
 0001:0002c950       ??0XMLValidator@@IAE@QAVXMLErrorReporter@@@Z 1202d950 f   XMLValidator.obj
 0001:0002c970       ?reinitMsgMutex@XMLValidator@@SAXXZ 1202d970 f   XMLValidator.obj
 0001:0002c9a0       ?reinitMsgLoader@XMLValidator@@SAXXZ 1202d9a0 f   XMLValidator.obj
 0001:0002c9c0       ?hasMoreElements@?$NameIdPoolEnumerator@VXMLNotationDecl@@@@UBE_NXZ 1202d9c0 f i XMLValidator.obj
 0001:0002c9c0       ?hasMoreElements@?$NameIdPoolEnumerator@VDTDEntityDecl@@@@UBE_NXZ 1202d9c0 f i XMLValidator.obj
 0001:0002c9c0       ?hasMoreElements@?$NameIdPoolEnumerator@VDTDElementDecl@@@@UBE_NXZ 1202d9c0 f i XMLValidator.obj
 0001:0002c9e0       ?Reset@?$NameIdPoolEnumerator@VDTDEntityDecl@@@@UAEXXZ 1202d9e0 f i XMLValidator.obj
 0001:0002c9e0       ?Reset@?$NameIdPoolEnumerator@VDTDElementDecl@@@@UAEXXZ 1202d9e0 f i XMLValidator.obj
 0001:0002c9e0       ?Reset@?$NameIdPoolEnumerator@VXMLNotationDecl@@@@UAEXXZ 1202d9e0 f i XMLValidator.obj
 0001:0002c9f0       ?put@?$NameIdPool@VDTDElementDecl@@@@QAEIQAVDTDElementDecl@@@Z 1202d9f0 f i XMLValidator.obj
 0001:0002cbc0       ?put@?$NameIdPool@VXMLNotationDecl@@@@QAEIQAVXMLNotationDecl@@@Z 1202dbc0 f i XMLValidator.obj
 0001:0002cd80       ??1?$RefHash2KeysTableOfEnumerator@VSchemaAttDef@@@@UAE@XZ 1202dd80 f i XMLValidator.obj
 0001:0002ce00       ?nextElement@?$RefHash2KeysTableOfEnumerator@VSchemaAttDef@@@@UAEAAVSchemaAttDef@@XZ 1202de00 f i XMLValidator.obj
 0001:0002ce80       ?hasMoreElements@?$RefHash3KeysIdPoolEnumerator@VSchemaElementDecl@@@@UBE_NXZ 1202de80 f i XMLValidator.obj
 0001:0002cea0       ?nextElement@?$RefHash3KeysIdPoolEnumerator@VSchemaElementDecl@@@@UAEAAVSchemaElementDecl@@XZ 1202dea0 f i XMLValidator.obj
 0001:0002cef0       ?put@?$RefHash3KeysIdPool@VSchemaElementDecl@@@@QAEIPAXHHQAVSchemaElementDecl@@@Z 1202def0 f i XMLValidator.obj
 0001:0002d0a0       ?nextElement@?$NameIdPoolEnumerator@VXMLNotationDecl@@@@UAEAAVXMLNotationDecl@@XZ 1202e0a0 f i XMLValidator.obj
 0001:0002d0a0       ?nextElement@?$NameIdPoolEnumerator@VDTDElementDecl@@@@UAEAAVDTDElementDecl@@XZ 1202e0a0 f i XMLValidator.obj
 0001:0002d0a0       ?nextElement@?$NameIdPoolEnumerator@VDTDEntityDecl@@@@UAEAAVDTDEntityDecl@@XZ 1202e0a0 f i XMLValidator.obj
 0001:0002d0f0       ??_G?$NameIdPoolEnumerator@VDTDElementDecl@@@@UAEPAXI@Z 1202e0f0 f i XMLValidator.obj
 0001:0002d0f0       ??_E?$NameIdPoolEnumerator@VDTDElementDecl@@@@UAEPAXI@Z 1202e0f0 f i XMLValidator.obj
 0001:0002d110       ??_G?$NameIdPoolEnumerator@VXMLNotationDecl@@@@UAEPAXI@Z 1202e110 f i XMLValidator.obj
 0001:0002d110       ??_E?$NameIdPoolEnumerator@VXMLNotationDecl@@@@UAEPAXI@Z 1202e110 f i XMLValidator.obj
 0001:0002d130       ??_G?$RefHash2KeysTableOfEnumerator@VSchemaAttDef@@@@UAEPAXI@Z 1202e130 f i XMLValidator.obj
 0001:0002d130       ??_E?$RefHash2KeysTableOfEnumerator@VSchemaAttDef@@@@UAEPAXI@Z 1202e130 f i XMLValidator.obj
 0001:0002d1d0       ??_E?$RefHash3KeysIdPoolEnumerator@VSchemaElementDecl@@@@UAEPAXI@Z 1202e1d0 f i XMLValidator.obj
 0001:0002d1d0       ??_G?$RefHash3KeysIdPoolEnumerator@VSchemaElementDecl@@@@UAEPAXI@Z 1202e1d0 f i XMLValidator.obj
 0001:0002d290       ??_G?$NameIdPoolEnumerator@VDTDEntityDecl@@@@UAEPAXI@Z 1202e290 f i XMLValidator.obj
 0001:0002d290       ??_E?$NameIdPoolEnumerator@VDTDEntityDecl@@@@UAEPAXI@Z 1202e290 f i XMLValidator.obj
 0001:0002d2b0       ??0ElemStack@@QAE@XZ       1202e2b0 f   ElemStack.obj
 0001:0002d340       ??1ElemStack@@QAE@XZ       1202e340 f   ElemStack.obj
 0001:0002d3e0       ?addLevel@ElemStack@@QAEIXZ 1202e3e0 f   ElemStack.obj
 0001:0002d550       ?addLevel@ElemStack@@QAEIQAVXMLElementDecl@@I@Z 1202e550 f   ElemStack.obj
 0001:0002d6e0       ?popTop@ElemStack@@QAEPBUStackElem@1@XZ 1202e6e0 f   ElemStack.obj
 0001:0002d720       ?setElement@ElemStack@@QAEXQAVXMLElementDecl@@I@Z 1202e720 f   ElemStack.obj
 0001:0002d780       ?addChild@ElemStack@@QAEIQAVQName@@_N@Z 1202e780 f   ElemStack.obj
 0001:0002d890       ?topElement@ElemStack@@QBEPBUStackElem@1@XZ 1202e890 f   ElemStack.obj
 0001:0002d8d0       ?addPrefix@ElemStack@@QAEXQBGI@Z 1202e8d0 f   ElemStack.obj
 0001:0002da00       ?mapPrefixToURI@ElemStack@@QBEIQBGW4MapModes@1@AA_N@Z 1202ea00 f   ElemStack.obj
 0001:0002daf0       ?reset@ElemStack@@QAEXIIII@Z 1202eaf0 f   ElemStack.obj
 0001:0002db60       ?expandMap@ElemStack@@AAEXQAUStackElem@1@@Z 1202eb60 f   ElemStack.obj
 0001:0002dbf0       ?expandStack@ElemStack@@AAEXXZ 1202ebf0 f   ElemStack.obj
 0001:0002dc90       ??1XMLDocumentHandler@@UAE@XZ 1202ec90 f i ReaderMgr.obj
 0001:0002dca0       ??0XMLDocumentHandler@@IAE@XZ 1202eca0 f i ReaderMgr.obj
 0001:0002dcb0       ??_EXMLDocumentHandler@@UAEPAXI@Z 1202ecb0 f i ReaderMgr.obj
 0001:0002dd10       ??1XMLEntityHandler@@UAE@XZ 1202ed10 f i ReaderMgr.obj
 0001:0002dd20       ??0XMLEntityHandler@@IAE@XZ 1202ed20 f i ReaderMgr.obj
 0001:0002dd30       ??_EXMLEntityHandler@@UAEPAXI@Z 1202ed30 f i ReaderMgr.obj
 0001:0002dd90       ??0ReaderMgr@@QAE@XZ       1202ed90 f   ReaderMgr.obj
 0001:0002ddc0       ??_EReaderMgr@@UAEPAXI@Z   1202edc0 f i ReaderMgr.obj
 0001:0002de20       ??1ReaderMgr@@UAE@XZ       1202ee20 f   ReaderMgr.obj
 0001:0002df10       ?isEmpty@ReaderMgr@@QBE_NXZ 1202ef10 f   ReaderMgr.obj
 0001:0002df20       ?getNextChar@ReaderMgr@@QAEGXZ 1202ef20 f   ReaderMgr.obj
 0001:0002df60       ?getSpaces@ReaderMgr@@QAEXAAVXMLBuffer@@@Z 1202ef60 f   ReaderMgr.obj
 0001:0002dfa0       ?getUpToCharOrWS@ReaderMgr@@QAEXAAVXMLBuffer@@G@Z 1202efa0 f   ReaderMgr.obj
 0001:0002dfe0       ?peekNextChar@ReaderMgr@@QAEGXZ 1202efe0 f   ReaderMgr.obj
 0001:0002e020       ?skippedChar@ReaderMgr@@QAE_NG@Z 1202f020 f   ReaderMgr.obj
 0001:0002e060       ?skippedSpace@ReaderMgr@@QAE_NXZ 1202f060 f   ReaderMgr.obj
 0001:0002e0a0       ?skipIfQuote@ReaderMgr@@QAE_NAAG@Z 1202f0a0 f   ReaderMgr.obj
 0001:0002e0e0       ?skipPastSpaces@ReaderMgr@@QAE_NXZ 1202f0e0 f   ReaderMgr.obj
 0001:0002e130       ?skipQuotedString@ReaderMgr@@QAEXG@Z 1202f130 f   ReaderMgr.obj
 0001:0002e180       ?skipUntilIn@ReaderMgr@@QAEGQBG@Z 1202f180 f   ReaderMgr.obj
 0001:0002e210       ?skipUntilInOrWS@ReaderMgr@@QAEGQBG@Z 1202f210 f   ReaderMgr.obj
 0001:0002e2b0       ?atEOF@ReaderMgr@@QBE_NXZ  1202f2b0 f   ReaderMgr.obj
 0001:0002e2d0       ?cleanStackBackTo@ReaderMgr@@QAEXI@Z 1202f2d0 f   ReaderMgr.obj
 0001:0002e480       ?createReader@ReaderMgr@@QAEPAVXMLReader@@ABVInputSource@@_NW4RefFrom@2@W4Types@2@W4Sources@2@@Z 1202f480 f   ReaderMgr.obj
 0001:0002e5a0       ?createReader@ReaderMgr@@QAEPAVXMLReader@@QBG0_NW4RefFrom@2@W4Types@2@W4Sources@2@AAPAVInputSource@@@Z 1202f5a0 f   ReaderMgr.obj
 0001:0002e7e0       ?createIntEntReader@ReaderMgr@@QAEPAVXMLReader@@QBGW4RefFrom@2@W4Types@2@0I_N@Z 1202f7e0 f   ReaderMgr.obj
 0001:0002e8f0       ?getCurrentEncodingStr@ReaderMgr@@QBEPBGXZ 1202f8f0 f   ReaderMgr.obj
 0001:0002e910       ?getReaderDepth@ReaderMgr@@QBEIXZ 1202f910 f   ReaderMgr.obj
 0001:0002e930       ?getLastExtEntityInfo@ReaderMgr@@QBEXAAULastExtEntityInfo@1@@Z 1202f930 f   ReaderMgr.obj
 0001:0002e990       ?isScanningPERefOutOfLiteral@ReaderMgr@@QBE_NXZ 1202f990 f   ReaderMgr.obj
 0001:0002e9c0       ?pushReader@ReaderMgr@@QAE_NQAVXMLReader@@QAVXMLEntityDecl@@@Z 1202f9c0 f   ReaderMgr.obj
 0001:0002ec20       ?reset@ReaderMgr@@QAEXXZ   1202fc20 f   ReaderMgr.obj
 0001:0002ecd0       ?getPublicId@ReaderMgr@@UBEPBGXZ 1202fcd0 f   ReaderMgr.obj
 0001:0002ed00       ?getSystemId@ReaderMgr@@UBEPBGXZ 1202fd00 f   ReaderMgr.obj
 0001:0002ed30       ?getColumnNumber@ReaderMgr@@UBEHXZ 1202fd30 f   ReaderMgr.obj
 0001:0002ed60       ?getLineNumber@ReaderMgr@@UBEHXZ 1202fd60 f   ReaderMgr.obj
 0001:0002ed90       ?getLastExtEntity@ReaderMgr@@ABEPBVXMLReader@@AAPBVXMLEntityDecl@@@Z 1202fd90 f   ReaderMgr.obj
 0001:0002ef00       ?popReader@ReaderMgr@@AAE_NXZ 1202ff00 f   ReaderMgr.obj
 0001:0002f180       ?elementAt@?$RefVectorOf@VXMLEntityDecl@@@@QBEPBVXMLEntityDecl@@I@Z 12030180 f i ReaderMgr.obj
 0001:0002f1c0       ??0Attributes@@QAE@XZ      120301c0 f i VecAttributesImpl.obj
 0001:0002f1d0       ??1Attributes@@UAE@XZ      120301d0 f i VecAttributesImpl.obj
 0001:0002f1e0       ??_EAttributes@@UAEPAXI@Z  120301e0 f i VecAttributesImpl.obj
 0001:0002f240       ??0VecAttributesImpl@@QAE@XZ 12030240 f   VecAttributesImpl.obj
 0001:0002f260       ??_EVecAttributesImpl@@UAEPAXI@Z 12030260 f i VecAttributesImpl.obj
 0001:0002f2c0       ??1VecAttributesImpl@@UAE@XZ 120302c0 f   VecAttributesImpl.obj
 0001:0002f360       ?getURI@VecAttributesImpl@@UBEPBGI@Z 12030360 f   VecAttributesImpl.obj
 0001:0002f3c0       ?getLocalName@VecAttributesImpl@@UBEPBGI@Z 120303c0 f   VecAttributesImpl.obj
 0001:0002f420       ?getType@VecAttributesImpl@@UBEPBGI@Z 12030420 f   VecAttributesImpl.obj
 0001:0002f420       ?getType@VecAttrListImpl@@UBEPBGI@Z 12030420 f   VecAttributesImpl.obj
 0001:0002f480       ?getValue@VecAttrListImpl@@UBEPBGI@Z 12030480 f   VecAttributesImpl.obj
 0001:0002f480       ?getValue@VecAttributesImpl@@UBEPBGI@Z 12030480 f   VecAttributesImpl.obj
 0001:0002f4e0       ?getIndex@VecAttributesImpl@@UBEHQBG0@Z 120304e0 f   VecAttributesImpl.obj
 0001:0002f620       ?getIndex@VecAttributesImpl@@UBEHQBG@Z 12030620 f   VecAttributesImpl.obj
 0001:0002f6a0       ?getType@VecAttributesImpl@@UBEPBGQBG0@Z 120306a0 f   VecAttributesImpl.obj
 0001:0002f6d0       ?getType@VecAttributesImpl@@UBEPBGQBG@Z 120306d0 f   VecAttributesImpl.obj
 0001:0002f700       ?getValue@VecAttributesImpl@@UBEPBGQBG0@Z 12030700 f   VecAttributesImpl.obj
 0001:0002f730       ?getValue@VecAttributesImpl@@UBEPBGQBG@Z 12030730 f   VecAttributesImpl.obj
 0001:0002f760       ?setVector@VecAttributesImpl@@QAEXQBV?$RefVectorOf@VXMLAttr@@@@IQBVXMLScanner@@_N@Z 12030760 f   VecAttributesImpl.obj
 0001:0002f7e0       ??0AttributeList@@QAE@XZ   120307e0 f i VecAttrListImpl.obj
 0001:0002f7f0       ??1AttributeList@@UAE@XZ   120307f0 f i VecAttrListImpl.obj
 0001:0002f800       ??_EAttributeList@@UAEPAXI@Z 12030800 f i VecAttrListImpl.obj
 0001:0002f860       ??0VecAttrListImpl@@QAE@XZ 12030860 f   VecAttrListImpl.obj
 0001:0002f880       ??_EVecAttrListImpl@@UAEPAXI@Z 12030880 f i VecAttrListImpl.obj
 0001:0002f8e0       ??1VecAttrListImpl@@UAE@XZ 120308e0 f   VecAttrListImpl.obj
 0001:0002f980       ?getName@VecAttrListImpl@@UBEPBGI@Z 12030980 f   VecAttrListImpl.obj
 0001:0002f980       ?getQName@VecAttributesImpl@@UBEPBGI@Z 12030980 f   VecAttrListImpl.obj
 0001:0002f9e0       ?getType@VecAttrListImpl@@UBEPBGQBG@Z 120309e0 f   VecAttrListImpl.obj
 0001:0002fa70       ?getValue@VecAttrListImpl@@UBEPBGQBG@Z 12030a70 f   VecAttrListImpl.obj
 0001:0002faf0       ?getValue@VecAttrListImpl@@UBEPBGQBD@Z 12030af0 f   VecAttrListImpl.obj
 0001:0002fbe0       ?setVector@VecAttrListImpl@@QAEXQBV?$RefVectorOf@VXMLAttr@@@@I_N@Z 12030be0 f   VecAttrListImpl.obj
 0001:0002fc60       ?isFirstNameChar@XMLReader@@SA_NG@Z 12030c60 f   XMLReader.obj
 0001:0002fc90       ?isAllSpaces@XMLReader@@SA_NQBGI@Z 12030c90 f   XMLReader.obj
 0001:0002fcc0       ?containsWhiteSpace@XMLReader@@SA_NQBGI@Z 12030cc0 f   XMLReader.obj
 0001:0002fcf0       ?isPublicIdChar@XMLReader@@SA_NG@Z 12030cf0 f   XMLReader.obj
 0001:0002fd60       ?enableNELWS@XMLReader@@CAXXZ 12030d60 f   XMLReader.obj
 0001:0002fd80       ??0XMLReader@@QAE@QBG0QAVBinInputStream@@W4RefFrom@0@W4Types@0@W4Sources@0@_N@Z 12030d80 f   XMLReader.obj
 0001:0002ffd0       ??0XMLReader@@QAE@QBG0QAVBinInputStream@@0W4RefFrom@0@W4Types@0@W4Sources@0@_N@Z 12030fd0 f   XMLReader.obj
 0001:000302a0       ??1XMLReader@@QAE@XZ       120312a0 f   XMLReader.obj
 0001:000302f0       ?getSrcOffset@XMLReader@@QBEIXZ 120312f0 f   XMLReader.obj
 0001:00030350       ?refreshCharBuffer@XMLReader@@QAE_NXZ 12031350 f   XMLReader.obj
 0001:000305e0       ?getName@XMLReader@@QAE_NAAVXMLBuffer@@_N@Z 120315e0 f   XMLReader.obj
 0001:00030720       ?getNextChar@XMLReader@@QAE_NAAG@Z 12031720 f   XMLReader.obj
 0001:00030820       ?getSpaces@XMLReader@@QAE_NAAVXMLBuffer@@@Z 12031820 f   XMLReader.obj
 0001:00030930       ?getUpToCharOrWS@XMLReader@@QAE_NAAVXMLBuffer@@G@Z 12031930 f   XMLReader.obj
 0001:00030a50       ?peekNextChar@XMLReader@@QAE_NAAG@Z 12031a50 f   XMLReader.obj
 0001:00030ab0       ?skipIfQuote@XMLReader@@QAE_NAAG@Z 12031ab0 f   XMLReader.obj
 0001:00030b10       ?skipSpaces@XMLReader@@QAE_NAA_N@Z 12031b10 f   XMLReader.obj
 0001:00030c80       ?skippedChar@XMLReader@@QAE_NG@Z 12031c80 f   XMLReader.obj
 0001:00030cc0       ?skippedSpace@XMLReader@@QAE_NXZ 12031cc0 f   XMLReader.obj
 0001:00030da0       ?skippedString@XMLReader@@QAE_NQBG@Z 12031da0 f   XMLReader.obj
 0001:00030e40       ?peekString@XMLReader@@QAE_NQBG@Z 12031e40 f   XMLReader.obj
 0001:00030ec0       ?setEncoding@XMLReader@@QAE_NQBG@Z 12031ec0 f   XMLReader.obj
 0001:00031290       ?checkTable@XMLReader@@CA_NQBGG@Z 12032290 f   XMLReader.obj
 0001:000312f0       ?checkForSwapped@XMLReader@@AAEXXZ 120322f0 f   XMLReader.obj
 0001:00031310       ?doInitDecode@XMLReader@@AAEXXZ 12032310 f   XMLReader.obj
 0001:000316c0       ?refreshRawBuffer@XMLReader@@AAEXXZ 120326c0 f   XMLReader.obj
 0001:00031730       ?xcodeMoreChars@XMLReader@@AAEIQAGQAEI@Z 12032730 f   XMLReader.obj
 0001:00031800       ??0SAXException@@QAE@XZ    12032800 f i XMLScanner.obj
 0001:00031870       ??0SAXException@@QAE@QBG@Z 12032870 f i XMLScanner.obj
 0001:000318e0       ??0SAXException@@QAE@QBD@Z 120328e0 f i XMLScanner.obj
 0001:00031900       ??0SAXException@@QAE@ABV0@@Z 12032900 f i XMLScanner.obj
 0001:00031970       ??4SAXException@@QAEAAV0@ABV0@@Z 12032970 f i XMLScanner.obj
 0001:000319e0       ??_ESAXException@@UAEPAXI@Z 120329e0 f i XMLScanner.obj
 0001:00031a40       ??0DocTypeHandler@@QAE@XZ  12032a40 f i XMLScanner.obj
 0001:00031a50       ??1DocTypeHandler@@UAE@XZ  12032a50 f i XMLScanner.obj
 0001:00031a60       ??_EDocTypeHandler@@UAEPAXI@Z 12032a60 f i XMLScanner.obj
 0001:00031ac0       ??0DTDScanner@@QAE@ABV0@@Z 12032ac0 f i XMLScanner.obj
 0001:00031b30       ??4DTDScanner@@QAEAAV0@ABV0@@Z 12032b30 f i XMLScanner.obj
 0001:00031b90       ??_EDTDScanner@@UAEPAXI@Z  12032b90 f i XMLScanner.obj
 0001:00031bf0       ?setScannerInfo@DTDScanner@@QAEXQAVXMLScanner@@QAVReaderMgr@@QAVXMLBufferMgr@@@Z 12032bf0 f i XMLScanner.obj
 0001:00031c40       ?isReadingExternalEntity@DTDScanner@@AAE_NXZ 12032c40 f i XMLScanner.obj
 0001:00031c60       ?getSign@XMLBigDecimal@@UBEHXZ 12032c60 f i XMLScanner.obj
 0001:00031c60       ?size@XPathMatcherStack@@QBEIXZ 12032c60 f i XMLScanner.obj
 0001:00031c70       ?pushContext@XPathMatcherStack@@QAEXXZ 12032c70 f i XMLScanner.obj
 0001:00031d10       ?popContext@XPathMatcherStack@@QAEXXZ 12032d10 f i XMLScanner.obj
 0001:00031dd0       ?addMatcher@XPathMatcherStack@@QAEXQAVXPathMatcher@@@Z 12032dd0 f i XMLScanner.obj
 0001:00031ed0       ?getValueStoreFor@ValueStoreCache@@QAEPAVValueStore@@QBVIC_Field@@@Z 12032ed0 f i XMLScanner.obj
 0001:00031f60       ?getValueStoreFor@ValueStoreCache@@QAEPAVValueStore@@QBVIdentityConstraint@@@Z 12032f60 f i XMLScanner.obj
 0001:00031ff0       ?getGlobalValueStoreFor@ValueStoreCache@@QAEPAVValueStore@@QBVIdentityConstraint@@@Z 12032ff0 f i XMLScanner.obj
 0001:00032080       ??1SelectorMatcher@@UAE@XZ 12033080 f i XMLScanner.obj
 0001:00032090       ??_ESelectorMatcher@@UAEPAXI@Z 12033090 f i XMLScanner.obj
 0001:000320f0       ?getDatatypeValidatorAt@FieldValueMap@@QBEPAVDatatypeValidator@@I@Z 120330f0 f i XMLScanner.obj
 0001:00032140       ?getDatatypeValidatorFor@FieldValueMap@@QBEPAVDatatypeValidator@@QBVIC_Field@@@Z 12033140 f i XMLScanner.obj
 0001:000321a0       ?getValueAt@FieldValueMap@@QBEPAGI@Z 120331a0 f i XMLScanner.obj
 0001:000321a0       ?anyAttributeAt@XercesAttGroupInfo@@QAEPAVSchemaAttDef@@I@Z 120331a0 f i XMLScanner.obj
 0001:000321a0       ?anyAttributeAt@XercesAttGroupInfo@@QBEPBVSchemaAttDef@@I@Z 120331a0 f i XMLScanner.obj
 0001:000321f0       ?getValueFor@FieldValueMap@@QBEPAGQBVIC_Field@@@Z 120331f0 f i XMLScanner.obj
 0001:00032250       ?keyAt@FieldValueMap@@QBEPAVIC_Field@@I@Z 12033250 f i XMLScanner.obj
 0001:000322a0       ?size@FieldValueMap@@QBEIXZ 120332a0 f i XMLScanner.obj
 0001:000322b0       ?put@FieldValueMap@@QAEXQAVIC_Field@@QAVDatatypeValidator@@QBG@Z 120332b0 f i XMLScanner.obj
 0001:00032570       ?reinitMsgLoader@XMLScanner@@SAXXZ 12033570 f   XMLScanner.obj
 0001:00032590       ?reinitScannerMutex@XMLScanner@@SAXXZ 12033590 f   XMLScanner.obj
 0001:000325c0       ??0XMLScanner@@QAE@QAVXMLValidator@@@Z 120335c0 f   XMLScanner.obj
 0001:000328a0       ??0XMLScanner@@QAE@QAVXMLDocumentHandler@@QAVDocTypeHandler@@QAVXMLEntityHandler@@QAVXMLErrorReporter@@QAVXMLValidator@@@Z 120338a0 f   XMLScanner.obj
 0001:00032b90       ??1XMLScanner@@QAE@XZ      12033b90 f   XMLScanner.obj
 0001:00032df0       ?scanDocument@XMLScanner@@QAEXQBG_N@Z 12033df0 f   XMLScanner.obj
 0001:00032f10       ?scanDocument@XMLScanner@@QAEXQBD_N@Z 12033f10 f   XMLScanner.obj
 0001:00032f80       ?scanDocument@XMLScanner@@QAEXABVInputSource@@_N@Z 12033f80 f   XMLScanner.obj
 0001:00033180       ?scanFirst@XMLScanner@@QAE_NQBGAAVXMLPScanToken@@_N@Z 12034180 f   XMLScanner.obj
 0001:000332c0       ?scanFirst@XMLScanner@@QAE_NQBDAAVXMLPScanToken@@_N@Z 120342c0 f   XMLScanner.obj
 0001:00033330       ?scanFirst@XMLScanner@@QAE_NABVInputSource@@AAVXMLPScanToken@@_N@Z 12034330 f   XMLScanner.obj
 0001:000334f0       ?scanNext@XMLScanner@@QAE_NAAVXMLPScanToken@@@Z 120344f0 f   XMLScanner.obj
 0001:00033860       ?scanReset@XMLScanner@@QAEXAAVXMLPScanToken@@@Z 12034860 f   XMLScanner.obj
 0001:000338c0       ?commonInit@XMLScanner@@AAEXXZ 120348c0 f   XMLScanner.obj
 0001:00033db0       ?initValidator@XMLScanner@@AAEXPAVXMLValidator@@@Z 12034db0 f   XMLScanner.obj
 0001:00033df0       ?resetEntityDeclPool@XMLScanner@@AAEXXZ 12034df0 f   XMLScanner.obj
 0001:000341d0       ?resetURIStringPool@XMLScanner@@AAEXXZ 120351d0 f   XMLScanner.obj
 0001:00034240       ?emitError@XMLScanner@@QAEXW4Codes@XMLErrs@@@Z 12035240 f   XMLScanner.obj
 0001:00034480       ?emitError@XMLScanner@@QAEXW4Codes@XMLErrs@@QBG111@Z 12035480 f   XMLScanner.obj
 0001:000346e0       ?emitError@XMLScanner@@QAEXW4Codes@XMLErrs@@QBD111@Z 120356e0 f   XMLScanner.obj
 0001:00034940       ?getLastExtLocation@XMLScanner@@QAE_NQAGI0IAAI1@Z 12035940 f   XMLScanner.obj
 0001:00034a10       ?rawAttrScan@XMLScanner@@AAEIQBGAAV?$RefVectorOf@VKVStringPair@@@@AA_N@Z 12035a10 f   XMLScanner.obj
 0001:00034ec0       ?scanContent@XMLScanner@@AAE_N_N@Z 12035ec0 f   XMLScanner.obj
 0001:00035070       ?scanEndTag@XMLScanner@@AAEXAA_N@Z 12036070 f   XMLScanner.obj
 0001:000357f0       ??1XMLBufBid@@QAE@XZ       120367f0 f i XMLScanner.obj
 0001:00035800       ?scanMiscellaneous@XMLScanner@@AAEXXZ 12036800 f   XMLScanner.obj
 0001:000359b0       ?scanPI@XMLScanner@@AAEXXZ 120369b0 f   XMLScanner.obj
 0001:00035cc0       ?scanProlog@XMLScanner@@AAEXXZ 12036cc0 f   XMLScanner.obj
 0001:00035f80       ?scanStartTag@XMLScanner@@AAE_NAA_N@Z 12036f80 f   XMLScanner.obj
 0001:00036930       ?scanStartTagNS@XMLScanner@@AAE_NAA_N@Z 12037930 f   XMLScanner.obj
 0001:00037b20       ?scanXMLDecl@XMLScanner@@AAEXW4DeclTypes@1@@Z 12038b20 f   XMLScanner.obj
 0001:000380c0       ?getURIText@XMLScanner@@QBEPBGI@Z 120390c0 f   XMLScanner.obj
 0001:00038100       ?getURIText@XMLScanner@@QBE_NIAAVXMLBuffer@@@Z 12039100 f   XMLScanner.obj
 0001:00038150       ?resolveQName@XMLScanner@@QAEIQBGAAVXMLBuffer@@1W4MapModes@ElemStack@@@Z 12039150 f   XMLScanner.obj
 0001:00038290       ?checkXMLDecl@XMLScanner@@QAE_N_N@Z 12039290 f   XMLScanner.obj
 0001:00038450       ?resizeElemState@XMLScanner@@AAEXXZ 12039450 f   XMLScanner.obj
 0001:000384b0       ?activateSelectorFor@XMLScanner@@AAEXQAVIdentityConstraint@@@Z 120394b0 f   XMLScanner.obj
 0001:000385e0       ?setElementAt@?$RefVectorOf@G@@QAEXQAGI@Z 120395e0 f i XMLScanner.obj
 0001:00038640       ?removeAll@?$NameIdPool@VDTDEntityDecl@@@@QAEXXZ 12039640 f i XMLScanner.obj
 0001:000386b0       ?put@?$NameIdPool@VDTDEntityDecl@@@@QAEIQAVDTDEntityDecl@@@Z 120396b0 f i XMLScanner.obj
 0001:00038870       ?setElementAt@?$RefVectorOf@VXPathMatcher@@@@QAEXQAVXPathMatcher@@I@Z 12039870 f i XMLScanner.obj
 0001:000388d0       ??1?$RefVectorOf@VXMLAttr@@@@QAE@XZ 120398d0 f i XMLScanner.obj
 0001:00038920       ??1?$RefVectorOf@VKVStringPair@@@@QAE@XZ 12039920 f i XMLScanner.obj
 0001:00038970       ?findBucketElem@?$NameIdPool@VDTDEntityDecl@@@@AAEPAU?$NameIdPoolBucketElem@VDTDEntityDecl@@@@QBGAAI@Z 12039970 f i XMLScanner.obj
 0001:000389f0       ?removeAll@?$RefHashTableOf@VXMLRefInfo@@@@QAEXXZ 120399f0 f i XMLScanner.obj
 0001:00038a60       ??0ErrorHandler@@QAE@XZ    12039a60 f i XMLScanner2.obj
 0001:00038a70       ??1XMLInternalErrorHandler@@UAE@XZ 12039a70 f i XMLScanner2.obj
 0001:00038a70       ??1ErrorHandler@@UAE@XZ    12039a70 f i XMLScanner2.obj
 0001:00038a80       ??_EErrorHandler@@UAEPAXI@Z 12039a80 f i XMLScanner2.obj
 0001:00038ae0       ??0IDOM_Node@@IAE@XZ       12039ae0 f i XMLScanner2.obj
 0001:00038af0       ??0IDOM_Node@@IAE@ABV0@@Z  12039af0 f i XMLScanner2.obj
 0001:00038b00       ??1IDOM_Entity@@UAE@XZ     12039b00 f i XMLScanner2.obj
 0001:00038b00       ??1IDOM_Notation@@UAE@XZ   12039b00 f i XMLScanner2.obj
 0001:00038b00       ??1IDOM_Text@@UAE@XZ       12039b00 f i XMLScanner2.obj
 0001:00038b00       ??1IDOM_Element@@UAE@XZ    12039b00 f i XMLScanner2.obj
 0001:00038b00       ??1IDOM_CharacterData@@UAE@XZ 12039b00 f i XMLScanner2.obj
 0001:00038b00       ??1IDOM_EntityReference@@UAE@XZ 12039b00 f i XMLScanner2.obj
 0001:00038b00       ??1IDOM_Attr@@UAE@XZ       12039b00 f i XMLScanner2.obj
 0001:00038b00       ??1IDOM_DocumentType@@UAE@XZ 12039b00 f i XMLScanner2.obj
 0001:00038b00       ??1IDOM_ProcessingInstruction@@UAE@XZ 12039b00 f i XMLScanner2.obj
 0001:00038b00       ??1IDOM_DocumentFragment@@UAE@XZ 12039b00 f i XMLScanner2.obj
 0001:00038b00       ??1IDOM_Node@@UAE@XZ       12039b00 f i XMLScanner2.obj
 0001:00038b00       ??1IDOM_Document@@UAE@XZ   12039b00 f i XMLScanner2.obj
 0001:00038b00       ??1IDOM_CDATASection@@UAE@XZ 12039b00 f i XMLScanner2.obj
 0001:00038b00       ??1IDOM_Comment@@UAE@XZ    12039b00 f i XMLScanner2.obj
 0001:00038b10       ??_EIDOM_Node@@UAEPAXI@Z   12039b10 f i XMLScanner2.obj
 0001:00038b70       ??0IDOM_Document@@IAE@XZ   12039b70 f i XMLScanner2.obj
 0001:00038b80       ??0IDOM_Document@@IAE@ABV0@@Z 12039b80 f i XMLScanner2.obj
 0001:00038b90       ??0IDOM_DocumentType@@IAE@XZ 12039b90 f i XMLScanner2.obj
 0001:00038ba0       ??0IDOM_DocumentType@@IAE@ABV0@@Z 12039ba0 f i XMLScanner2.obj
 0001:00038bb0       ??_FIDOMParser@@QAEXXZ     12039bb0 f i XMLScanner2.obj
 0001:00038bc0       ??4DOM_DOMException@@QAEAAV0@ABV0@@Z 12039bc0 f i XMLScanner2.obj
 0001:00038be0       ??0EntityResolver@@QAE@XZ  12039be0 f i XMLScanner2.obj
 0001:00038bf0       ??1EntityResolver@@UAE@XZ  12039bf0 f i XMLScanner2.obj
 0001:00038c00       ??_EEntityResolver@@UAEPAXI@Z 12039c00 f i XMLScanner2.obj
 0001:00038c60       ??0IDOM_Element@@IAE@XZ    12039c60 f i XMLScanner2.obj
 0001:00038c70       ??0IDOM_Element@@IAE@ABV0@@Z 12039c70 f i XMLScanner2.obj
 0001:00038c80       ??0IDOM_Attr@@IAE@XZ       12039c80 f i XMLScanner2.obj
 0001:00038c90       ??0IDOM_Attr@@IAE@ABV0@@Z  12039c90 f i XMLScanner2.obj
 0001:00038ca0       ?getPrefix@TraverseSchema@@AAEPBGQBG@Z 12039ca0 f i XMLScanner2.obj
 0001:00038d00       ?getLocalPart@TraverseSchema@@AAEPBGQBG@Z 12039d00 f i XMLScanner2.obj
 0001:00038d90       ?isValidRefDeclaration@TraverseSchema@@AAE_NQBVIDOM_Element@@@Z 12039d90 f i XMLScanner2.obj
 0001:00038f40       ?getElementAttValue@TraverseSchema@@AAEPBGQBVIDOM_Element@@QBG_N@Z 12039f40 f i XMLScanner2.obj
 0001:00038fe0       ?getTargetNamespaceString@TraverseSchema@@AAEPBGQBVIDOM_Element@@@Z 12039fe0 f i XMLScanner2.obj
 0001:00039050       ?isBaseFromAnotherSchema@TraverseSchema@@AAE_NQBG@Z 1203a050 f i XMLScanner2.obj
 0001:000390b0       ?isAttrOrAttrGroup@TraverseSchema@@AAE_NQBVIDOM_Element@@@Z 1203a0b0 f i XMLScanner2.obj
 0001:00039100       ?genAnonTypeName@TraverseSchema@@AAEPBGQBG@Z 1203a100 f i XMLScanner2.obj
 0001:00039170       ?resetCurrentTypeNameStack@TraverseSchema@@AAEHH@Z 1203a170 f i XMLScanner2.obj
 0001:000391e0       ?copyWildCardData@TraverseSchema@@AAEXQBVSchemaAttDef@@QAV2@@Z 1203a1e0 f i XMLScanner2.obj
 0001:00039210       ?isAnyType@TraverseSchema@@AAE_NQBG@Z 1203a210 f i XMLScanner2.obj
 0001:00039320       ?getRedefineNewTypeName@TraverseSchema@@AAEXQBGHAAVXMLBuffer@@@Z 1203a320 f i XMLScanner2.obj
 0001:00039360       ?isOccurrenceRangeOK@TraverseSchema@@AAE_NHHHH@Z 1203a360 f i XMLScanner2.obj
 0001:00039390       ?isTopLevelComponent@TraverseSchema@@AAE_NQBVIDOM_Element@@@Z 1203a390 f i XMLScanner2.obj
 0001:000394a0       ??0XMLPScanToken@@QAE@ABV0@@Z 1203a4a0 f i XMLScanner2.obj
 0001:000394a0       ??4XMLBufferMgr@@QAEAAV0@ABV0@@Z 1203a4a0 f i XMLScanner2.obj
 0001:000394a0       ??4XMLBigInteger@@QAEAAV0@ABV0@@Z 1203a4a0 f i XMLScanner2.obj
 0001:000394a0       ??4EndOfEntityException@@QAEAAV0@ABV0@@Z 1203a4a0 f i XMLScanner2.obj
 0001:000394a0       ??4ThrowEOEJanitor@@QAEAAV0@ABV0@@Z 1203a4a0 f i XMLScanner2.obj
 0001:000394a0       ??4BitSet@@QAEAAV0@ABV0@@Z 1203a4a0 f i XMLScanner2.obj
 0001:000394a0       ??4IDNodeImpl@@QAEAAV0@ABV0@@Z 1203a4a0 f i XMLScanner2.obj
 0001:000394a0       ??0EndOfEntityException@@QAE@ABV0@@Z 1203a4a0 f i XMLScanner2.obj
 0001:000394a0       ??4SubstitutionGroupComparator@@QAEAAV0@ABV0@@Z 1203a4a0 f i XMLScanner2.obj
 0001:000394a0       ??4IDChildNode@@QAEAAV0@ABV0@@Z 1203a4a0 f i XMLScanner2.obj
 0001:000394c0       ??0EndOfEntityException@@QAE@PAVXMLEntityDecl@@I@Z 1203a4c0 f i XMLScanner2.obj
 0001:000394c0       ??0SubstitutionGroupComparator@@QAE@QAVGrammarResolver@@QAVXMLStringPool@@@Z 1203a4c0 f i XMLScanner2.obj
 0001:000394e0       ?buildAttList@XMLScanner@@AAEIABV?$RefVectorOf@VKVStringPair@@@@IPAVXMLElementDecl@@AAV?$RefVectorOf@VXMLAttr@@@@@Z 1203a4e0 f   XMLScanner2.obj
 0001:0003a310       ?checkIDRefs@XMLScanner@@AAEXXZ 1203b310 f   XMLScanner2.obj
 0001:0003a4f0       ?isLegalToken@XMLScanner@@AAE_NABVXMLPScanToken@@@Z 1203b4f0 f   XMLScanner2.obj
 0001:0003a510       ?normalizeAttValue@XMLScanner@@AAE_NQBVXMLAttDef@@QBGAAVXMLBuffer@@@Z 1203b510 f   XMLScanner2.obj
 0001:0003a740       ?normalizeAttRawValue@XMLScanner@@AAE_NQBG0AAVXMLBuffer@@@Z 1203b740 f   XMLScanner2.obj
 0001:0003a800       ?resolvePrefix@XMLScanner@@AAEIQBGW4MapModes@ElemStack@@@Z 1203b800 f   XMLScanner2.obj
 0001:0003a880       ?resolvePrefix@XMLScanner@@AAEIQBGAAVXMLBuffer@@W4MapModes@ElemStack@@@Z 1203b880 f   XMLScanner2.obj
 0001:0003a910       ?scanReset@XMLScanner@@AAEXABVInputSource@@@Z 1203b910 f   XMLScanner2.obj
 0001:0003ad00       ?sendCharData@XMLScanner@@AAEXAAVXMLBuffer@@@Z 1203bd00 f   XMLScanner2.obj
 0001:0003b0e0       ?senseNextToken@XMLScanner@@AAE?AW4XMLTokens@1@AAI@Z 1203c0e0 f   XMLScanner2.obj
 0001:0003b280       ?updateNSMap@XMLScanner@@AAEXQBG0@Z 1203c280 f   XMLScanner2.obj
 0001:0003b3c0       ?scanRawAttrListforNameSpaces@XMLScanner@@AAEXPBV?$RefVectorOf@VKVStringPair@@@@H@Z 1203c3c0 f   XMLScanner2.obj
 0001:0003b8c0       ??_G?$RefVectorOf@G@@QAEPAXI@Z 1203c8c0 f i XMLScanner2.obj
 0001:0003b910       ?parseSchemaLocation@XMLScanner@@AAEXQBG@Z 1203c910 f   XMLScanner2.obj
 0001:0003ba00       ?resolveSchemaGrammar@XMLScanner@@AAEXQBG0@Z 1203ca00 f   XMLScanner2.obj
 0001:0003bf60       ??_EXMLInternalErrorHandler@@UAEPAXI@Z 1203cf60 f i XMLScanner2.obj
 0001:0003bf60       ??_GXMLInternalErrorHandler@@UAEPAXI@Z 1203cf60 f i XMLScanner2.obj
 0001:0003bf80       ?warning@XMLInternalErrorHandler@@UAEXABVSAXParseException@@@Z 1203cf80 f i XMLScanner2.obj
 0001:0003bfa0       ?error@XMLInternalErrorHandler@@UAEXABVSAXParseException@@@Z 1203cfa0 f i XMLScanner2.obj
 0001:0003bfc0       ?fatalError@XMLInternalErrorHandler@@UAEXABVSAXParseException@@@Z 1203cfc0 f i XMLScanner2.obj
 0001:0003bfe0       ?resetErrors@XMLInternalErrorHandler@@UAEXXZ 1203cfe0 f i XMLScanner2.obj
 0001:0003bff0       ?getQuotedString@XMLScanner@@AAE_NAAVXMLBuffer@@@Z 1203cff0 f   XMLScanner2.obj
 0001:0003c060       ?basicAttrValueScan@XMLScanner@@AAE_NQBGAAVXMLBuffer@@@Z 1203d060 f   XMLScanner2.obj
 0001:0003c2b0       ?scanAttValue@XMLScanner@@AAE_NQBVXMLAttDef@@AAVXMLBuffer@@@Z 1203d2b0 f   XMLScanner2.obj
 0001:0003c640       ?scanCDSection@XMLScanner@@AAEXXZ 1203d640 f   XMLScanner2.obj
 0001:0003c8c0       ?scanCharData@XMLScanner@@AAEXAAVXMLBuffer@@@Z 1203d8c0 f   XMLScanner2.obj
 0001:0003cc00       ?scanCharRef@XMLScanner@@AAE_NAAG0@Z 1203dc00 f   XMLScanner2.obj
 0001:0003ce30       ?scanComment@XMLScanner@@AAEXXZ 1203de30 f   XMLScanner2.obj
 0001:0003d070       ?scanEq@XMLScanner@@AAE_NXZ 1203e070 f   XMLScanner2.obj
 0001:0003d0a0       ?scanEntityRef@XMLScanner@@AAE?AW4EntityExpRes@1@_NAAG1AA_N@Z 1203e0a0 f   XMLScanner2.obj
 0001:0003d520       ?scanUpToWSOr@XMLScanner@@AAEIAAVXMLBuffer@@G@Z 1203e520 f   XMLScanner2.obj
 0001:0003d540       ?switchGrammar@XMLScanner@@AAE_NI@Z 1203e540 f   XMLScanner2.obj
 0001:0003d700       ?switchGrammar@XMLScanner@@AAE_NQBG@Z 1203e700 f   XMLScanner2.obj
 0001:0003d800       ?laxElementValidation@XMLScanner@@AAE_NPAVQName@@PAVContentLeafNameTypeVector@@QBVXMLContentModel@@I@Z 1203e800 f   XMLScanner2.obj
 0001:0003d9f0       ?anyAttributeValidation@XMLScanner@@AAE_NPAVSchemaAttDef@@IAA_N1@Z 1203e9f0 f   XMLScanner2.obj
 0001:0003dad0       ??1?$RefHashTableOfEnumerator@VXMLRefInfo@@@@QAE@XZ 1203ead0 f i XMLScanner2.obj
 0001:0003db80       ??0DocumentHandler@@QAE@XZ 1203eb80 f i Dummy.obj
 0001:0003db90       ??1DocumentHandler@@UAE@XZ 1203eb90 f i Dummy.obj
 0001:0003dba0       ??_EDocumentHandler@@UAEPAXI@Z 1203eba0 f i Dummy.obj
 0001:0003dc00       ??0DTDHandler@@QAE@XZ      1203ec00 f i Dummy.obj
 0001:0003dc10       ??1DTDHandler@@UAE@XZ      1203ec10 f i Dummy.obj
 0001:0003dc20       ??_EDTDHandler@@UAEPAXI@Z  1203ec20 f i Dummy.obj
 0001:0003dc80       ??0HandlerBase@@QAE@XZ     1203ec80 f i Dummy.obj
 0001:0003dcc0       ??1HandlerBase@@UAE@XZ     1203ecc0 f i Dummy.obj
 0001:0003dd10       ??_EHandlerBase@@UAEPAXI@Z 1203ed10 f i Dummy.obj
 0001:0003dd70       ?fatalError@HandlerBase@@UAEXABVSAXParseException@@@Z 1203ed70 f i Dummy.obj
 0001:0003dd70       ?fatalError@DefaultHandler@@UAEXABVSAXParseException@@@Z 1203ed70 f i Dummy.obj
 0001:0003dd90       ?externalEntityDecl@DefaultHandler@@UAEXQBG00@Z 1203ed90 f i Dummy.obj
 0001:0003dd90       ?endElement@DefaultHandler@@UAEXQBG00@Z 1203ed90 f i Dummy.obj
 0001:0003dd90       ?startDTD@DefaultHandler@@UAEXQBG00@Z 1203ed90 f i Dummy.obj
 0001:0003dd90       ?notationDecl@DefaultHandler@@UAEXQBG00@Z 1203ed90 f i Dummy.obj
 0001:0003dd90       ?notationDecl@HandlerBase@@UAEXQBG00@Z 1203ed90 f i Dummy.obj
 0001:0003dda0       ?resolveEntity@HandlerBase@@UAEPAVInputSource@@QBG0@Z 1203eda0 f i Dummy.obj
 0001:0003dda0       ?resolveEntity@DefaultHandler@@UAEPAVInputSource@@QBG0@Z 1203eda0 f i Dummy.obj
 0001:0003ddb0       ?unparsedEntityDecl@DefaultHandler@@UAEXQBG000@Z 1203edb0 f i Dummy.obj
 0001:0003ddb0       ?unparsedEntityDecl@HandlerBase@@UAEXQBG000@Z 1203edb0 f i Dummy.obj
 0001:0003ddb0       ?startElement@DefaultHandler@@UAEXQBG00ABVAttributes@@@Z 1203edb0 f i Dummy.obj
 0001:0003ddc0       ?startPrefixMapping@DefaultHandler@@UAEXQBG0@Z 1203edc0 f i Dummy.obj
 0001:0003ddc0       ?comment@DefaultHandler@@UAEXQBGI@Z 1203edc0 f i Dummy.obj
 0001:0003ddc0       ?ignorableWhitespace@HandlerBase@@UAEXQBGI@Z 1203edc0 f i Dummy.obj
 0001:0003ddc0       ?internalEntityDecl@DefaultHandler@@UAEXQBG0@Z 1203edc0 f i Dummy.obj
 0001:0003ddc0       ?processingInstruction@DefaultHandler@@UAEXQBG0@Z 1203edc0 f i Dummy.obj
 0001:0003ddc0       ?ignorableWhitespace@DefaultHandler@@UAEXQBGI@Z 1203edc0 f i Dummy.obj
 0001:0003ddc0       ?processingInstruction@HandlerBase@@UAEXQBG0@Z 1203edc0 f i Dummy.obj
 0001:0003ddc0       ?elementDecl@DefaultHandler@@UAEXQBG0@Z 1203edc0 f i Dummy.obj
 0001:0003ddc0       ?characters@DefaultHandler@@UAEXQBGI@Z 1203edc0 f i Dummy.obj
 0001:0003ddc0       ?characters@HandlerBase@@UAEXQBGI@Z 1203edc0 f i Dummy.obj
 0001:0003ddc0       ?startElement@HandlerBase@@UAEXQBGAAVAttributeList@@@Z 1203edc0 f i Dummy.obj
 0001:0003ddd0       ??0Parser@@QAE@XZ          1203edd0 f i Dummy.obj
 0001:0003dde0       ??1Parser@@UAE@XZ          1203ede0 f i Dummy.obj
 0001:0003ddf0       ??_EParser@@UAEPAXI@Z      1203edf0 f i Dummy.obj
 0001:0003de50       ??_EHandlerBase@@W3AEPAXI@Z 1203ee50 f i Dummy.obj
 0001:0003de60       ??_EHandlerBase@@W7AEPAXI@Z 1203ee60 f i Dummy.obj
 0001:0003de70       ??_EHandlerBase@@WM@AEPAXI@Z 1203ee70 f i Dummy.obj
 0001:0003de80       ??1InputSource@@UAE@XZ     1203ee80 f   InputSource.obj
 0001:0003deb0       ??_EInputSource@@UAEPAXI@Z 1203eeb0 f i InputSource.obj
 0001:0003df30       ?setEncoding@InputSource@@QAEXQBG@Z 1203ef30 f   InputSource.obj
 0001:0003dfa0       ?setPublicId@InputSource@@QAEXQBG@Z 1203efa0 f   InputSource.obj
 0001:0003e010       ?setSystemId@InputSource@@QAEXQBG@Z 1203f010 f   InputSource.obj
 0001:0003e080       ??0InputSource@@IAE@XZ     1203f080 f   InputSource.obj
 0001:0003e0a0       ??0InputSource@@IAE@QBG@Z  1203f0a0 f   InputSource.obj
 0001:0003e110       ??0InputSource@@IAE@QBG0@Z 1203f110 f   InputSource.obj
 0001:0003e1d0       ??0InputSource@@IAE@QBD@Z  1203f1d0 f   InputSource.obj
 0001:0003e200       ??0InputSource@@IAE@QBD0@Z 1203f200 f   InputSource.obj
 0001:0003e240       ??0SAXNotSupportedException@@QAE@XZ 1203f240 f   SAXException.obj
 0001:0003e2b0       ??_ESAXNotSupportedException@@UAEPAXI@Z 1203f2b0 f i SAXException.obj
 0001:0003e2b0       ??_GSAXNotSupportedException@@UAEPAXI@Z 1203f2b0 f i SAXException.obj
 0001:0003e2b0       ??_ESAXNotRecognizedException@@UAEPAXI@Z 1203f2b0 f i SAXException.obj
 0001:0003e2b0       ??_GSAXNotRecognizedException@@UAEPAXI@Z 1203f2b0 f i SAXException.obj
 0001:0003e2d0       ??1SAXNotSupportedException@@UAE@XZ 1203f2d0 f i SAXException.obj
 0001:0003e2d0       ??1SAXException@@UAE@XZ    1203f2d0 f i SAXException.obj
 0001:0003e2d0       ??1SAXNotRecognizedException@@UAE@XZ 1203f2d0 f i SAXException.obj
 0001:0003e2f0       ??0SAXNotSupportedException@@QAE@QBD@Z 1203f2f0 f   SAXException.obj
 0001:0003e310       ??0SAXNotRecognizedException@@QAE@QBD@Z 1203f310 f   SAXException.obj
 0001:0003e330       ??0SAXParseException@@QAE@QBGABVLocator@@@Z 1203f330 f   SAXParseException.obj
 0001:0003e490       ??_ESAXParseException@@UAEPAXI@Z 1203f490 f i SAXParseException.obj
 0001:0003e4f0       ??0SAXParseException@@QAE@QBG00II@Z 1203f4f0 f   SAXParseException.obj
 0001:0003e640       ??0SAXParseException@@QAE@ABV0@@Z 1203f640 f   SAXParseException.obj
 0001:0003e790       ??1SAXParseException@@UAE@XZ 1203f790 f   SAXParseException.obj
 0001:0003e800       ??4SAXParseException@@QAEAAV0@ABV0@@Z 1203f800 f   SAXParseException.obj
 0001:0003e930       ??_FDOMParser@@QAEXXZ      1203f930 f i DOMParser.obj
 0001:0003e940       ?expandSystemId@IDOMParser@@UAE_NQBGAAVXMLBuffer@@@Z 1203f940 f i DOMParser.obj
 0001:0003e940       ?expandSystemId@DOMParser@@UAE_NQBGAAVXMLBuffer@@@Z 1203f940 f i DOMParser.obj
 0001:0003e950       ?getDocument@DOMParser@@QAE?AVDOM_Document@@XZ 1203f950 f i DOMParser.obj
 0001:0003e970       ?getCreateEntityReferenceNodes@DOMParser@@QBE_NXZ 1203f970 f i DOMParser.obj
 0001:0003e970       ?getExpandEntityReferences@IDOMParser@@QBE_NXZ 1203f970 f i DOMParser.obj
 0001:0003e970       ?getExpandEntityReferences@DOMParser@@QBE_NXZ 1203f970 f i DOMParser.obj
 0001:0003e970       ?getCreateEntityReferenceNodes@IDOMParser@@QBE_NXZ 1203f970 f i DOMParser.obj
 0001:0003e980       ?getIncludeIgnorableWhitespace@IDOMParser@@QBE_NXZ 1203f980 f i DOMParser.obj
 0001:0003e980       ?getIncludeIgnorableWhitespace@DOMParser@@QBE_NXZ 1203f980 f i DOMParser.obj
 0001:0003e990       ?getToCreateXMLDeclTypeNode@DOMParser@@QBE_NXZ 1203f990 f i DOMParser.obj
 0001:0003e9a0       ?setExpandEntityReferences@IDOMParser@@QAEX_N@Z 1203f9a0 f i DOMParser.obj
 0001:0003e9a0       ?setExpandEntityReferences@DOMParser@@QAEX_N@Z 1203f9a0 f i DOMParser.obj
 0001:0003e9a0       ?setCreateEntityReferenceNodes@IDOMParser@@QAEX_N@Z 1203f9a0 f i DOMParser.obj
 0001:0003e9a0       ?setCreateEntityReferenceNodes@DOMParser@@QAEX_N@Z 1203f9a0 f i DOMParser.obj
 0001:0003e9b0       ?setIncludeIgnorableWhitespace@IDOMParser@@QAEX_N@Z 1203f9b0 f i DOMParser.obj
 0001:0003e9b0       ?setIncludeIgnorableWhitespace@DOMParser@@QAEX_N@Z 1203f9b0 f i DOMParser.obj
 0001:0003e9c0       ?setToCreateXMLDeclTypeNode@DOMParser@@QAEX_N@Z 1203f9c0 f i DOMParser.obj
 0001:0003e9d0       ?getCurrentNode@DOMParser@@IAE?AVDOM_Node@@XZ 1203f9d0 f i DOMParser.obj
 0001:0003e9f0       ?setCurrentNode@DOMParser@@IAEXVDOM_Node@@@Z 1203f9f0 f i DOMParser.obj
 0001:0003ea40       ?setDocument@DOMParser@@IAEXVDOM_Document@@@Z 1203fa40 f i DOMParser.obj
 0001:0003ea90       ??0RefCountedImpl@@QAE@ABV0@@Z 1203fa90 f i DOMParser.obj
 0001:0003eab0       ??_ERefCountedImpl@@UAEPAXI@Z 1203fab0 f i DOMParser.obj
 0001:0003eb10       ??0NodeListImpl@@QAE@ABV0@@Z 1203fb10 f i DOMParser.obj
 0001:0003eb30       ??4RefCountedImpl@@QAEAAV0@ABV0@@Z 1203fb30 f i DOMParser.obj
 0001:0003eb30       ??4NodeListImpl@@QAEAAV0@ABV0@@Z 1203fb30 f i DOMParser.obj
 0001:0003eb40       ??_ENodeListImpl@@UAEPAXI@Z 1203fb40 f i DOMParser.obj
 0001:0003eba0       ?isReadOnly@NodeImpl@@QBE_NXZ 1203fba0 f i DOMParser.obj
 0001:0003ebc0       ?isReadOnly@NodeImpl@@QAEX_N@Z 1203fbc0 f i DOMParser.obj
 0001:0003ec00       ?needsSyncData@NodeImpl@@QBE_NXZ 1203fc00 f i DOMParser.obj
 0001:0003ec20       ?needsSyncData@NodeImpl@@QAEX_N@Z 1203fc20 f i DOMParser.obj
 0001:0003ec60       ?needsSyncChildren@NodeImpl@@QBE_NXZ 1203fc60 f i DOMParser.obj
 0001:0003ec80       ?needsSyncChildren@NodeImpl@@QAEX_N@Z 1203fc80 f i DOMParser.obj
 0001:0003ecc0       ?isOwned@NodeImpl@@QBE_NXZ 1203fcc0 f i DOMParser.obj
 0001:0003ece0       ?isOwned@NodeImpl@@QAEX_N@Z 1203fce0 f i DOMParser.obj
 0001:0003ed20       ?isFirstChild@NodeImpl@@QBE_NXZ 1203fd20 f i DOMParser.obj
 0001:0003ed40       ?isFirstChild@NodeImpl@@QAEX_N@Z 1203fd40 f i DOMParser.obj
 0001:0003ed80       ?isSpecified@NodeImpl@@QBE_NXZ 1203fd80 f i DOMParser.obj
 0001:0003eda0       ?isSpecified@NodeImpl@@QAEX_N@Z 1203fda0 f i DOMParser.obj
 0001:0003ede0       ?ignorableWhitespace@NodeImpl@@QBE_NXZ 1203fde0 f i DOMParser.obj
 0001:0003ee00       ?ignorableWhitespace@NodeImpl@@QAEX_N@Z 1203fe00 f i DOMParser.obj
 0001:0003ee40       ?setValueCalled@NodeImpl@@QBE_NXZ 1203fe40 f i DOMParser.obj
 0001:0003ee60       ?setValueCalled@NodeImpl@@QAEX_N@Z 1203fe60 f i DOMParser.obj
 0001:0003eea0       ?isIdAttr@NodeImpl@@QBE_NXZ 1203fea0 f i DOMParser.obj
 0001:0003eec0       ?isIdAttr@NodeImpl@@QAEX_N@Z 1203fec0 f i DOMParser.obj
 0001:0003ef00       ?hasUserData@NodeImpl@@QBE_NXZ 1203ff00 f i DOMParser.obj
 0001:0003ef20       ?hasUserData@NodeImpl@@QAEX_N@Z 1203ff20 f i DOMParser.obj
 0001:0003ef60       ?hasStringValue@NodeImpl@@QBE_NXZ 1203ff60 f i DOMParser.obj
 0001:0003ef80       ?hasStringValue@NodeImpl@@QAEX_N@Z 1203ff80 f i DOMParser.obj
 0001:0003efc0       ??4NodeImpl@@QAEAAV0@ABV0@@Z 1203ffc0 f i DOMParser.obj
 0001:0003efe0       ??4ChildNode@@QAEAAV0@ABV0@@Z 1203ffe0 f i DOMParser.obj
 0001:0003f010       ??4ElementDefinitionImpl@@QAEAAV0@ABV0@@Z 12040010 f i DOMParser.obj
 0001:0003f010       ??4AttrImpl@@QAEAAV0@ABV0@@Z 12040010 f i DOMParser.obj
 0001:0003f050       ??_OAttrImpl@@QAEXABV0@@Z  12040050 f i DOMParser.obj
 0001:0003f060       ??0NamedNodeMapImpl@@QAE@ABV0@@Z 12040060 f i DOMParser.obj
 0001:0003f090       ??4NamedNodeMapImpl@@QAEAAV0@ABV0@@Z 12040090 f i DOMParser.obj
 0001:0003f0c0       ??_ENamedNodeMapImpl@@UAEPAXI@Z 120400c0 f i DOMParser.obj
 0001:0003f120       ??0AttrMapImpl@@QAE@ABV0@@Z 12040120 f i DOMParser.obj
 0001:0003f160       ??4AttrMapImpl@@QAEAAV0@ABV0@@Z 12040160 f i DOMParser.obj
 0001:0003f190       ??_EAttrMapImpl@@UAEPAXI@Z 12040190 f i DOMParser.obj
 0001:0003f1f0       ?hasDefaults@AttrMapImpl@@UAE_NXZ 120401f0 f i DOMParser.obj
 0001:0003f200       ?hasDefaults@AttrMapImpl@@UAEX_N@Z 12040200 f i DOMParser.obj
 0001:0003f210       ??4ParentNode@@QAEAAV0@ABV0@@Z 12040210 f i DOMParser.obj
 0001:0003f210       ??4DocumentFragmentImpl@@QAEAAV0@ABV0@@Z 12040210 f i DOMParser.obj
 0001:0003f260       ??1ParentNode@@UAE@XZ      12040260 f i DOMParser.obj
 0001:0003f270       ??_OElementImpl@@QAEXABV0@@Z 12040270 f i DOMParser.obj
 0001:0003f280       ??4AttrNSImpl@@QAEAAV0@ABV0@@Z 12040280 f i DOMParser.obj
 0001:0003f2d0       ??1AttrNSImpl@@UAE@XZ      120402d0 f i DOMParser.obj
 0001:0003f330       ??_OAttrNSImpl@@QAEXABV0@@Z 12040330 f i DOMParser.obj
 0001:0003f340       ??_OCharacterDataImpl@@QAEXABV0@@Z 12040340 f i DOMParser.obj
 0001:0003f350       ??_OTextImpl@@QAEXABV0@@Z  12040350 f i DOMParser.obj
 0001:0003f360       ??4XMLDeclImpl@@QAEAAV0@ABV0@@Z 12040360 f i DOMParser.obj
 0001:0003f3c0       ??_OXMLDeclImpl@@QAEXABV0@@Z 120403c0 f i DOMParser.obj
 0001:0003f3d0       ?setErrorChecking@DocumentImpl@@QAEX_N@Z 120403d0 f i DOMParser.obj
 0001:0003f3e0       ?getErrorChecking@DocumentImpl@@QAE_NXZ 120403e0 f i DOMParser.obj
 0001:0003f3f0       ??0DocumentImpl@@QAE@ABV0@@Z 120403f0 f i DOMParser.obj
 0001:0003f450       ??4DocumentImpl@@QAEAAV0@ABV0@@Z 12040450 f i DOMParser.obj
 0001:0003f4e0       ??_EDocumentImpl@@UAEPAXI@Z 120404e0 f i DOMParser.obj
 0001:0003f540       ??4DocumentTypeImpl@@QAEAAV0@ABV0@@Z 12040540 f i DOMParser.obj
 0001:0003f5e0       ??_ODocumentTypeImpl@@QAEXABV0@@Z 120405e0 f i DOMParser.obj
 0001:0003f5f0       ??4EntityReferenceImpl@@QAEAAV0@ABV0@@Z 120405f0 f i DOMParser.obj
 0001:0003f5f0       ??4ElementImpl@@QAEAAV0@ABV0@@Z 120405f0 f i DOMParser.obj
 0001:0003f650       ??_OEntityReferenceImpl@@QAEXABV0@@Z 12040650 f i DOMParser.obj
 0001:0003f660       ??4EntityImpl@@QAEAAV0@ABV0@@Z 12040660 f i DOMParser.obj
 0001:0003f6f0       ??_OEntityImpl@@QAEXABV0@@Z 120406f0 f i DOMParser.obj
 0001:0003f700       ??4NotationImpl@@QAEAAV0@ABV0@@Z 12040700 f i DOMParser.obj
 0001:0003f750       ??_ONotationImpl@@QAEXABV0@@Z 12040750 f i DOMParser.obj
 0001:0003f760       ??0DOMParser@@QAE@QAVXMLValidator@@@Z 12040760 f   DOMParser.obj
 0001:0003f930       ??_EDOMParser@@UAEPAXI@Z   12040930 f i DOMParser.obj
 0001:0003f990       ??1DOMParser@@UAE@XZ       12040990 f   DOMParser.obj
 0001:0003fab0       ?reset@DOMParser@@QAEXXZ   12040ab0 f   DOMParser.obj
 0001:0003fb40       ?setDoNamespaces@IDOMParser@@QAEX_N@Z 12040b40 f   DOMParser.obj
 0001:0003fb40       ?setDoNamespaces@DOMParser@@QAEX_N@Z 12040b40 f   DOMParser.obj
 0001:0003fb50       ?setErrorHandler@IDOMParser@@QAEXQAVErrorHandler@@@Z 12040b50 f   DOMParser.obj
 0001:0003fb50       ?setErrorHandler@DOMParser@@QAEXQAVErrorHandler@@@Z 12040b50 f   DOMParser.obj
 0001:0003fbd0       ?setEntityResolver@IDOMParser@@QAEXQAVEntityResolver@@@Z 12040bd0 f   DOMParser.obj
 0001:0003fbd0       ?setEntityResolver@DOMParser@@QAEXQAVEntityResolver@@@Z 12040bd0 f   DOMParser.obj
 0001:0003fc20       ?setExternalSchemaLocation@DOMParser@@QAEXQBG@Z 12040c20 f   DOMParser.obj
 0001:0003fc20       ?setExternalSchemaLocation@IDOMParser@@QAEXQBG@Z 12040c20 f   DOMParser.obj
 0001:0003fca0       ?setExternalNoNamespaceSchemaLocation@IDOMParser@@QAEXQBG@Z 12040ca0 f   DOMParser.obj
 0001:0003fca0       ?setExternalNoNamespaceSchemaLocation@DOMParser@@QAEXQBG@Z 12040ca0 f   DOMParser.obj
 0001:0003fd20       ?parse@DOMParser@@QAEXABVInputSource@@_N@Z 12040d20 f   DOMParser.obj
 0001:0003fdd0       ?parse@DOMParser@@QAEXQBG_N@Z 12040dd0 f   DOMParser.obj
 0001:0003fe80       ?parse@DOMParser@@QAEXQBD_N@Z 12040e80 f   DOMParser.obj
 0001:0003ff30       ?parseFirst@DOMParser@@QAE_NQBGAAVXMLPScanToken@@_N@Z 12040f30 f   DOMParser.obj
 0001:0003ff80       ?parseFirst@DOMParser@@QAE_NQBDAAVXMLPScanToken@@_N@Z 12040f80 f   DOMParser.obj
 0001:0003ffd0       ?parseFirst@DOMParser@@QAE_NABVInputSource@@AAVXMLPScanToken@@_N@Z 12040fd0 f   DOMParser.obj
 0001:00040020       ?parseNext@IDOMParser@@QAE_NAAVXMLPScanToken@@@Z 12041020 f   DOMParser.obj
 0001:00040020       ?parseNext@DOMParser@@QAE_NAAVXMLPScanToken@@@Z 12041020 f   DOMParser.obj
 0001:00040030       ?parseReset@DOMParser@@QAEXAAVXMLPScanToken@@@Z 12041030 f   DOMParser.obj
 0001:00040050       ?error@DOMParser@@UAEXIQBGW4ErrTypes@XMLErrorReporter@@000II@Z 12041050 f   DOMParser.obj
 0001:00040110       ?resolveEntity@DOMParser@@UAEPAVInputSource@@QBG0@Z 12041110 f   DOMParser.obj
 0001:00040110       ?resolveEntity@IDOMParser@@UAEPAVInputSource@@QBG0@Z 12041110 f   DOMParser.obj
 0001:00040130       ?docCharacters@DOMParser@@UAEXQBGI_N@Z 12041130 f   DOMParser.obj
 0001:00040340       ?docComment@DOMParser@@UAEXQBG@Z 12041340 f   DOMParser.obj
 0001:000403e0       ?docPI@DOMParser@@UAEXQBG0@Z 120413e0 f   DOMParser.obj
 0001:000404b0       ?endEntityReference@DOMParser@@UAEXABVXMLEntityDecl@@@Z 120414b0 f   DOMParser.obj
 0001:00040520       ?endElement@DOMParser@@UAEXABVXMLElementDecl@@I_N@Z 12041520 f   DOMParser.obj
 0001:000405a0       ?ignorableWhitespace@DOMParser@@UAEXQBGI_N@Z 120415a0 f   DOMParser.obj
 0001:00040750       ?resetDocument@DOMParser@@UAEXXZ 12041750 f   DOMParser.obj
 0001:00040760       ?startDocument@DOMParser@@UAEXXZ 12041760 f   DOMParser.obj
 0001:00040790       ?endDocument@DOMParser@@UAEXXZ 12041790 f   DOMParser.obj
 0001:000407a0       ?startElement@DOMParser@@UAEXABVXMLElementDecl@@IQBGABV?$RefVectorOf@VXMLAttr@@@@I_N3@Z 120417a0 f   DOMParser.obj
 0001:00040e10       ?startEntityReference@DOMParser@@UAEXABVXMLEntityDecl@@@Z 12041e10 f   DOMParser.obj
 0001:00040fe0       ?XMLDecl@DOMParser@@UAEXQBG000@Z 12041fe0 f   DOMParser.obj
 0001:000410d0       ?attDef@DOMParser@@UAEXABVDTDElementDecl@@ABVDTDAttDef@@_N@Z 120420d0 f   DOMParser.obj
 0001:00041430       ?doctypeComment@DOMParser@@UAEXQBG@Z 12042430 f   DOMParser.obj
 0001:00041500       ?doctypeDecl@DOMParser@@UAEXABVDTDElementDecl@@QBG1_N@Z 12042500 f   DOMParser.obj
 0001:00041610       ?doctypePI@DOMParser@@UAEXQBG0@Z 12042610 f   DOMParser.obj
 0001:000416d0       ?doctypeWhitespace@DOMParser@@UAEXQBGI@Z 120426d0 f   DOMParser.obj
 0001:00041700       ?elementDecl@DOMParser@@UAEXABVDTDElementDecl@@_N@Z 12042700 f   DOMParser.obj
 0001:000417f0       ?endAttList@DOMParser@@UAEXABVDTDElementDecl@@@Z 120427f0 f   DOMParser.obj
 0001:00041b00       ?endIntSubset@DOMParser@@UAEXXZ 12042b00 f   DOMParser.obj
 0001:00041b10       ?entityDecl@DOMParser@@UAEXABVDTDEntityDecl@@_N1@Z 12042b10 f   DOMParser.obj
 0001:00041eb0       ?resetDocType@IDOMParser@@UAEXXZ 12042eb0 f   DOMParser.obj
 0001:00041eb0       ?resetDocType@DOMParser@@UAEXXZ 12042eb0 f   DOMParser.obj
 0001:00041ec0       ?notationDecl@DOMParser@@UAEXABVXMLNotationDecl@@_N@Z 12042ec0 f   DOMParser.obj
 0001:00041fc0       ?startIntSubset@DOMParser@@UAEXXZ 12042fc0 f   DOMParser.obj
 0001:00041fd0       ?pop@?$ValueStackOf@VDOM_Node@@@@QAE?AVDOM_Node@@XZ 12042fd0 f i DOMParser.obj
 0001:00042140       ??_EDOMParser@@W3AEPAXI@Z  12043140 f i DOMParser.obj
 0001:00042150       ??_EDOMParser@@W7AEPAXI@Z  12043150 f i DOMParser.obj
 0001:00042160       ??_EDOMParser@@WM@AEPAXI@Z 12043160 f i DOMParser.obj
 0001:00042170       ??0IDOM_DOMImplementation@@IAE@XZ 12043170 f i IDOMParser.obj
 0001:00042180       ??0IDOM_DOMImplementation@@IAE@ABV0@@Z 12043180 f i IDOMParser.obj
 0001:00042190       ??1IDOM_DOMImplementation@@UAE@XZ 12043190 f i IDOMParser.obj
 0001:000421a0       ??_EIDOM_DOMImplementation@@UAEPAXI@Z 120431a0 f i IDOMParser.obj
 0001:00042200       ??0IDOM_NodeList@@IAE@XZ   12043200 f i IDOMParser.obj
 0001:00042210       ??0IDOM_NodeList@@IAE@ABV0@@Z 12043210 f i IDOMParser.obj
 0001:00042220       ??1IDOM_NodeList@@UAE@XZ   12043220 f i IDOMParser.obj
 0001:00042230       ??_EIDOM_NodeList@@UAEPAXI@Z 12043230 f i IDOMParser.obj
 0001:00042290       ??1IDParentNode@@QAE@XZ    12043290 f i IDOMParser.obj
 0001:000422a0       ?isReadOnly@IDNodeImpl@@QBE_NXZ 120432a0 f i IDOMParser.obj
 0001:000422c0       ?isReadOnly@IDNodeImpl@@QAEX_N@Z 120432c0 f i IDOMParser.obj
 0001:00042300       ?needsSyncData@IDNodeImpl@@QBE_NXZ 12043300 f i IDOMParser.obj
 0001:00042320       ?needsSyncData@IDNodeImpl@@QAEX_N@Z 12043320 f i IDOMParser.obj
 0001:00042360       ?needsSyncChildren@IDNodeImpl@@QBE_NXZ 12043360 f i IDOMParser.obj
 0001:00042380       ?needsSyncChildren@IDNodeImpl@@QAEX_N@Z 12043380 f i IDOMParser.obj
 0001:000423c0       ?isOwned@IDNodeImpl@@QBE_NXZ 120433c0 f i IDOMParser.obj
 0001:000423e0       ?isOwned@IDNodeImpl@@QAEX_N@Z 120433e0 f i IDOMParser.obj
 0001:00042420       ?isFirstChild@IDNodeImpl@@QBE_NXZ 12043420 f i IDOMParser.obj
 0001:00042440       ?isFirstChild@IDNodeImpl@@QAEX_N@Z 12043440 f i IDOMParser.obj
 0001:00042480       ?isSpecified@IDNodeImpl@@QBE_NXZ 12043480 f i IDOMParser.obj
 0001:000424a0       ?isSpecified@IDNodeImpl@@QAEX_N@Z 120434a0 f i IDOMParser.obj
 0001:000424e0       ?ignorableWhitespace@IDNodeImpl@@QBE_NXZ 120434e0 f i IDOMParser.obj
 0001:00042500       ?ignorableWhitespace@IDNodeImpl@@QAEX_N@Z 12043500 f i IDOMParser.obj
 0001:00042540       ?setValue@IDNodeImpl@@QBE_NXZ 12043540 f i IDOMParser.obj
 0001:00042560       ?setValue@IDNodeImpl@@QAEX_N@Z 12043560 f i IDOMParser.obj
 0001:000425a0       ?isIdAttr@IDNodeImpl@@QBE_NXZ 120435a0 f i IDOMParser.obj
 0001:000425c0       ?isIdAttr@IDNodeImpl@@QAEX_N@Z 120435c0 f i IDOMParser.obj
 0001:00042600       ?hasUserData@IDNodeImpl@@QBE_NXZ 12043600 f i IDOMParser.obj
 0001:00042620       ?hasUserData@IDNodeImpl@@QAEX_N@Z 12043620 f i IDOMParser.obj
 0001:00042660       ?isLeafNode@IDNodeImpl@@QBE_NXZ 12043660 f i IDOMParser.obj
 0001:00042680       ?setIsLeafNode@IDNodeImpl@@QAEX_N@Z 12043680 f i IDOMParser.obj
 0001:000426c0       ?isChildNode@IDNodeImpl@@QBE_NXZ 120436c0 f i IDOMParser.obj
 0001:000426e0       ?setIsChildNode@IDNodeImpl@@QAEX_N@Z 120436e0 f i IDOMParser.obj
 0001:00042720       ??_OIDAttrImpl@@QAEXABV0@@Z 12043720 f i IDOMParser.obj
 0001:00042730       ??0IDOM_CharacterData@@IAE@XZ 12043730 f i IDOMParser.obj
 0001:00042740       ??0IDOM_CharacterData@@IAE@ABV0@@Z 12043740 f i IDOMParser.obj
 0001:00042750       ??0IDOM_Text@@IAE@XZ       12043750 f i IDOMParser.obj
 0001:00042760       ??0IDOM_Text@@IAE@ABV0@@Z  12043760 f i IDOMParser.obj
 0001:00042770       ??0IDOM_CDATASection@@IAE@XZ 12043770 f i IDOMParser.obj
 0001:00042780       ??0IDOM_CDATASection@@IAE@ABV0@@Z 12043780 f i IDOMParser.obj
 0001:00042790       ??0IDOM_Comment@@IAE@XZ    12043790 f i IDOMParser.obj
 0001:000427a0       ??0IDOM_Comment@@IAE@ABV0@@Z 120437a0 f i IDOMParser.obj
 0001:000427b0       ??_OIDTextImpl@@QAEXABV0@@Z 120437b0 f i IDOMParser.obj
 0001:000427c0       ?setErrorChecking@IDDocumentImpl@@QAEX_N@Z 120437c0 f i IDOMParser.obj
 0001:000427d0       ?getErrorChecking@IDDocumentImpl@@QAE_NXZ 120437d0 f i IDOMParser.obj
 0001:000427e0       ??0IDDocumentImpl@@QAE@ABV0@@Z 120437e0 f i IDOMParser.obj
 0001:000428a0       ??_EIDDocumentImpl@@UAEPAXI@Z 120438a0 f i IDOMParser.obj
 0001:00042900       ??_OIDDocumentTypeImpl@@QAEXABV0@@Z 12043900 f i IDOMParser.obj
 0001:00042910       ??0IDOM_NamedNodeMap@@IAE@XZ 12043910 f i IDOMParser.obj
 0001:00042920       ??0IDOM_NamedNodeMap@@IAE@ABV0@@Z 12043920 f i IDOMParser.obj
 0001:00042930       ??1IDOM_NamedNodeMap@@UAE@XZ 12043930 f i IDOMParser.obj
 0001:00042940       ??_EIDOM_NamedNodeMap@@UAEPAXI@Z 12043940 f i IDOMParser.obj
 0001:000429a0       ??0IDNamedNodeMapImpl@@QAE@ABV0@@Z 120439a0 f i IDOMParser.obj
 0001:000429d0       ??_EIDNamedNodeMapImpl@@UAEPAXI@Z 120439d0 f i IDOMParser.obj
 0001:00042a30       ??0IDAttrMapImpl@@QAE@ABV0@@Z 12043a30 f i IDOMParser.obj
 0001:00042a60       ??_EIDAttrMapImpl@@UAEPAXI@Z 12043a60 f i IDOMParser.obj
 0001:00042ac0       ?handlesDTD@SchemaValidator@@UBE_NXZ 12043ac0 f i IDOMParser.obj
 0001:00042ac0       ?hasDefaults@IDAttrMapImpl@@UAE_NXZ 12043ac0 f i IDOMParser.obj
 0001:00042ac0       ?handlesSchema@DTDValidator@@UBE_NXZ 12043ac0 f i IDOMParser.obj
 0001:00042ad0       ??_OIDElementImpl@@QAEXABV0@@Z 12043ad0 f i IDOMParser.obj
 0001:00042ae0       ??0IDOM_Entity@@IAE@XZ     12043ae0 f i IDOMParser.obj
 0001:00042af0       ??0IDOM_Entity@@IAE@ABV0@@Z 12043af0 f i IDOMParser.obj
 0001:00042b00       ??_OIDEntityImpl@@QAEXABV0@@Z 12043b00 f i IDOMParser.obj
 0001:00042b10       ??0IDOM_EntityReference@@IAE@XZ 12043b10 f i IDOMParser.obj
 0001:00042b20       ??0IDOM_EntityReference@@IAE@ABV0@@Z 12043b20 f i IDOMParser.obj
 0001:00042b30       ??_OIDEntityReferenceImpl@@QAEXABV0@@Z 12043b30 f i IDOMParser.obj
 0001:00042b40       ??0IDOM_Notation@@IAE@XZ   12043b40 f i IDOMParser.obj
 0001:00042b50       ??0IDOM_Notation@@IAE@ABV0@@Z 12043b50 f i IDOMParser.obj
 0001:00042b60       ??_OIDNotationImpl@@QAEXABV0@@Z 12043b60 f i IDOMParser.obj
 0001:00042b70       ??0IDOM_ProcessingInstruction@@IAE@XZ 12043b70 f i IDOMParser.obj
 0001:00042b80       ??0IDOM_ProcessingInstruction@@IAE@ABV0@@Z 12043b80 f i IDOMParser.obj
 0001:00042b90       ??0IDOMParser@@QAE@QAVXMLValidator@@@Z 12043b90 f   IDOMParser.obj
 0001:00042db0       ??_EIDOMParser@@UAEPAXI@Z  12043db0 f i IDOMParser.obj
 0001:00042e10       ??1IDOMParser@@UAE@XZ      12043e10 f   IDOMParser.obj
 0001:00042f20       ?reset@IDOMParser@@QAEXXZ  12043f20 f   IDOMParser.obj
 0001:00043060       ?getRight@CMBinaryOp@@QAEPAVCMNode@@XZ 12044060 f   IDOMParser.obj
 0001:00043060       ?getDocument@ParentNode@@UAEPAVDocumentImpl@@XZ 12044060 f   IDOMParser.obj
 0001:00043060       ?getData@IDProcessingInstructionImpl@@UBEPBGXZ 12044060 f   IDOMParser.obj
 0001:00043060       ?getOwnerDocument@ParentNode@@UAEPAVDocumentImpl@@XZ 12044060 f   IDOMParser.obj
 0001:00043060       ?getDocument@IDRangeImpl@@QAEPAVIDOM_Document@@XZ 12044060 f   IDOMParser.obj
 0001:00043060       ?getDocument@IDOMParser@@QAEPAVIDOM_Document@@XZ 12044060 f   IDOMParser.obj
 0001:00043060       ?getNodeValue@IDProcessingInstructionImpl@@UBEPBGXZ 12044060 f   IDOMParser.obj
 0001:00043060       ?getPosition@CMAny@@QBEIXZ 12044060 f   IDOMParser.obj
 0001:00043060       ?getNoFlow@ConditionOp@@UBEPBVOp@@XZ 12044060 f   IDOMParser.obj
 0001:00043070       ?getValidator@DOMParser@@QBEABVXMLValidator@@XZ 12044070 f   IDOMParser.obj
 0001:00043070       ?getValidator@IDOMParser@@QBEABVXMLValidator@@XZ 12044070 f   IDOMParser.obj
 0001:00043080       ?getDoNamespaces@DOMParser@@QBE_NXZ 12044080 f   IDOMParser.obj
 0001:00043080       ?getDoNamespaces@IDOMParser@@QBE_NXZ 12044080 f   IDOMParser.obj
 0001:00043090       ?getExitOnFirstFatalError@DOMParser@@QBE_NXZ 12044090 f   IDOMParser.obj
 0001:00043090       ?getExitOnFirstFatalError@IDOMParser@@QBE_NXZ 12044090 f   IDOMParser.obj
 0001:000430a0       ?getValidationConstraintFatal@DOMParser@@QBE_NXZ 120440a0 f   IDOMParser.obj
 0001:000430a0       ?getValidationConstraintFatal@IDOMParser@@QBE_NXZ 120440a0 f   IDOMParser.obj
 0001:000430b0       ?getValidationScheme@IDOMParser@@QBE?AW4ValSchemes@1@XZ 120440b0 f   IDOMParser.obj
 0001:000430b0       ?getValidationScheme@DOMParser@@QBE?AW4ValSchemes@1@XZ 120440b0 f   IDOMParser.obj
 0001:000430d0       ?getDoSchema@DOMParser@@QBE_NXZ 120440d0 f   IDOMParser.obj
 0001:000430d0       ?getDoSchema@IDOMParser@@QBE_NXZ 120440d0 f   IDOMParser.obj
 0001:000430e0       ?getValidationSchemaFullChecking@DOMParser@@QBE_NXZ 120440e0 f   IDOMParser.obj
 0001:000430e0       ?getValidationSchemaFullChecking@IDOMParser@@QBE_NXZ 120440e0 f   IDOMParser.obj
 0001:000430f0       ?getErrorCount@DOMParser@@QBEHXZ 120440f0 f   IDOMParser.obj
 0001:000430f0       ?getErrorCount@IDOMParser@@QBEHXZ 120440f0 f   IDOMParser.obj
 0001:00043100       ?getExternalSchemaLocation@DOMParser@@QBEPAGXZ 12044100 f   IDOMParser.obj
 0001:00043100       ?getExternalSchemaLocation@IDOMParser@@QBEPAGXZ 12044100 f   IDOMParser.obj
 0001:00043110       ?getExternalNoNamespaceSchemaLocation@DOMParser@@QBEPAGXZ 12044110 f   IDOMParser.obj
 0001:00043110       ?getExternalNoNamespaceSchemaLocation@IDOMParser@@QBEPAGXZ 12044110 f   IDOMParser.obj
 0001:00043120       ?setExitOnFirstFatalError@IDOMParser@@QAEX_N@Z 12044120 f   IDOMParser.obj
 0001:00043120       ?setExitOnFirstFatalError@DOMParser@@QAEX_N@Z 12044120 f   IDOMParser.obj
 0001:00043130       ?setValidationConstraintFatal@DOMParser@@QAEX_N@Z 12044130 f   IDOMParser.obj
 0001:00043130       ?setValidationConstraintFatal@IDOMParser@@QAEX_N@Z 12044130 f   IDOMParser.obj
 0001:00043140       ?setValidationScheme@IDOMParser@@QAEXW4ValSchemes@1@@Z 12044140 f   IDOMParser.obj
 0001:00043140       ?setValidationScheme@DOMParser@@QAEXW4ValSchemes@1@@Z 12044140 f   IDOMParser.obj
 0001:00043190       ?setDoSchema@DOMParser@@QAEX_N@Z 12044190 f   IDOMParser.obj
 0001:00043190       ?setDoSchema@IDOMParser@@QAEX_N@Z 12044190 f   IDOMParser.obj
 0001:000431a0       ?setValidationSchemaFullChecking@IDOMParser@@QAEX_N@Z 120441a0 f   IDOMParser.obj
 0001:000431a0       ?setValidationSchemaFullChecking@DOMParser@@QAEX_N@Z 120441a0 f   IDOMParser.obj
 0001:000431b0       ?setExternalSchemaLocation@DOMParser@@QAEXQBD@Z 120441b0 f   IDOMParser.obj
 0001:000431b0       ?setExternalSchemaLocation@IDOMParser@@QAEXQBD@Z 120441b0 f   IDOMParser.obj
 0001:000431e0       ?setExternalNoNamespaceSchemaLocation@DOMParser@@QAEXQBD@Z 120441e0 f   IDOMParser.obj
 0001:000431e0       ?setExternalNoNamespaceSchemaLocation@IDOMParser@@QAEXQBD@Z 120441e0 f   IDOMParser.obj
 0001:00043210       ?parse@IDOMParser@@QAEXABVInputSource@@_N@Z 12044210 f   IDOMParser.obj
 0001:000432c0       ?parse@IDOMParser@@QAEXQBG_N@Z 120442c0 f   IDOMParser.obj
 0001:00043370       ?parse@IDOMParser@@QAEXQBD_N@Z 12044370 f   IDOMParser.obj
 0001:00043420       ?parseFirst@IDOMParser@@QAE_NQBGAAVXMLPScanToken@@_N@Z 12044420 f   IDOMParser.obj
 0001:00043470       ?parseFirst@IDOMParser@@QAE_NQBDAAVXMLPScanToken@@_N@Z 12044470 f   IDOMParser.obj
 0001:000434c0       ?parseFirst@IDOMParser@@QAE_NABVInputSource@@AAVXMLPScanToken@@_N@Z 120444c0 f   IDOMParser.obj
 0001:00043510       ?parseReset@IDOMParser@@QAEXAAVXMLPScanToken@@@Z 12044510 f   IDOMParser.obj
 0001:00043530       ?resetDocumentPool@IDOMParser@@QAEXXZ 12044530 f   IDOMParser.obj
 0001:000435c0       ?error@IDOMParser@@UAEXIQBGW4ErrTypes@XMLErrorReporter@@000II@Z 120445c0 f   IDOMParser.obj
 0001:00043680       ?docCharacters@IDOMParser@@UAEXQBGI_N@Z 12044680 f   IDOMParser.obj
 0001:000437a0       ?docComment@IDOMParser@@UAEXQBG@Z 120447a0 f   IDOMParser.obj
 0001:000437d0       ?docPI@IDOMParser@@UAEXQBG0@Z 120447d0 f   IDOMParser.obj
 0001:00043800       ?endEntityReference@IDOMParser@@UAEXABVXMLEntityDecl@@@Z 12044800 f   IDOMParser.obj
 0001:000438d0       ?endElement@IDOMParser@@UAEXABVXMLElementDecl@@I_N@Z 120448d0 f   IDOMParser.obj
 0001:000439a0       ?ignorableWhitespace@IDOMParser@@UAEXQBGI_N@Z 120449a0 f   IDOMParser.obj
 0001:00043ad0       ?resetDocument@IDOMParser@@UAEXXZ 12044ad0 f   IDOMParser.obj
 0001:00043af0       ?startDocument@IDOMParser@@UAEXXZ 12044af0 f   IDOMParser.obj
 0001:00043b00       ?endDocument@IDOMParser@@UAEXXZ 12044b00 f   IDOMParser.obj
 0001:00043b10       ?startElement@IDOMParser@@UAEXABVXMLElementDecl@@IQBGABV?$RefVectorOf@VXMLAttr@@@@I_N3@Z 12044b10 f   IDOMParser.obj
 0001:00043f80       ?startEntityReference@IDOMParser@@UAEXABVXMLEntityDecl@@@Z 12044f80 f   IDOMParser.obj
 0001:00044070       ?XMLDecl@IDOMParser@@UAEXQBG000@Z 12045070 f   IDOMParser.obj
 0001:00044070       ?doctypeDecl@SAXParser@@UAEXABVDTDElementDecl@@QBG1_N@Z 12045070 f   IDOMParser.obj
 0001:00044080       ?getDoValidation@IDOMParser@@QBE_NXZ 12045080 f   IDOMParser.obj
 0001:00044080       ?getDoValidation@DOMParser@@QBE_NXZ 12045080 f   IDOMParser.obj
 0001:00044090       ?setDoValidation@DOMParser@@QAEX_N@Z 12045090 f   IDOMParser.obj
 0001:00044090       ?setDoValidation@IDOMParser@@QAEX_N@Z 12045090 f   IDOMParser.obj
 0001:000440c0       ?attDef@IDOMParser@@UAEXABVDTDElementDecl@@ABVDTDAttDef@@_N@Z 120450c0 f   IDOMParser.obj
 0001:00044780       ?doctypeComment@IDOMParser@@UAEXQBG@Z 12045780 f   IDOMParser.obj
 0001:00044910       ?doctypeDecl@IDOMParser@@UAEXABVDTDElementDecl@@QBG1_N@Z 12045910 f   IDOMParser.obj
 0001:00044950       ?doctypePI@IDOMParser@@UAEXQBG0@Z 12045950 f   IDOMParser.obj
 0001:00044ad0       ?doctypeWhitespace@IDOMParser@@UAEXQBGI@Z 12045ad0 f   IDOMParser.obj
 0001:00044b00       ?elementDecl@IDOMParser@@UAEXABVDTDElementDecl@@_N@Z 12045b00 f   IDOMParser.obj
 0001:00044cb0       ?endAttList@IDOMParser@@UAEXABVDTDElementDecl@@@Z 12045cb0 f   IDOMParser.obj
 0001:00044ed0       ?endIntSubset@IDOMParser@@UAEXXZ 12045ed0 f   IDOMParser.obj
 0001:00044ee0       ?entityDecl@IDOMParser@@UAEXABVDTDEntityDecl@@_N1@Z 12045ee0 f   IDOMParser.obj
 0001:00045380       ?notationDecl@IDOMParser@@UAEXABVXMLNotationDecl@@_N@Z 12046380 f   IDOMParser.obj
 0001:000453d0       ?startIntSubset@IDOMParser@@UAEXXZ 120463d0 f   IDOMParser.obj
 0001:000453e0       ??_EIDOMParser@@W3AEPAXI@Z 120463e0 f i IDOMParser.obj
 0001:000453f0       ??_EIDOMParser@@W7AEPAXI@Z 120463f0 f i IDOMParser.obj
 0001:00045400       ??_EIDOMParser@@WM@AEPAXI@Z 12046400 f i IDOMParser.obj
 0001:00045410       ??0ContentHandler@@QAE@XZ  12046410 f i SAX2XMLReaderImpl.obj
 0001:00045420       ??1ContentHandler@@UAE@XZ  12046420 f i SAX2XMLReaderImpl.obj
 0001:00045430       ??_EContentHandler@@UAEPAXI@Z 12046430 f i SAX2XMLReaderImpl.obj
 0001:00045490       ??0LexicalHandler@@QAE@XZ  12046490 f i SAX2XMLReaderImpl.obj
 0001:000454a0       ??1LexicalHandler@@UAE@XZ  120464a0 f i SAX2XMLReaderImpl.obj
 0001:000454b0       ??_ELexicalHandler@@UAEPAXI@Z 120464b0 f i SAX2XMLReaderImpl.obj
 0001:00045510       ??0DeclHandler@@QAE@XZ     12046510 f i SAX2XMLReaderImpl.obj
 0001:00045520       ??1DeclHandler@@UAE@XZ     12046520 f i SAX2XMLReaderImpl.obj
 0001:00045530       ??_EDeclHandler@@UAEPAXI@Z 12046530 f i SAX2XMLReaderImpl.obj
 0001:00045590       ??_FSAXParser@@QAEXXZ      12046590 f i SAX2XMLReaderImpl.obj
 0001:000455a0       ?getScanner@SAXParser@@QBEABVXMLScanner@@XZ 120465a0 f i SAX2XMLReaderImpl.obj
 0001:000455a0       ?getFractionDigits@DecimalDatatypeValidator@@ABEIXZ 120465a0 f i SAX2XMLReaderImpl.obj
 0001:000455b0       ??0SAX2XMLReader@@QAE@XZ   120465b0 f i SAX2XMLReaderImpl.obj
 0001:000455c0       ??1SAX2XMLReader@@UAE@XZ   120465c0 f i SAX2XMLReaderImpl.obj
 0001:000455d0       ??_ESAX2XMLReader@@UAEPAXI@Z 120465d0 f i SAX2XMLReaderImpl.obj
 0001:00045630       ?getDocTypeHandler@XMLScanner@@QBEPBVDocTypeHandler@@XZ 12046630 f i SAX2XMLReaderImpl.obj
 0001:00045630       ?getTotalDigits@DecimalDatatypeValidator@@ABEIXZ 12046630 f i SAX2XMLReaderImpl.obj
 0001:00045630       ?getDocTypeHandler@XMLScanner@@QAEPAVDocTypeHandler@@XZ 12046630 f i SAX2XMLReaderImpl.obj
 0001:00045630       ?getDTDHandler@SAX2XMLReaderImpl@@UBEPAVDTDHandler@@XZ 12046630 f i SAX2XMLReaderImpl.obj
 0001:00045640       ?getEntityResolver@SAX2XMLReaderImpl@@UBEPAVEntityResolver@@XZ 12046640 f i SAX2XMLReaderImpl.obj
 0001:00045650       ?getErrorHandler@SAX2XMLReaderImpl@@UBEPAVErrorHandler@@XZ 12046650 f i SAX2XMLReaderImpl.obj
 0001:00045660       ?getLexicalHandler@SAX2XMLReaderImpl@@UBEPAVLexicalHandler@@XZ 12046660 f i SAX2XMLReaderImpl.obj
 0001:00045670       ?getDeclarationHandler@SAX2XMLReaderImpl@@UBEPAVDeclHandler@@XZ 12046670 f i SAX2XMLReaderImpl.obj
 0001:00045680       ?getExitOnFirstFatalError@SAX2XMLReaderImpl@@UBE_NXZ 12046680 f i SAX2XMLReaderImpl.obj
 0001:00045690       ?getValidationConstraintFatal@SAX2XMLReaderImpl@@UBE_NXZ 12046690 f i SAX2XMLReaderImpl.obj
 0001:000456a0       ??0SAX2XMLReaderImpl@@QAE@XZ 120466a0 f   SAX2XMLReaderImpl.obj
 0001:00045910       ??_ESAX2XMLReaderImpl@@UAEPAXI@Z 12046910 f i SAX2XMLReaderImpl.obj
 0001:00045970       ??1SAX2XMLReaderImpl@@UAE@XZ 12046970 f   SAX2XMLReaderImpl.obj
 0001:00045af0       ?installAdvDocHandler@SAX2XMLReaderImpl@@UAEXQAVXMLDocumentHandler@@@Z 12046af0 f   SAX2XMLReaderImpl.obj
 0001:00045bd0       ?removeAdvDocHandler@SAX2XMLReaderImpl@@UAE_NQAVXMLDocumentHandler@@@Z 12046bd0 f   SAX2XMLReaderImpl.obj
 0001:00045c50       ?setValidator@SAX2XMLReaderImpl@@UAEXPAVXMLValidator@@@Z 12046c50 f   SAX2XMLReaderImpl.obj
 0001:00045c90       ?getValidator@SAX2XMLReaderImpl@@UBEPAVXMLValidator@@XZ 12046c90 f   SAX2XMLReaderImpl.obj
 0001:00045ca0       ?getErrorCount@SAX2XMLReaderImpl@@UBEHXZ 12046ca0 f   SAX2XMLReaderImpl.obj
 0001:00045cb0       ?setContentHandler@SAX2XMLReaderImpl@@UAEXQAVContentHandler@@@Z 12046cb0 f   SAX2XMLReaderImpl.obj
 0001:00045cf0       ?setDTDHandler@SAX2XMLReaderImpl@@UAEXQAVDTDHandler@@@Z 12046cf0 f   SAX2XMLReaderImpl.obj
 0001:00045d30       ?setErrorHandler@SAX2XMLReaderImpl@@UAEXQAVErrorHandler@@@Z 12046d30 f   SAX2XMLReaderImpl.obj
 0001:00045db0       ?setLexicalHandler@SAX2XMLReaderImpl@@UAEXQAVLexicalHandler@@@Z 12046db0 f   SAX2XMLReaderImpl.obj
 0001:00045df0       ?setDeclarationHandler@SAX2XMLReaderImpl@@UAEXQAVDeclHandler@@@Z 12046df0 f   SAX2XMLReaderImpl.obj
 0001:00045e30       ?setEntityResolver@SAX2XMLReaderImpl@@UAEXQAVEntityResolver@@@Z 12046e30 f   SAX2XMLReaderImpl.obj
 0001:00045e80       ?setExitOnFirstFatalError@SAX2XMLReaderImpl@@UAEX_N@Z 12046e80 f   SAX2XMLReaderImpl.obj
 0001:00045e90       ?setValidationConstraintFatal@SAX2XMLReaderImpl@@UAEX_N@Z 12046e90 f   SAX2XMLReaderImpl.obj
 0001:00045ea0       ?parse@SAX2XMLReaderImpl@@UAEXABVInputSource@@@Z 12046ea0 f   SAX2XMLReaderImpl.obj
 0001:00045f50       ?parse@SAX2XMLReaderImpl@@UAEXQBG@Z 12046f50 f   SAX2XMLReaderImpl.obj
 0001:00046000       ?parse@SAX2XMLReaderImpl@@UAEXQBD@Z 12047000 f   SAX2XMLReaderImpl.obj
 0001:000460b0       ?parseFirst@SAX2XMLReaderImpl@@UAE_NQBGAAVXMLPScanToken@@_N@Z 120470b0 f   SAX2XMLReaderImpl.obj
 0001:00046100       ?parseFirst@SAX2XMLReaderImpl@@UAE_NQBDAAVXMLPScanToken@@_N@Z 12047100 f   SAX2XMLReaderImpl.obj
 0001:00046150       ?parseFirst@SAX2XMLReaderImpl@@UAE_NABVInputSource@@AAVXMLPScanToken@@_N@Z 12047150 f   SAX2XMLReaderImpl.obj
 0001:000461a0       ?parseNext@SAX2XMLReaderImpl@@UAE_NAAVXMLPScanToken@@@Z 120471a0 f   SAX2XMLReaderImpl.obj
 0001:000461b0       ?parseReset@SAX2XMLReaderImpl@@UAEXAAVXMLPScanToken@@@Z 120471b0 f   SAX2XMLReaderImpl.obj
 0001:000461c0       ?docCharacters@SAX2XMLReaderImpl@@UAEXQBGI_N@Z 120471c0 f   SAX2XMLReaderImpl.obj
 0001:00046240       ?docComment@SAX2XMLReaderImpl@@UAEXQBG@Z 12047240 f   SAX2XMLReaderImpl.obj
 0001:000462a0       ?XMLDecl@SAX2XMLReaderImpl@@UAEXQBG000@Z 120472a0 f   SAX2XMLReaderImpl.obj
 0001:000462e0       ?docPI@SAX2XMLReaderImpl@@UAEXQBG0@Z 120472e0 f   SAX2XMLReaderImpl.obj
 0001:00046330       ?endDocument@SAX2XMLReaderImpl@@UAEXXZ 12047330 f   SAX2XMLReaderImpl.obj
 0001:00046360       ?endEntityReference@SAX2XMLReaderImpl@@UAEXABVXMLEntityDecl@@@Z 12047360 f   SAX2XMLReaderImpl.obj
 0001:000463a0       ?ignorableWhitespace@SAX2XMLReaderImpl@@UAEXQBGI_N@Z 120473a0 f   SAX2XMLReaderImpl.obj
 0001:000463f0       ?resetDocument@SAX2XMLReaderImpl@@UAEXXZ 120473f0 f   SAX2XMLReaderImpl.obj
 0001:00046580       ?startDocument@SAX2XMLReaderImpl@@UAEXXZ 12047580 f   SAX2XMLReaderImpl.obj
 0001:000465d0       ?startElement@SAX2XMLReaderImpl@@UAEXABVXMLElementDecl@@IQBGABV?$RefVectorOf@VXMLAttr@@@@I_N3@Z 120475d0 f   SAX2XMLReaderImpl.obj
 0001:00046aa0       ?endElement@SAX2XMLReaderImpl@@UAEXABVXMLElementDecl@@I_N@Z 12047aa0 f   SAX2XMLReaderImpl.obj
 0001:00046ca0       ?startEntityReference@SAX2XMLReaderImpl@@UAEXABVXMLEntityDecl@@@Z 12047ca0 f   SAX2XMLReaderImpl.obj
 0001:00046ce0       ?attDef@SAX2XMLReaderImpl@@UAEXABVDTDElementDecl@@ABVDTDAttDef@@_N@Z 12047ce0 f   SAX2XMLReaderImpl.obj
 0001:00046f30       ?doctypeComment@SAX2XMLReaderImpl@@UAEXQBG@Z 12047f30 f   SAX2XMLReaderImpl.obj
 0001:00046f80       ?doctypeDecl@SAX2XMLReaderImpl@@UAEXABVDTDElementDecl@@QBG1_N@Z 12047f80 f   SAX2XMLReaderImpl.obj
 0001:00046fb0       ?elementDecl@SAX2XMLReaderImpl@@UAEXABVDTDElementDecl@@_N@Z 12047fb0 f   SAX2XMLReaderImpl.obj
 0001:00046ff0       ?endIntSubset@SAX2XMLReaderImpl@@UAEXXZ 12047ff0 f   SAX2XMLReaderImpl.obj
 0001:00047010       ?endExtSubset@SAX2XMLReaderImpl@@UAEXXZ 12048010 f   SAX2XMLReaderImpl.obj
 0001:00047030       ?entityDecl@SAX2XMLReaderImpl@@UAEXABVDTDEntityDecl@@_N1@Z 12048030 f   SAX2XMLReaderImpl.obj
 0001:00047140       ?resetDocType@SAX2XMLReaderImpl@@UAEXXZ 12048140 f   SAX2XMLReaderImpl.obj
 0001:00047160       ?notationDecl@SAX2XMLReaderImpl@@UAEXABVXMLNotationDecl@@_N@Z 12048160 f   SAX2XMLReaderImpl.obj
 0001:00047190       ?startExtSubset@SAX2XMLReaderImpl@@UAEXXZ 12048190 f   SAX2XMLReaderImpl.obj
 0001:000471b0       ?resolveEntity@SAX2XMLReaderImpl@@UAEPAVInputSource@@QBG0@Z 120481b0 f   SAX2XMLReaderImpl.obj
 0001:000471d0       ?resetErrors@SAX2XMLReaderImpl@@UAEXXZ 120481d0 f   SAX2XMLReaderImpl.obj
 0001:000471e0       ?error@SAX2XMLReaderImpl@@UAEXIQBGW4ErrTypes@XMLErrorReporter@@000II@Z 120481e0 f   SAX2XMLReaderImpl.obj
 0001:000472a0       ?setFeature@SAX2XMLReaderImpl@@UAEXQBG_N@Z 120482a0 f   SAX2XMLReaderImpl.obj
 0001:00047450       ??0SAXNotSupportedException@@QAE@ABV0@@Z 12048450 f i SAX2XMLReaderImpl.obj
 0001:000474c0       ??0SAXNotRecognizedException@@QAE@ABV0@@Z 120484c0 f i SAX2XMLReaderImpl.obj
 0001:00047530       ?getFeature@SAX2XMLReaderImpl@@UBE_NQBG@Z 12048530 f   SAX2XMLReaderImpl.obj
 0001:00047640       ?setProperty@SAX2XMLReaderImpl@@UAEXQBGPAX@Z 12048640 f   SAX2XMLReaderImpl.obj
 0001:00047790       ?getProperty@SAX2XMLReaderImpl@@UBEPAXQBG@Z 12048790 f   SAX2XMLReaderImpl.obj
 0001:00047800       ?setValidationScheme@SAX2XMLReaderImpl@@AAEXW4ValSchemes@SAX2XMLReader@@@Z 12048800 f   SAX2XMLReaderImpl.obj
 0001:00047850       ?setDoNamespaces@SAX2XMLReaderImpl@@AAEX_N@Z 12048850 f   SAX2XMLReaderImpl.obj
 0001:00047860       ?getDoNamespaces@SAX2XMLReaderImpl@@ABE_NXZ 12048860 f   SAX2XMLReaderImpl.obj
 0001:00047870       ?setDoSchema@SAX2XMLReaderImpl@@AAEX_N@Z 12048870 f   SAX2XMLReaderImpl.obj
 0001:00047880       ?getDoSchema@SAX2XMLReaderImpl@@ABE_NXZ 12048880 f   SAX2XMLReaderImpl.obj
 0001:00047890       ??_GXMLAttr@@QAEPAXI@Z     12048890 f i SAX2XMLReaderImpl.obj
 0001:000478b0       ?elementAt@?$ValueVectorOf@I@@QAEAAII@Z 120488b0 f i SAX2XMLReaderImpl.obj
 0001:000478b0       ?elementAt@?$ValueVectorOf@H@@QAEAAHI@Z 120488b0 f i SAX2XMLReaderImpl.obj
 0001:000478b0       ?elementAt@?$ValueVectorOf@PAVContentSpecNode@@@@QAEAAPAVContentSpecNode@@I@Z 120488b0 f i SAX2XMLReaderImpl.obj
 0001:000478f0       ?orphanElementAt@?$RefVectorOf@VXMLBuffer@@@@QAEPAVXMLBuffer@@I@Z 120488f0 f i SAX2XMLReaderImpl.obj
 0001:000478f0       ?orphanElementAt@?$RefVectorOf@VXMLReader@@@@QAEPAVXMLReader@@I@Z 120488f0 f i SAX2XMLReaderImpl.obj
 0001:000478f0       ?orphanElementAt@?$RefVectorOf@V?$RefHashTableOf@VValueStore@@@@@@QAEPAV?$RefHashTableOf@VValueStore@@@@I@Z 120488f0 f i SAX2XMLReaderImpl.obj
 0001:000478f0       ?orphanElementAt@?$RefVectorOf@VXMLEntityDecl@@@@QAEPAVXMLEntityDecl@@I@Z 120488f0 f i SAX2XMLReaderImpl.obj
 0001:00047980       ??_GXMLBuffer@@QAEPAXI@Z   12048980 f i SAX2XMLReaderImpl.obj
 0001:000479b0       ??_ESAX2XMLReaderImpl@@W3AEPAXI@Z 120489b0 f i SAX2XMLReaderImpl.obj
 0001:000479c0       ??_ESAX2XMLReaderImpl@@W7AEPAXI@Z 120489c0 f i SAX2XMLReaderImpl.obj
 0001:000479d0       ??_ESAX2XMLReaderImpl@@WM@AEPAXI@Z 120489d0 f i SAX2XMLReaderImpl.obj
 0001:000479e0       ??_ESAX2XMLReaderImpl@@WBA@AEPAXI@Z 120489e0 f i SAX2XMLReaderImpl.obj
 0001:000479f0       ??0SAXParser@@QAE@QAVXMLValidator@@@Z 120489f0 f   SAXParser.obj
 0001:00047b10       ??_ESAXParser@@UAEPAXI@Z   12048b10 f i SAXParser.obj
 0001:00047b70       ??1SAXParser@@UAE@XZ       12048b70 f   SAXParser.obj
 0001:00047c50       ?installAdvDocHandler@SAXParser@@QAEXQAVXMLDocumentHandler@@@Z 12048c50 f   SAXParser.obj
 0001:00047d30       ?removeAdvDocHandler@SAXParser@@QAE_NQAVXMLDocumentHandler@@@Z 12048d30 f   SAXParser.obj
 0001:00047db0       ?getValidator@SAXParser@@QBEABVXMLValidator@@XZ 12048db0 f   SAXParser.obj
 0001:00047dc0       ?getDoNamespaces@SAXParser@@QBE_NXZ 12048dc0 f   SAXParser.obj
 0001:00047dd0       ?getExitOnFirstFatalError@SAXParser@@QBE_NXZ 12048dd0 f   SAXParser.obj
 0001:00047de0       ?getValidationConstraintFatal@SAXParser@@QBE_NXZ 12048de0 f   SAXParser.obj
 0001:00047df0       ?getValidationScheme@SAXParser@@QBE?AW4ValSchemes@1@XZ 12048df0 f   SAXParser.obj
 0001:00047e10       ?getDoSchema@SAXParser@@QBE_NXZ 12048e10 f   SAXParser.obj
 0001:00047e20       ?getValidationSchemaFullChecking@SAXParser@@QBE_NXZ 12048e20 f   SAXParser.obj
 0001:00047e30       ?getErrorCount@SAXParser@@QBEHXZ 12048e30 f   SAXParser.obj
 0001:00047e40       ?getExternalSchemaLocation@SAXParser@@QBEPAGXZ 12048e40 f   SAXParser.obj
 0001:00047e50       ?getExternalNoNamespaceSchemaLocation@SAXParser@@QBEPAGXZ 12048e50 f   SAXParser.obj
 0001:00047e60       ?setDoNamespaces@SAXParser@@QAEX_N@Z 12048e60 f   SAXParser.obj
 0001:00047e70       ?setExitOnFirstFatalError@SAXParser@@QAEX_N@Z 12048e70 f   SAXParser.obj
 0001:00047e80       ?setValidationConstraintFatal@SAXParser@@QAEX_N@Z 12048e80 f   SAXParser.obj
 0001:00047e90       ?setValidationScheme@SAXParser@@QAEXW4ValSchemes@1@@Z 12048e90 f   SAXParser.obj
 0001:00047ee0       ?setDoSchema@SAXParser@@QAEX_N@Z 12048ee0 f   SAXParser.obj
 0001:00047ef0       ?setValidationSchemaFullChecking@SAXParser@@QAEX_N@Z 12048ef0 f   SAXParser.obj
 0001:00047f00       ?setExternalSchemaLocation@SAXParser@@QAEXQBG@Z 12048f00 f   SAXParser.obj
 0001:00047f80       ?setExternalNoNamespaceSchemaLocation@SAXParser@@QAEXQBG@Z 12048f80 f   SAXParser.obj
 0001:00048000       ?setExternalSchemaLocation@SAXParser@@QAEXQBD@Z 12049000 f   SAXParser.obj
 0001:00048030       ?setExternalNoNamespaceSchemaLocation@SAXParser@@QAEXQBD@Z 12049030 f   SAXParser.obj
 0001:00048060       ?parse@SAXParser@@UAEXABVInputSource@@_N@Z 12049060 f   SAXParser.obj
 0001:00048110       ?parse@SAXParser@@UAEXQBG_N@Z 12049110 f   SAXParser.obj
 0001:000481c0       ?parse@SAXParser@@UAEXQBD_N@Z 120491c0 f   SAXParser.obj
 0001:00048270       ?setDocumentHandler@SAXParser@@UAEXQAVDocumentHandler@@@Z 12049270 f   SAXParser.obj
 0001:000482b0       ?setDTDHandler@SAXParser@@UAEXQAVDTDHandler@@@Z 120492b0 f   SAXParser.obj
 0001:000482f0       ?setErrorHandler@SAXParser@@UAEXQAVErrorHandler@@@Z 120492f0 f   SAXParser.obj
 0001:00048370       ?setEntityResolver@SAXParser@@UAEXQAVEntityResolver@@@Z 12049370 f   SAXParser.obj
 0001:000483c0       ?parseFirst@SAXParser@@QAE_NQBGAAVXMLPScanToken@@_N@Z 120493c0 f   SAXParser.obj
 0001:00048410       ?parseFirst@SAXParser@@QAE_NQBDAAVXMLPScanToken@@_N@Z 12049410 f   SAXParser.obj
 0001:00048460       ?parseFirst@SAXParser@@QAE_NABVInputSource@@AAVXMLPScanToken@@_N@Z 12049460 f   SAXParser.obj
 0001:000484b0       ?parseNext@SAXParser@@QAE_NAAVXMLPScanToken@@@Z 120494b0 f   SAXParser.obj
 0001:000484c0       ?parseReset@SAXParser@@QAEXAAVXMLPScanToken@@@Z 120494c0 f   SAXParser.obj
 0001:000484d0       ?docCharacters@SAXParser@@UAEXQBGI_N@Z 120494d0 f   SAXParser.obj
 0001:00048520       ?docComment@SAXParser@@UAEXQBG@Z 12049520 f   SAXParser.obj
 0001:00048550       ?XMLDecl@SAXParser@@UAEXQBG000@Z 12049550 f   SAXParser.obj
 0001:00048590       ?docPI@SAXParser@@UAEXQBG0@Z 12049590 f   SAXParser.obj
 0001:000485e0       ?endDocument@SAXParser@@UAEXXZ 120495e0 f   SAXParser.obj
 0001:00048610       ?endElement@SAXParser@@UAEXABVXMLElementDecl@@I_N@Z 12049610 f   SAXParser.obj
 0001:00048670       ?endEntityReference@SAXParser@@UAEXABVXMLEntityDecl@@@Z 12049670 f   SAXParser.obj
 0001:000486a0       ?ignorableWhitespace@SAXParser@@UAEXQBGI_N@Z 120496a0 f   SAXParser.obj
 0001:000486f0       ?resetDocument@SAXParser@@UAEXXZ 120496f0 f   SAXParser.obj
 0001:00048730       ?startDocument@SAXParser@@UAEXXZ 12049730 f   SAXParser.obj
 0001:00048780       ?startElement@SAXParser@@UAEXABVXMLElementDecl@@IQBGABV?$RefVectorOf@VXMLAttr@@@@I_N3@Z 12049780 f   SAXParser.obj
 0001:00048820       ?startEntityReference@SAXParser@@UAEXABVXMLEntityDecl@@@Z 12049820 f   SAXParser.obj
 0001:00048850       ?entityDecl@SAXParser@@UAEXABVDTDEntityDecl@@_N1@Z 12049850 f   SAXParser.obj
 0001:00048890       ?resetDocType@SAXParser@@UAEXXZ 12049890 f   SAXParser.obj
 0001:000488a0       ?notationDecl@SAXParser@@UAEXABVXMLNotationDecl@@_N@Z 120498a0 f   SAXParser.obj
 0001:000488d0       ?TextDecl@IDOMParser@@UAEXQBG0@Z 120498d0 f   SAXParser.obj
 0001:000488d0       ?doctypeWhitespace@SAXParser@@UAEXQBGI@Z 120498d0 f   SAXParser.obj
 0001:000488d0       ?doctypeWhitespace@SAX2XMLReaderImpl@@UAEXQBGI@Z 120498d0 f   SAXParser.obj
 0001:000488d0       ?doctypePI@SAX2XMLReaderImpl@@UAEXQBG0@Z 120498d0 f   SAXParser.obj
 0001:000488d0       ?doctypePI@SAXParser@@UAEXQBG0@Z 120498d0 f   SAXParser.obj
 0001:000488d0       ?TextDecl@SAX2XMLReaderImpl@@UAEXQBG0@Z 120498d0 f   SAXParser.obj
 0001:000488d0       ?TextDecl@DOMParser@@UAEXQBG0@Z 120498d0 f   SAXParser.obj
 0001:000488d0       ?TextDecl@SAXParser@@UAEXQBG0@Z 120498d0 f   SAXParser.obj
 0001:000488d0       ?elementDecl@SAXParser@@UAEXABVDTDElementDecl@@_N@Z 120498d0 f   SAXParser.obj
 0001:000488e0       ?resetErrors@SAXParser@@UAEXXZ 120498e0 f   SAXParser.obj
 0001:000488f0       ?error@SAXParser@@UAEXIQBGW4ErrTypes@XMLErrorReporter@@000II@Z 120498f0 f   SAXParser.obj
 0001:000489b0       ?expandSystemId@SAX2XMLReaderImpl@@UAE_NQBGAAVXMLBuffer@@@Z 120499b0 f   SAXParser.obj
 0001:000489b0       ?expandSystemId@SAXParser@@UAE_NQBGAAVXMLBuffer@@@Z 120499b0 f   SAXParser.obj
 0001:000489c0       ?resolveEntity@SAXParser@@UAEPAVInputSource@@QBG0@Z 120499c0 f   SAXParser.obj
 0001:000489e0       ?getDoValidation@SAXParser@@QBE_NXZ 120499e0 f   SAXParser.obj
 0001:000489f0       ?setDoValidation@SAXParser@@QAEX_N@Z 120499f0 f   SAXParser.obj
 0001:00048a20       ??_ESAXParser@@W3AEPAXI@Z  12049a20 f i SAXParser.obj
 0001:00048a30       ??_ESAXParser@@W7AEPAXI@Z  12049a30 f i SAXParser.obj
 0001:00048a40       ??_ESAXParser@@WM@AEPAXI@Z 12049a40 f i SAXParser.obj
 0001:00048a50       ??_ESAXParser@@WBA@AEPAXI@Z 12049a50 f i SAXParser.obj
 0001:00048a60       ??4RangeImpl@@QAEAAV0@ABV0@@Z 12049a60 f i AttrImpl.obj
 0001:00048ac0       ??0AttrImpl@@QAE@PAVDocumentImpl@@ABVDOMString@@@Z 12049ac0 f   AttrImpl.obj
 0001:00048b70       ??_EAttrImpl@@UAEPAXI@Z    12049b70 f i AttrImpl.obj
 0001:00048bd0       ??0AttrImpl@@QAE@ABV0@_N@Z 12049bd0 f   AttrImpl.obj
 0001:00048d50       ??1AttrImpl@@UAE@XZ        12049d50 f   AttrImpl.obj
 0001:00048dc0       ?makeChildNode@AttrImpl@@IAEXXZ 12049dc0 f   AttrImpl.obj
 0001:00048e30       ?cloneNode@AttrImpl@@UAEPAVNodeImpl@@_N@Z 12049e30 f   AttrImpl.obj
 0001:00048ea0       ?getNodeType@IDAttrImpl@@UBEFXZ 12049ea0 f   AttrImpl.obj
 0001:00048ea0       ?getNodeType@AttrImpl@@UAEFXZ 12049ea0 f   AttrImpl.obj
 0001:00048eb0       ?getNodeValue@AttrImpl@@UAE?AVDOMString@@XZ 12049eb0 f   AttrImpl.obj
 0001:00048ed0       ?getSpecified@AttrImpl@@UAE_NXZ 12049ed0 f   AttrImpl.obj
 0001:00048ef0       ?getValue@AttrImpl@@UAE?AVDOMString@@XZ 12049ef0 f   AttrImpl.obj
 0001:00049050       ?setNodeValue@AttrImpl@@UAEXABVDOMString@@@Z 1204a050 f   AttrImpl.obj
 0001:00049060       ?setSpecified@AttrImpl@@UAEX_N@Z 1204a060 f   AttrImpl.obj
 0001:000490a0       ?setValue@AttrImpl@@UAEXABVDOMString@@@Z 1204a0a0 f   AttrImpl.obj
 0001:000491f0       ?toString@AttrImpl@@UAE?AVDOMString@@XZ 1204a1f0 f   AttrImpl.obj
 0001:000492f0       ?getOwnerElement@AttrImpl@@QAEPAVElementImpl@@XZ 1204a2f0 f   AttrImpl.obj
 0001:000492f0       ?getParentNode@ChildNode@@UAEPAVNodeImpl@@XZ 1204a2f0 f   AttrImpl.obj
 0001:00049310       ?setOwnerElement@AttrImpl@@QAEXPAVElementImpl@@@Z 1204a310 f   AttrImpl.obj
 0001:00049330       ?cloneChildren@AttrImpl@@IAEXABVNodeImpl@@@Z 1204a330 f   AttrImpl.obj
 0001:00049330       ?cloneChildren@ParentNode@@IAEXABVNodeImpl@@@Z 1204a330 f   AttrImpl.obj
 0001:00049370       ?getFirstChild@AttrImpl@@UAEPAVNodeImpl@@XZ 1204a370 f   AttrImpl.obj
 0001:000493e0       ?getLastChild@AttrImpl@@UAEPAVNodeImpl@@XZ 1204a3e0 f   AttrImpl.obj
 0001:000493e0       ?lastChild@AttrImpl@@IAEPAVChildNode@@XZ 1204a3e0 f   AttrImpl.obj
 0001:00049460       ?lastChild@AttrImpl@@IAEXPAVChildNode@@@Z 1204a460 f   AttrImpl.obj
 0001:00049480       ?getLength@AttrImpl@@UAEIXZ 1204a480 f   AttrImpl.obj
 0001:000494b0       ?hasChildNodes@AttrImpl@@UAE_NXZ 1204a4b0 f   AttrImpl.obj
 0001:000494c0       ?insertBefore@AttrImpl@@UAEPAVNodeImpl@@PAV2@0@Z 1204a4c0 f   AttrImpl.obj
 0001:00049890       ?item@AttrImpl@@UAEPAVNodeImpl@@I@Z 1204a890 f   AttrImpl.obj
 0001:00049930       ?removeChild@AttrImpl@@UAEPAVNodeImpl@@PAV2@@Z 1204a930 f   AttrImpl.obj
 0001:00049b10       ?setReadOnly@AttrImpl@@UAEX_N0@Z 1204ab10 f   AttrImpl.obj
 0001:00049b60       ?normalize@AttrImpl@@UAEXXZ 1204ab60 f   AttrImpl.obj
 0001:00049c10       ??0AttrMapImpl@@QAE@PAVNodeImpl@@@Z 1204ac10 f   AttrMapImpl.obj
 0001:00049c30       ??0AttrMapImpl@@QAE@PAVNodeImpl@@PAVNamedNodeMapImpl@@@Z 1204ac30 f   AttrMapImpl.obj
 0001:00049ca0       ??1AttrMapImpl@@UAE@XZ     1204aca0 f   AttrMapImpl.obj
 0001:00049cb0       ?cloneAttrMap@AttrMapImpl@@UAEPAV1@PAVNodeImpl@@@Z 1204acb0 f   AttrMapImpl.obj
 0001:00049d30       ?removeNamedItem@AttrMapImpl@@UAEPAVNodeImpl@@ABVDOMString@@@Z 1204ad30 f   AttrMapImpl.obj
 0001:00049d80       ?removeNamedItemNS@AttrMapImpl@@UAEPAVNodeImpl@@ABVDOMString@@0@Z 1204ad80 f   AttrMapImpl.obj
 0001:00049de0       ??0AttrNSImpl@@QAE@PAVDocumentImpl@@ABVDOMString@@@Z 1204ade0 f   AttrNSImpl.obj
 0001:00049e70       ??_EAttrNSImpl@@UAEPAXI@Z  1204ae70 f i AttrNSImpl.obj
 0001:00049ed0       ??0AttrNSImpl@@QAE@PAVDocumentImpl@@ABVDOMString@@1@Z 1204aed0 f   AttrNSImpl.obj
 0001:0004a180       ??0AttrNSImpl@@QAE@ABV0@_N@Z 1204b180 f   AttrNSImpl.obj
 0001:0004a250       ?cloneNode@AttrNSImpl@@UAEPAVNodeImpl@@_N@Z 1204b250 f   AttrNSImpl.obj
 0001:0004a2c0       ?getPrefix@AttrNSImpl@@UAE?AVDOMString@@XZ 1204b2c0 f   AttrNSImpl.obj
 0001:0004a310       ?setPrefix@AttrNSImpl@@UAEXABVDOMString@@@Z 1204b310 f   AttrNSImpl.obj
 0001:0004a600       ??_OCDATASectionImpl@@QAEXABV0@@Z 1204b600 f i CDATASectionImpl.obj
 0001:0004a630       ??0CDATASectionImpl@@QAE@PAVDocumentImpl@@ABVDOMString@@@Z 1204b630 f   CDATASectionImpl.obj
 0001:0004a650       ??_ECDATASectionImpl@@UAEPAXI@Z 1204b650 f i CDATASectionImpl.obj
 0001:0004a6b0       ??0CDATASectionImpl@@QAE@ABV0@_N@Z 1204b6b0 f   CDATASectionImpl.obj
 0001:0004a6d0       ??1CDATASectionImpl@@UAE@XZ 1204b6d0 f   CDATASectionImpl.obj
 0001:0004a6e0       ?cloneNode@CDATASectionImpl@@UAEPAVNodeImpl@@_N@Z 1204b6e0 f   CDATASectionImpl.obj
 0001:0004a740       ?getNodeName@CDATASectionImpl@@UAE?AVDOMString@@XZ 1204b740 f   CDATASectionImpl.obj
 0001:0004a780       ?getNodeType@IDCDATASectionImpl@@UBEFXZ 1204b780 f   CDATASectionImpl.obj
 0001:0004a780       ?getNodeType@CDATASectionImpl@@UAEFXZ 1204b780 f   CDATASectionImpl.obj
 0001:0004a790       ?reinitCDATASectionImpl@CDATASectionImpl@@SAXXZ 1204b790 f   CDATASectionImpl.obj
 0001:0004a7c0       ??0CharacterDataImpl@@QAE@PAVDocumentImpl@@ABVDOMString@@@Z 1204b7c0 f   CharacterDataImpl.obj
 0001:0004a850       ??_ECharacterDataImpl@@UAEPAXI@Z 1204b850 f i CharacterDataImpl.obj
 0001:0004a8b0       ??0CharacterDataImpl@@QAE@ABV0@_N@Z 1204b8b0 f   CharacterDataImpl.obj
 0001:0004a940       ??1CharacterDataImpl@@UAE@XZ 1204b940 f   CharacterDataImpl.obj
 0001:0004a9a0       ?setNodeValue@CharacterDataImpl@@UAEXABVDOMString@@@Z 1204b9a0 f   CharacterDataImpl.obj
 0001:0004aad0       ?appendData@CharacterDataImpl@@UAEXABVDOMString@@@Z 1204bad0 f   CharacterDataImpl.obj
 0001:0004ab50       ?deleteData@CharacterDataImpl@@UAEXII@Z 1204bb50 f   CharacterDataImpl.obj
 0001:0004ac90       ?getData@CharacterDataImpl@@UAEAAVDOMString@@XZ 1204bc90 f   CharacterDataImpl.obj
 0001:0004aca0       ?getCharDataLength@CharacterDataImpl@@UAEIXZ 1204bca0 f   CharacterDataImpl.obj
 0001:0004acb0       ?insertData@CharacterDataImpl@@UAEXIABVDOMString@@@Z 1204bcb0 f   CharacterDataImpl.obj
 0001:0004ad30       ?replaceData@CharacterDataImpl@@UAEXIIABVDOMString@@@Z 1204bd30 f   CharacterDataImpl.obj
 0001:0004add0       ?setData@CharacterDataImpl@@UAEXABVDOMString@@@Z 1204bdd0 f   CharacterDataImpl.obj
 0001:0004ae70       ?substringData@CharacterDataImpl@@UAE?AVDOMString@@II@Z 1204be70 f   CharacterDataImpl.obj
 0001:0004aea0       ??0ChildNode@@QAE@PAVDocumentImpl@@@Z 1204bea0 f   ChildNode.obj
 0001:0004aed0       ??_EChildNode@@UAEPAXI@Z   1204bed0 f i ChildNode.obj
 0001:0004af30       ??0ChildNode@@QAE@ABV0@@Z  1204bf30 f   ChildNode.obj
 0001:0004af60       ??1ChildNode@@UAE@XZ       1204bf60 f   ChildNode.obj
 0001:0004af70       ?getPreviousSibling@ChildNode@@UAEPAVNodeImpl@@XZ 1204bf70 f   ChildNode.obj
 0001:0004af90       ??0CommentImpl@@QAE@ABV0@@Z 1204bf90 f i CommentImpl.obj
 0001:0004afb0       ??4CharacterDataImpl@@QAEAAV0@ABV0@@Z 1204bfb0 f i CommentImpl.obj
 0001:0004afb0       ??4TextImpl@@QAEAAV0@ABV0@@Z 1204bfb0 f i CommentImpl.obj
 0001:0004afb0       ??4CDATASectionImpl@@QAEAAV0@ABV0@@Z 1204bfb0 f i CommentImpl.obj
 0001:0004afb0       ??4CommentImpl@@QAEAAV0@ABV0@@Z 1204bfb0 f i CommentImpl.obj
 0001:0004aff0       ??_ECommentImpl@@UAEPAXI@Z 1204bff0 f i CommentImpl.obj
 0001:0004b070       ??0CommentImpl@@QAE@PAVDocumentImpl@@ABVDOMString@@@Z 1204c070 f   CommentImpl.obj
 0001:0004b090       ??0CommentImpl@@QAE@ABV0@_N@Z 1204c090 f   CommentImpl.obj
 0001:0004b0b0       ??1CommentImpl@@UAE@XZ     1204c0b0 f   CommentImpl.obj
 0001:0004b0c0       ?cloneNode@CommentImpl@@UAEPAVNodeImpl@@_N@Z 1204c0c0 f   CommentImpl.obj
 0001:0004b120       ?getNodeName@CommentImpl@@UAE?AVDOMString@@XZ 1204c120 f   CommentImpl.obj
 0001:0004b160       ?getNodeType@CommentImpl@@UAEFXZ 1204c160 f   CommentImpl.obj
 0001:0004b160       ?getNodeType@IDCommentImpl@@UBEFXZ 1204c160 f   CommentImpl.obj
 0001:0004b170       ?reinitCommentImpl@CommentImpl@@SAXXZ 1204c170 f   CommentImpl.obj
 0001:0004b1a0       ??0DeepNodeListImpl@@QAE@ABV0@@Z 1204c1a0 f i DeepNodeListImpl.obj
 0001:0004b240       ??4DeepNodeListImpl@@QAEAAV0@ABV0@@Z 1204c240 f i DeepNodeListImpl.obj
 0001:0004b2a0       ??_EDeepNodeListImpl@@UAEPAXI@Z 1204c2a0 f i DeepNodeListImpl.obj
 0001:0004b320       ??0DeepNodeListImpl@@QAE@PAVNodeImpl@@ABVDOMString@@@Z 1204c320 f   DeepNodeListImpl.obj
 0001:0004b400       ??0DeepNodeListImpl@@QAE@PAVNodeImpl@@ABVDOMString@@1@Z 1204c400 f   DeepNodeListImpl.obj
 0001:0004b510       ??1DeepNodeListImpl@@UAE@XZ 1204c510 f   DeepNodeListImpl.obj
 0001:0004b590       ?getLength@DeepNodeListImpl@@UAEIXZ 1204c590 f   DeepNodeListImpl.obj
 0001:0004b5b0       ?item@DeepNodeListImpl@@UAEPAVNodeImpl@@I@Z 1204c5b0 f   DeepNodeListImpl.obj
 0001:0004b640       ?nextMatchingElementAfter@DeepNodeListImpl@@EAEPAVNodeImpl@@PAV2@@Z 1204c640 f   DeepNodeListImpl.obj
 0001:0004b7d0       ?unreferenced@DeepNodeListImpl@@EAEXXZ 1204c7d0 f   DeepNodeListImpl.obj
 0001:0004b7e0       ?reinitDeepNodeListImpl@DeepNodeListImpl@@SAXXZ 1204c7e0 f   DeepNodeListImpl.obj
 0001:0004b810       ??0DocumentFragmentImpl@@QAE@ABV0@@Z 1204c810 f i DocumentFragmentImpl.obj
 0001:0004b830       ??_EDocumentFragmentImpl@@UAEPAXI@Z 1204c830 f i DocumentFragmentImpl.obj
 0001:0004b8b0       ??0DocumentFragmentImpl@@IAE@PAVDocumentImpl@@@Z 1204c8b0 f   DocumentFragmentImpl.obj
 0001:0004b8d0       ??0DocumentFragmentImpl@@AAE@ABV0@_N@Z 1204c8d0 f   DocumentFragmentImpl.obj
 0001:0004b930       ??1DocumentFragmentImpl@@UAE@XZ 1204c930 f   DocumentFragmentImpl.obj
 0001:0004b940       ?cloneNode@DocumentFragmentImpl@@UAEPAVNodeImpl@@_N@Z 1204c940 f   DocumentFragmentImpl.obj
 0001:0004b9d0       ?getNodeName@DocumentFragmentImpl@@UAE?AVDOMString@@XZ 1204c9d0 f   DocumentFragmentImpl.obj
 0001:0004ba10       ?reinitDocumentFragmentImpl@DocumentFragmentImpl@@SAXXZ 1204ca10 f   DocumentFragmentImpl.obj
 0001:0004ba40       ??4ElementNSImpl@@QAEAAV0@ABV0@@Z 1204ca40 f i DocumentImpl.obj
 0001:0004bac0       ??1ElementNSImpl@@UAE@XZ   1204cac0 f i DocumentImpl.obj
 0001:0004bb20       ??_OElementNSImpl@@QAEXABV0@@Z 1204cb20 f i DocumentImpl.obj
 0001:0004bb30       ??4ProcessingInstructionImpl@@QAEAAV0@ABV0@@Z 1204cb30 f i DocumentImpl.obj
 0001:0004bb80       ??_OProcessingInstructionImpl@@QAEXABV0@@Z 1204cb80 f i DocumentImpl.obj
 0001:0004bb90       ??1TreeWalkerImpl@@UAE@XZ  1204cb90 f i DocumentImpl.obj
 0001:0004bc10       ??0DocumentImpl@@QAE@XZ    1204cc10 f   DocumentImpl.obj
 0001:0004bca0       ??0DocumentImpl@@QAE@ABVDOMString@@0PAVDocumentTypeImpl@@@Z 1204cca0 f   DocumentImpl.obj
 0001:0004be00       ?setDocumentType@DocumentImpl@@AAEXPAVDocumentTypeImpl@@@Z 1204ce00 f   DocumentImpl.obj
 0001:0004bed0       ??1DocumentImpl@@UAE@XZ    1204ced0 f   DocumentImpl.obj
 0001:0004c050       ?cloneNode@DocumentImpl@@UAEPAVNodeImpl@@_N@Z 1204d050 f   DocumentImpl.obj
 0001:0004c140       ?getNodeName@DocumentImpl@@UAE?AVDOMString@@XZ 1204d140 f   DocumentImpl.obj
 0001:0004c180       ?getNodeType@DocumentImpl@@UAEFXZ 1204d180 f   DocumentImpl.obj
 0001:0004c180       ?getNodeType@IDDocumentImpl@@UBEFXZ 1204d180 f   DocumentImpl.obj
 0001:0004c190       ?createAttribute@DocumentImpl@@UAEPAVAttrImpl@@ABVDOMString@@@Z 1204d190 f   DocumentImpl.obj
 0001:0004c280       ?createCDATASection@DocumentImpl@@UAEPAVCDATASectionImpl@@ABVDOMString@@@Z 1204d280 f   DocumentImpl.obj
 0001:0004c2f0       ?createComment@DocumentImpl@@UAEPAVCommentImpl@@ABVDOMString@@@Z 1204d2f0 f   DocumentImpl.obj
 0001:0004c360       ?createDocumentFragment@DocumentImpl@@UAEPAVDocumentFragmentImpl@@XZ 1204d360 f   DocumentImpl.obj
 0001:0004c3c0       ?createDocumentType@DocumentImpl@@UAEPAVDocumentTypeImpl@@ABVDOMString@@@Z 1204d3c0 f   DocumentImpl.obj
 0001:0004c4b0       ?createDocumentType@DocumentImpl@@UAEPAVDocumentTypeImpl@@ABVDOMString@@00@Z 1204d4b0 f   DocumentImpl.obj
 0001:0004c5a0       ?createElement@DocumentImpl@@UAEPAVElementImpl@@ABVDOMString@@@Z 1204d5a0 f   DocumentImpl.obj
 0001:0004c6c0       ?createElement@DocumentImpl@@UAEPAVElementImpl@@PBG@Z 1204d6c0 f   DocumentImpl.obj
 0001:0004c750       ?createEntity@DocumentImpl@@UAEPAVEntityImpl@@ABVDOMString@@@Z 1204d750 f   DocumentImpl.obj
 0001:0004c840       ?createEntityReference@DocumentImpl@@UAEPAVEntityReferenceImpl@@ABVDOMString@@@Z 1204d840 f   DocumentImpl.obj
 0001:0004c930       ?createNotation@DocumentImpl@@UAEPAVNotationImpl@@ABVDOMString@@@Z 1204d930 f   DocumentImpl.obj
 0001:0004ca20       ?createProcessingInstruction@DocumentImpl@@UAEPAVProcessingInstructionImpl@@ABVDOMString@@0@Z 1204da20 f   DocumentImpl.obj
 0001:0004cb10       ?createTextNode@DocumentImpl@@UAEPAVTextImpl@@ABVDOMString@@@Z 1204db10 f   DocumentImpl.obj
 0001:0004cb80       ?createNodeIterator@DocumentImpl@@SAPAVNodeIteratorImpl@@VDOM_Node@@KPAVDOM_NodeFilter@@_N@Z 1204db80 f   DocumentImpl.obj
 0001:0004cd10       ?createTreeWalker@DocumentImpl@@SAPAVTreeWalkerImpl@@VDOM_Node@@KPAVDOM_NodeFilter@@_N@Z 1204dd10 f   DocumentImpl.obj
 0001:0004cea0       ?getElementsByTagName@DocumentImpl@@UAEPAVDeepNodeListImpl@@ABVDOMString@@@Z 1204dea0 f   DocumentImpl.obj
 0001:0004cf10       ?insertBefore@DocumentImpl@@UAEPAVNodeImpl@@PAV2@0@Z 1204df10 f   DocumentImpl.obj
 0001:0004cfd0       ?isXMLName@DocumentImpl@@SA_NABVDOMString@@@Z 1204dfd0 f   DocumentImpl.obj
 0001:0004d030       ?removeChild@DocumentImpl@@UAEPAVNodeImpl@@PAV2@@Z 1204e030 f   DocumentImpl.obj
 0001:0004d070       ?unreferenced@DocumentImpl@@UAEXXZ 1204e070 f   DocumentImpl.obj
 0001:0004d080       ?importNode@DocumentImpl@@UAEPAVNodeImpl@@PAV2@_N@Z 1204e080 f   DocumentImpl.obj
 0001:0004d930       ?createElementNS@DocumentImpl@@UAEPAVElementImpl@@ABVDOMString@@0@Z 1204e930 f   DocumentImpl.obj
 0001:0004da20       ?createAttributeNS@DocumentImpl@@UAEPAVAttrImpl@@ABVDOMString@@0@Z 1204ea20 f   DocumentImpl.obj
 0001:0004db00       ?getElementsByTagNameNS@DocumentImpl@@UAEPAVDeepNodeListImpl@@ABVDOMString@@0@Z 1204eb00 f   DocumentImpl.obj
 0001:0004db70       ?getElementById@DocumentImpl@@UAEPAVElementImpl@@ABVDOMString@@@Z 1204eb70 f   DocumentImpl.obj
 0001:0004dba0       ?indexofQualifiedName@DocumentImpl@@SAHABVDOMString@@@Z 1204eba0 f   DocumentImpl.obj
 0001:0004dc00       ?createXMLDecl@DocumentImpl@@UAEPAVXMLDeclImpl@@ABVDOMString@@00@Z 1204ec00 f   DocumentImpl.obj
 0001:0004dc70       ?createRange@DocumentImpl@@UAEPAVRangeImpl@@XZ 1204ec70 f   DocumentImpl.obj
 0001:0004ddb0       ?getRanges@DocumentImpl@@UAEPAV?$RefVectorOf@VRangeImpl@@@@XZ 1204edb0 f   DocumentImpl.obj
 0001:0004ddc0       ?removeRange@DocumentImpl@@UAEXPAVRangeImpl@@@Z 1204edc0 f   DocumentImpl.obj
 0001:0004ded0       ?isKidOK@DocumentImpl@@SA_NPAVNodeImpl@@0@Z 1204eed0 f   DocumentImpl.obj
 0001:0004df60       ?setUserData@DocumentImpl@@UAEXPAVNodeImpl@@PAX@Z 1204ef60 f   DocumentImpl.obj
 0001:0004e1d0       ?getUserData@DocumentImpl@@UAEPAXPAVNodeImpl@@@Z 1204f1d0 f   DocumentImpl.obj
 0001:0004e270       ?getUserData@DocumentImpl@@UAEPAXXZ 1204f270 f   DocumentImpl.obj
 0001:0004e290       ?setUserData@DocumentImpl@@UAEXPAX@Z 1204f290 f   DocumentImpl.obj
 0001:0004e2d0       ?changed@DocumentImpl@@UAEXXZ 1204f2d0 f   DocumentImpl.obj
 0001:0004e2e0       ?changes@DocumentImpl@@UAEHXZ 1204f2e0 f   DocumentImpl.obj
 0001:0004e2f0       ?reinitDocumentImpl@DocumentImpl@@SAXXZ 1204f2f0 f   DocumentImpl.obj
 0001:0004e320       ?removeAll@?$RefHashTableOf@X@@QAEXXZ 1204f320 f i DocumentImpl.obj
 0001:0004e320       ?removeAll@?$RefHash2KeysTableOf@G@@QAEXXZ 1204f320 f i DocumentImpl.obj
 0001:0004e380       ??0DocumentTypeImpl@@QAE@PAVDocumentImpl@@ABVDOMString@@@Z 1204f380 f   DocumentTypeImpl.obj
 0001:0004e4b0       ??_EDocumentTypeImpl@@UAEPAXI@Z 1204f4b0 f i DocumentTypeImpl.obj
 0001:0004e510       ??0DocumentTypeImpl@@QAE@PAVDocumentImpl@@ABVDOMString@@11@Z 1204f510 f   DocumentTypeImpl.obj
 0001:0004e690       ??0DocumentTypeImpl@@QAE@ABV0@_N@Z 1204f690 f   DocumentTypeImpl.obj
 0001:0004e800       ??1DocumentTypeImpl@@UAE@XZ 1204f800 f   DocumentTypeImpl.obj
 0001:0004e8d0       ?cloneNode@DocumentTypeImpl@@UAEPAVNodeImpl@@_N@Z 1204f8d0 f   DocumentTypeImpl.obj
 0001:0004e940       ?setOwnerDocument@DocumentTypeImpl@@UAEXPAVDocumentImpl@@@Z 1204f940 f   DocumentTypeImpl.obj
 0001:0004e970       ?getNodeName@ElementImpl@@UAE?AVDOMString@@XZ 1204f970 f   DocumentTypeImpl.obj
 0001:0004e970       ?getNodeName@EntityImpl@@UAE?AVDOMString@@XZ 1204f970 f   DocumentTypeImpl.obj
 0001:0004e970       ?getNodeName@DocumentTypeImpl@@UAE?AVDOMString@@XZ 1204f970 f   DocumentTypeImpl.obj
 0001:0004e970       ?getTagName@ElementImpl@@UAE?AVDOMString@@XZ 1204f970 f   DocumentTypeImpl.obj
 0001:0004e970       ?getNodeName@EntityReferenceImpl@@UAE?AVDOMString@@XZ 1204f970 f   DocumentTypeImpl.obj
 0001:0004e970       ?getName@DocumentTypeImpl@@UAE?AVDOMString@@XZ 1204f970 f   DocumentTypeImpl.obj
 0001:0004e990       ?getNodeType@IDDocumentTypeImpl@@UBEFXZ 1204f990 f   DocumentTypeImpl.obj
 0001:0004e990       ?getNodeType@DocumentTypeImpl@@UAEFXZ 1204f990 f   DocumentTypeImpl.obj
 0001:0004e9a0       ?getLocalName@IDElementNSImpl@@UBEPBGXZ 1204f9a0 f   DocumentTypeImpl.obj
 0001:0004e9a0       ?getAttributes@ElementImpl@@UAEPAVNamedNodeMapImpl@@XZ 1204f9a0 f   DocumentTypeImpl.obj
 0001:0004e9a0       ?getElements@IDDocumentTypeImpl@@UBEPAVIDOM_NamedNodeMap@@XZ 1204f9a0 f   DocumentTypeImpl.obj
 0001:0004e9a0       ?getEntities@DocumentTypeImpl@@UAEPAVNamedNodeMapImpl@@XZ 1204f9a0 f   DocumentTypeImpl.obj
 0001:0004e9a0       ?getDocumentElement@DocumentImpl@@UAEPAVElementImpl@@XZ 1204f9a0 f   DocumentTypeImpl.obj
 0001:0004e9b0       ?getSystemId@IDDocumentTypeImpl@@UBEPBGXZ 1204f9b0 f   DocumentTypeImpl.obj
 0001:0004e9b0       ?getElements@DocumentTypeImpl@@UAEPAVNamedNodeMapImpl@@XZ 1204f9b0 f   DocumentTypeImpl.obj
 0001:0004e9c0       ?getNotations@DocumentTypeImpl@@UAEPAVNamedNodeMapImpl@@XZ 1204f9c0 f   DocumentTypeImpl.obj
 0001:0004e9c0       ?getPrefix@IDElementNSImpl@@UBEPBGXZ 1204f9c0 f   DocumentTypeImpl.obj
 0001:0004e9c0       ?getEnumString@AbstractStringValidator@@UBEPBV?$RefVectorOf@G@@XZ 1204f9c0 f   DocumentTypeImpl.obj
 0001:0004e9c0       ?getRanges@IDDocumentImpl@@UBEPAV?$RefVectorOf@VIDRangeImpl@@@@XZ 1204f9c0 f   DocumentTypeImpl.obj
 0001:0004e9c0       ?getPublicId@IDDocumentTypeImpl@@UBEPBGXZ 1204f9c0 f   DocumentTypeImpl.obj
 0001:0004e9d0       ?setReadOnly@DocumentTypeImpl@@UAEX_N0@Z 1204f9d0 f   DocumentTypeImpl.obj
 0001:0004ea00       ?getPublicId@DocumentTypeImpl@@UAE?AVDOMString@@XZ 1204fa00 f   DocumentTypeImpl.obj
 0001:0004ea20       ?getSystemId@DocumentTypeImpl@@UAE?AVDOMString@@XZ 1204fa20 f   DocumentTypeImpl.obj
 0001:0004ea40       ?getInternalSubset@DocumentTypeImpl@@UAE?AVDOMString@@XZ 1204fa40 f   DocumentTypeImpl.obj
 0001:0004ea60       ?isIntSubsetReading@DocumentTypeImpl@@AAE_NXZ 1204fa60 f   DocumentTypeImpl.obj
 0001:0004ea70       ?setPublicId@DocumentTypeImpl@@EAEXABVDOMString@@@Z 1204fa70 f   DocumentTypeImpl.obj
 0001:0004eae0       ?setSystemId@DocumentTypeImpl@@EAEXABVDOMString@@@Z 1204fae0 f   DocumentTypeImpl.obj
 0001:0004eb50       ?setInternalSubset@DocumentTypeImpl@@EAEXABVDOMString@@@Z 1204fb50 f   DocumentTypeImpl.obj
 0001:0004ebc0       ?getName@DOM_Attr@@QBE?AVDOMString@@XZ 1204fbc0 f   DOM_Attr.obj
 0001:0004ec30       ?getSpecified@DOM_Attr@@QBE_NXZ 1204fc30 f   DOM_Attr.obj
 0001:0004ec40       ?getValue@DOM_Attr@@QBE?AVDOMString@@XZ 1204fc40 f   DOM_Attr.obj
 0001:0004ec60       ?getOwnerElement@DOM_Attr@@QBE?AVDOM_Element@@XZ 1204fc60 f   DOM_Attr.obj
 0001:0004ec90       ??0DOM_CDATASection@@QAE@XZ 1204fc90 f   DOM_CDATASection.obj
 0001:0004eca0       ??0DOM_CDATASection@@QAE@ABV0@@Z 1204fca0 f   DOM_CDATASection.obj
 0001:0004ecc0       ??0DOM_CDATASection@@IAE@PAVCDATASectionImpl@@@Z 1204fcc0 f   DOM_CDATASection.obj
 0001:0004ece0       ??1DOM_CDATASection@@QAE@XZ 1204fce0 f   DOM_CDATASection.obj
 0001:0004ecf0       ??4DOM_CDATASection@@QAEAAV0@ABV0@@Z 1204fcf0 f   DOM_CDATASection.obj
 0001:0004ed00       ?getData@DOM_CharacterData@@QBE?AVDOMString@@XZ 1204fd00 f   DOM_CharacterData.obj
 0001:0004ed30       ?setData@DOM_CharacterData@@QAEXABVDOMString@@@Z 1204fd30 f   DOM_CharacterData.obj
 0001:0004ed50       ?getLength@DOM_CharacterData@@QBEIXZ 1204fd50 f   DOM_CharacterData.obj
 0001:0004ed60       ?substringData@DOM_CharacterData@@QBE?AVDOMString@@II@Z 1204fd60 f   DOM_CharacterData.obj
 0001:0004ed90       ?appendData@DOM_CharacterData@@QAEXABVDOMString@@@Z 1204fd90 f   DOM_CharacterData.obj
 0001:0004edb0       ?insertData@DOM_CharacterData@@QAEXIABVDOMString@@@Z 1204fdb0 f   DOM_CharacterData.obj
 0001:0004edd0       ?deleteData@DOM_CharacterData@@QAEXII@Z 1204fdd0 f   DOM_CharacterData.obj
 0001:0004edf0       ?replaceData@DOM_CharacterData@@QAEXIIABVDOMString@@@Z 1204fdf0 f   DOM_CharacterData.obj
 0001:0004ee10       ??0DOM_Comment@@IAE@PAVCommentImpl@@@Z 1204fe10 f   DOM_Comment.obj
 0001:0004ee10       ??0DOM_Text@@IAE@PAVTextImpl@@@Z 1204fe10 f   DOM_Comment.obj
 0001:0004ee30       ?createDocument@DOM_Document@@SA?AV1@XZ 1204fe30 f   DOM_Document.obj
 0001:0004eea0       ?createNotation@DOM_Document@@QAE?AVDOM_Notation@@ABVDOMString@@@Z 1204fea0 f   DOM_Document.obj
 0001:0004eed0       ?getDoctype@DOM_Document@@QBE?AVDOM_DocumentType@@XZ 1204fed0 f   DOM_Document.obj
 0001:0004ef00       ?getImplementation@DOM_Document@@QBEAAVDOM_DOMImplementation@@XZ 1204ff00 f   DOM_Document.obj
 0001:0004ef10       ?getDocumentElement@DOM_Document@@QBE?AVDOM_Element@@XZ 1204ff10 f   DOM_Document.obj
 0001:0004ef40       ?createElement@DOM_Document@@QAE?AVDOM_Element@@ABVDOMString@@@Z 1204ff40 f   DOM_Document.obj
 0001:0004ef70       ?createElement@DOM_Document@@QAE?AVDOM_Element@@PBG@Z 1204ff70 f   DOM_Document.obj
 0001:0004efa0       ?createEntity@DOM_Document@@QAE?AVDOM_Entity@@ABVDOMString@@@Z 1204ffa0 f   DOM_Document.obj
 0001:0004efa0       ?splitText@DOM_Text@@QAE?AV1@I@Z 1204ffa0 f   DOM_Document.obj
 0001:0004efd0       ?createDocumentFragment@DOM_Document@@QAE?AVDOM_DocumentFragment@@XZ 1204ffd0 f   DOM_Document.obj
 0001:0004f000       ?createDocumentType@DOM_Document@@QAE?AVDOM_DocumentType@@ABVDOMString@@@Z 12050000 f   DOM_Document.obj
 0001:0004f030       ?createTextNode@DOM_Document@@QAE?AVDOM_Text@@ABVDOMString@@@Z 12050030 f   DOM_Document.obj
 0001:0004f060       ?createComment@DOM_Document@@QAE?AVDOM_Comment@@ABVDOMString@@@Z 12050060 f   DOM_Document.obj
 0001:0004f090       ?createCDATASection@DOM_Document@@QAE?AVDOM_CDATASection@@ABVDOMString@@@Z 12050090 f   DOM_Document.obj
 0001:0004f0c0       ?createProcessingInstruction@DOM_Document@@QAE?AVDOM_ProcessingInstruction@@ABVDOMString@@0@Z 120500c0 f   DOM_Document.obj
 0001:0004f0c0       ?getAttributeNodeNS@DOM_Element@@QBE?AVDOM_Attr@@ABVDOMString@@0@Z 120500c0 f   DOM_Document.obj
 0001:0004f100       ?createAttribute@DOM_Document@@QAE?AVDOM_Attr@@ABVDOMString@@@Z 12050100 f   DOM_Document.obj
 0001:0004f130       ?createEntityReference@DOM_Document@@QAE?AVDOM_EntityReference@@ABVDOMString@@@Z 12050130 f   DOM_Document.obj
 0001:0004f160       ?createNodeIterator@DOM_Document@@QAE?AVDOM_NodeIterator@@VDOM_Node@@KPAVDOM_NodeFilter@@_N@Z 12050160 f   DOM_Document.obj
 0001:0004f1f0       ?createTreeWalker@DOM_Document@@QAE?AVDOM_TreeWalker@@VDOM_Node@@KPAVDOM_NodeFilter@@_N@Z 120501f0 f   DOM_Document.obj
 0001:0004f280       ?getElementsByTagName@DOM_Document@@QBE?AVDOM_NodeList@@ABVDOMString@@@Z 12050280 f   DOM_Document.obj
 0001:0004f2b0       ?importNode@DOM_Document@@QAE?AVDOM_Node@@ABV2@_N@Z 120502b0 f   DOM_Document.obj
 0001:0004f2f0       ?createElementNS@DOM_Document@@QAE?AVDOM_Element@@ABVDOMString@@0@Z 120502f0 f   DOM_Document.obj
 0001:0004f330       ?createAttributeNS@DOM_Document@@QAE?AVDOM_Attr@@ABVDOMString@@0@Z 12050330 f   DOM_Document.obj
 0001:0004f370       ?getElementsByTagNameNS@DOM_Document@@QBE?AVDOM_NodeList@@ABVDOMString@@0@Z 12050370 f   DOM_Document.obj
 0001:0004f3b0       ?getElementById@DOM_Document@@QAE?AVDOM_Element@@ABVDOMString@@@Z 120503b0 f   DOM_Document.obj
 0001:0004f3e0       ?createXMLDecl@DOM_Document@@QAE?AVDOM_XMLDecl@@ABVDOMString@@00@Z 120503e0 f   DOM_Document.obj
 0001:0004f420       ?createRange@DOM_Document@@QAE?AVDOM_Range@@XZ 12050420 f   DOM_Document.obj
 0001:0004f450       ?setErrorChecking@DOM_Document@@QAEX_N@Z 12050450 f   DOM_Document.obj
 0001:0004f460       ?getErrorChecking@DOM_Document@@QAE_NXZ 12050460 f   DOM_Document.obj
 0001:0004f470       ??0DOM_DocumentType@@QAE@H@Z 12050470 f   DOM_DocumentType.obj
 0001:0004f480       ??0DOM_Attr@@QAE@ABV0@@Z   12050480 f   DOM_DocumentType.obj
 0001:0004f480       ??0DOM_ProcessingInstruction@@QAE@ABV0@@Z 12050480 f   DOM_DocumentType.obj
 0001:0004f480       ??0DOM_XMLDecl@@QAE@ABV0@@Z 12050480 f   DOM_DocumentType.obj
 0001:0004f480       ??0DOM_Element@@QAE@ABV0@@Z 12050480 f   DOM_DocumentType.obj
 0001:0004f480       ??0DOM_CharacterData@@QAE@ABV0@@Z 12050480 f   DOM_DocumentType.obj
 0001:0004f480       ??0DOM_DocumentType@@QAE@ABV0@@Z 12050480 f   DOM_DocumentType.obj
 0001:0004f480       ??0DOM_Notation@@QAE@ABV0@@Z 12050480 f   DOM_DocumentType.obj
 0001:0004f480       ??0DOM_EntityReference@@QAE@ABV0@@Z 12050480 f   DOM_DocumentType.obj
 0001:0004f480       ??0DOM_Entity@@QAE@ABV0@@Z 12050480 f   DOM_DocumentType.obj
 0001:0004f480       ??0DOM_DocumentFragment@@QAE@ABV0@@Z 12050480 f   DOM_DocumentType.obj
 0001:0004f480       ??0DOM_Document@@QAE@ABV0@@Z 12050480 f   DOM_DocumentType.obj
 0001:0004f4a0       ??0DOM_DocumentFragment@@IAE@PAVDocumentFragmentImpl@@@Z 120504a0 f   DOM_DocumentType.obj
 0001:0004f4a0       ??0DOM_ProcessingInstruction@@IAE@PAVProcessingInstructionImpl@@@Z 120504a0 f   DOM_DocumentType.obj
 0001:0004f4a0       ??0DOM_Notation@@IAE@PAVNotationImpl@@@Z 120504a0 f   DOM_DocumentType.obj
 0001:0004f4a0       ??0DOM_Document@@IAE@PAVDocumentImpl@@@Z 120504a0 f   DOM_DocumentType.obj
 0001:0004f4a0       ??0DOM_DocumentType@@IAE@PAVDocumentTypeImpl@@@Z 120504a0 f   DOM_DocumentType.obj
 0001:0004f4a0       ??0DOM_CharacterData@@IAE@PAVCharacterDataImpl@@@Z 120504a0 f   DOM_DocumentType.obj
 0001:0004f4a0       ??0DOM_XMLDecl@@IAE@PAVXMLDeclImpl@@@Z 120504a0 f   DOM_DocumentType.obj
 0001:0004f4a0       ??0DOM_Element@@IAE@PAVElementImpl@@@Z 120504a0 f   DOM_DocumentType.obj
 0001:0004f4a0       ??0DOM_Attr@@IAE@PAVAttrImpl@@@Z 120504a0 f   DOM_DocumentType.obj
 0001:0004f4a0       ??0DOM_EntityReference@@IAE@PAVEntityReferenceImpl@@@Z 120504a0 f   DOM_DocumentType.obj
 0001:0004f4a0       ??0DOM_Entity@@IAE@PAVEntityImpl@@@Z 120504a0 f   DOM_DocumentType.obj
 0001:0004f4c0       ?getName@DOM_DocumentType@@QBE?AVDOMString@@XZ 120504c0 f   DOM_DocumentType.obj
 0001:0004f530       ?getEntities@DOM_DocumentType@@QBE?AVDOM_NamedNodeMap@@XZ 12050530 f   DOM_DocumentType.obj
 0001:0004f560       ?getNotations@DOM_DocumentType@@QBE?AVDOM_NamedNodeMap@@XZ 12050560 f   DOM_DocumentType.obj
 0001:0004f590       ?getPublicId@DOM_DocumentType@@QBE?AVDOMString@@XZ 12050590 f   DOM_DocumentType.obj
 0001:0004f600       ?getSystemId@DOM_DocumentType@@QBE?AVDOMString@@XZ 12050600 f   DOM_DocumentType.obj
 0001:0004f670       ?getInternalSubset@DOM_DocumentType@@QBE?AVDOMString@@XZ 12050670 f   DOM_DocumentType.obj
 0001:0004f6e0       ??0DOM_DOMException@@QAE@XZ 120506e0 f   DOM_DOMException.obj
 0001:0004f700       ??_EDOM_DOMException@@UAEPAXI@Z 12050700 f i DOM_DOMException.obj
 0001:0004f760       ??0DOM_DOMException@@QAE@FABVDOMString@@@Z 12050760 f   DOM_DOMException.obj
 0001:0004f790       ??0DOM_DOMException@@QAE@ABV0@@Z 12050790 f   DOM_DOMException.obj
 0001:0004f7c0       ??1DOM_DOMException@@UAE@XZ 120507c0 f   DOM_DOMException.obj
 0001:0004f7f0       ?getChildNodes@AttrImpl@@UAEPAVNodeListImpl@@XZ 120507f0 f   DOM_DOMImplementation.obj
 0001:0004f7f0       ??0DOM_DOMImplementation@@QAE@XZ 120507f0 f   DOM_DOMImplementation.obj
 0001:0004f7f0       ?getChildNodes@NodeImpl@@UAEPAVNodeListImpl@@XZ 120507f0 f   DOM_DOMImplementation.obj
 0001:0004f7f0       ?getChildNodes@ParentNode@@UAEPAVNodeListImpl@@XZ 120507f0 f   DOM_DOMImplementation.obj
 0001:0004f800       ??0DOM_DOMImplementation@@AAE@ABV0@@Z 12050800 f   DOM_DOMImplementation.obj
 0001:0004f800       ??4DOM_DOMImplementation@@QAEAAV0@ABV0@@Z 12050800 f   DOM_DOMImplementation.obj
 0001:0004f810       ?getImplementation@DOM_DOMImplementation@@SAAAV1@XZ 12050810 f   DOM_DOMImplementation.obj
 0001:0004f920       ?hasFeature@DOM_DOMImplementation@@QAE_NABVDOMString@@0@Z 12050920 f   DOM_DOMImplementation.obj
 0001:0004faf0       ?createDocumentType@DOM_DOMImplementation@@QAE?AVDOM_DocumentType@@ABVDOMString@@00@Z 12050af0 f   DOM_DOMImplementation.obj
 0001:0004fbb0       ?createDocument@DOM_DOMImplementation@@QAE?AVDOM_Document@@ABVDOMString@@0ABVDOM_DocumentType@@@Z 12050bb0 f   DOM_DOMImplementation.obj
 0001:0004fc50       ?reinitDOM_DOMImplementation@DOM_DOMImplementation@@SAXXZ 12050c50 f   DOM_DOMImplementation.obj
 0001:0004fd20       ?getTagName@DOM_Element@@QBE?AVDOMString@@XZ 12050d20 f   DOM_Element.obj
 0001:0004fd90       ?getAttribute@DOM_Element@@QBE?AVDOMString@@ABV2@@Z 12050d90 f   DOM_Element.obj
 0001:0004fe10       ?setAttribute@DOM_Element@@QAEXABVDOMString@@0@Z 12050e10 f   DOM_Element.obj
 0001:0004fe30       ?removeAttribute@DOM_Element@@QAEXABVDOMString@@@Z 12050e30 f   DOM_Element.obj
 0001:0004fe30       ?setValue@DOM_Attr@@QAEXABVDOMString@@@Z 12050e30 f   DOM_Element.obj
 0001:0004fe50       ?getAttributeNode@DOM_Element@@QBE?AVDOM_Attr@@ABVDOMString@@@Z 12050e50 f   DOM_Element.obj
 0001:0004fe80       ?setAttributeNode@DOM_Element@@QAE?AVDOM_Attr@@V2@@Z 12050e80 f   DOM_Element.obj
 0001:0004fef0       ?removeAttributeNode@DOM_Element@@QAE?AVDOM_Attr@@V2@@Z 12050ef0 f   DOM_Element.obj
 0001:0004ff60       ?getElementsByTagName@DOM_Element@@QBE?AVDOM_NodeList@@ABVDOMString@@@Z 12050f60 f   DOM_Element.obj
 0001:0004ff90       ?getAttributeNS@DOM_Element@@QBE?AVDOMString@@ABV2@0@Z 12050f90 f   DOM_Element.obj
 0001:00050010       ?setAttributeNS@DOM_Element@@QAEXABVDOMString@@00@Z 12051010 f   DOM_Element.obj
 0001:00050030       ?removeAttributeNS@DOM_Element@@QAEXABVDOMString@@0@Z 12051030 f   DOM_Element.obj
 0001:00050050       ?setAttributeNodeNS@DOM_Element@@QAE?AVDOM_Attr@@V2@@Z 12051050 f   DOM_Element.obj
 0001:000500c0       ?getElementsByTagNameNS@DOM_Element@@QBE?AVDOM_NodeList@@ABVDOMString@@0@Z 120510c0 f   DOM_Element.obj
 0001:00050100       ?hasAttributes@DOM_Element@@QBE_NXZ 12051100 f   DOM_Element.obj
 0001:00050100       ?hasAttributes@DOM_Node@@QBE_NXZ 12051100 f   DOM_Element.obj
 0001:00050110       ?hasAttribute@DOM_Element@@QBE_NABVDOMString@@@Z 12051110 f   DOM_Element.obj
 0001:00050130       ?hasAttributeNS@DOM_Element@@QBE_NABVDOMString@@0@Z 12051130 f   DOM_Element.obj
 0001:00050150       ?getPublicId@DOM_Entity@@QBE?AVDOMString@@XZ 12051150 f   DOM_Entity.obj
 0001:000501c0       ?getSystemId@DOM_Entity@@QBE?AVDOMString@@XZ 120511c0 f   DOM_Entity.obj
 0001:00050230       ?getNotationName@DOM_Entity@@QBE?AVDOMString@@XZ 12051230 f   DOM_Entity.obj
 0001:000502a0       ?getFirstChild@DOM_Entity@@QBE?AVDOM_Node@@XZ 120512a0 f   DOM_Entity.obj
 0001:000502d0       ?getLastChild@DOM_Entity@@QBE?AVDOM_Node@@XZ 120512d0 f   DOM_Entity.obj
 0001:00050300       ?getChildNodes@DOM_Entity@@QBE?AVDOM_NodeList@@XZ 12051300 f   DOM_Entity.obj
 0001:00050300       ?getChildNodes@DOM_Node@@QBE?AVDOM_NodeList@@XZ 12051300 f   DOM_Entity.obj
 0001:00050320       ?hasChildNodes@DOM_Node@@QBE_NXZ 12051320 f   DOM_Entity.obj
 0001:00050320       ?hasChildNodes@DOM_Entity@@QBE_NXZ 12051320 f   DOM_Entity.obj
 0001:00050330       ?getPreviousSibling@DOM_Entity@@QBE?AVDOM_Node@@XZ 12051330 f   DOM_Entity.obj
 0001:00050360       ?getNextSibling@DOM_Entity@@QBE?AVDOM_Node@@XZ 12051360 f   DOM_Entity.obj
 0001:00050390       ??0DOM_NamedNodeMap@@QAE@XZ 12051390 f   DOM_NamedNodeMap.obj
 0001:000503a0       ??0DOM_NamedNodeMap@@QAE@ABV0@@Z 120513a0 f   DOM_NamedNodeMap.obj
 0001:000503e0       ??0DOM_NamedNodeMap@@IAE@PAVNamedNodeMapImpl@@@Z 120513e0 f   DOM_NamedNodeMap.obj
 0001:00050410       ??0DOM_NamedNodeMap@@IAE@PAVNodeImpl@@@Z 12051410 f   DOM_NamedNodeMap.obj
 0001:00050430       ??1DOM_NamedNodeMap@@QAE@XZ 12051430 f   DOM_NamedNodeMap.obj
 0001:00050450       ??4DOM_NamedNodeMap@@QAEAAV0@ABV0@@Z 12051450 f   DOM_NamedNodeMap.obj
 0001:000504b0       ??4DOM_NamedNodeMap@@QAEAAV0@PBVDOM_NullPtr@@@Z 120514b0 f   DOM_NamedNodeMap.obj
 0001:000504f0       ?getNamedItem@DOM_NamedNodeMap@@QBE?AVDOM_Node@@ABVDOMString@@@Z 120514f0 f   DOM_NamedNodeMap.obj
 0001:000505c0       ?setNamedItem@DOM_NamedNodeMap@@QAE?AVDOM_Node@@V2@@Z 120515c0 f   DOM_NamedNodeMap.obj
 0001:000506b0       ?removeNamedItem@DOM_NamedNodeMap@@QAE?AVDOM_Node@@ABVDOMString@@@Z 120516b0 f   DOM_NamedNodeMap.obj
 0001:00050780       ?item@DOM_NamedNodeMap@@QBE?AVDOM_Node@@I@Z 12051780 f   DOM_NamedNodeMap.obj
 0001:00050850       ?getLength@DOM_NamedNodeMap@@QBEIXZ 12051850 f   DOM_NamedNodeMap.obj
 0001:00050870       ?getNamedItemNS@DOM_NamedNodeMap@@QAE?AVDOM_Node@@ABVDOMString@@0@Z 12051870 f   DOM_NamedNodeMap.obj
 0001:00050940       ?setNamedItemNS@DOM_NamedNodeMap@@QAE?AVDOM_Node@@V2@@Z 12051940 f   DOM_NamedNodeMap.obj
 0001:00050a30       ?removeNamedItemNS@DOM_NamedNodeMap@@QAE?AVDOM_Node@@ABVDOMString@@0@Z 12051a30 f   DOM_NamedNodeMap.obj
 0001:00050b00       ?appendChild@DOM_Node@@QAE?AV1@ABV1@@Z 12051b00 f   DOM_Node.obj
 0001:00050b30       ?cloneNode@DOM_Node@@QBE?AV1@_N@Z 12051b30 f   DOM_Node.obj
 0001:00050b60       ?getNodeName@DOM_Node@@QBE?AVDOMString@@XZ 12051b60 f   DOM_Node.obj
 0001:00050bd0       ?getNodeValue@DOM_Node@@QBE?AVDOMString@@XZ 12051bd0 f   DOM_Node.obj
 0001:00050c40       ?getNodeType@DOM_Node@@QBEFXZ 12051c40 f   DOM_Node.obj
 0001:00050c50       ?getParentNode@DOM_Node@@QBE?AV1@XZ 12051c50 f   DOM_Node.obj
 0001:00050c80       ?getFirstChild@DOM_Node@@QBE?AV1@XZ 12051c80 f   DOM_Node.obj
 0001:00050cb0       ?getLastChild@DOM_Node@@QBE?AV1@XZ 12051cb0 f   DOM_Node.obj
 0001:00050ce0       ?getPreviousSibling@DOM_Node@@QBE?AV1@XZ 12051ce0 f   DOM_Node.obj
 0001:00050d10       ?getNextSibling@DOM_Node@@QBE?AV1@XZ 12051d10 f   DOM_Node.obj
 0001:00050d40       ?getUserData@DOM_Node@@QBEPAXXZ 12051d40 f   DOM_Node.obj
 0001:00050d50       ?getAttributes@DOM_Node@@QBE?AVDOM_NamedNodeMap@@XZ 12051d50 f   DOM_Node.obj
 0001:00050e50       ?getOwnerDocument@DOM_Node@@QBE?AVDOM_Document@@XZ 12051e50 f   DOM_Node.obj
 0001:00050e80       ?insertBefore@DOM_Node@@QAE?AV1@ABV1@0@Z 12051e80 f   DOM_Node.obj
 0001:00050ec0       ?isNull@DOM_Node@@QBE_NXZ  12051ec0 f   DOM_Node.obj
 0001:00050ed0       ?replaceChild@DOM_Node@@QAE?AV1@ABV1@0@Z 12051ed0 f   DOM_Node.obj
 0001:00050f10       ?removeChild@DOM_Node@@QAE?AV1@ABV1@@Z 12051f10 f   DOM_Node.obj
 0001:00050f40       ?setNodeValue@DOM_Node@@QAEXABVDOMString@@@Z 12051f40 f   DOM_Node.obj
 0001:00050f60       ?setUserData@DOM_Node@@QAEXPAX@Z 12051f60 f   DOM_Node.obj
 0001:00050f80       ?normalize@DOM_Node@@QAEXXZ 12051f80 f   DOM_Node.obj
 0001:00050f90       ?isSupported@DOM_Node@@QBE_NABVDOMString@@0@Z 12051f90 f   DOM_Node.obj
 0001:00050fb0       ?getNamespaceURI@DOM_Node@@QBE?AVDOMString@@XZ 12051fb0 f   DOM_Node.obj
 0001:00051020       ?getPrefix@DOM_Node@@QBE?AVDOMString@@XZ 12052020 f   DOM_Node.obj
 0001:00051090       ?getLocalName@DOM_Node@@QBE?AVDOMString@@XZ 12052090 f   DOM_Node.obj
 0001:00051100       ?setPrefix@DOM_Node@@QAEXABVDOMString@@@Z 12052100 f   DOM_Node.obj
 0001:00051120       ??0DOM_NodeFilter@@QAE@XZ  12052120 f   DOM_NodeFilter.obj
 0001:00051130       ??_EDOM_NodeFilter@@UAEPAXI@Z 12052130 f i DOM_NodeFilter.obj
 0001:00051190       ??1DOM_NodeFilter@@UAE@XZ  12052190 f   DOM_NodeFilter.obj
 0001:000511a0       ?detach@DOM_NodeIterator@@QAEXXZ 120521a0 f   DOM_NodeIterator.obj
 0001:000511b0       ?getRoot@DOM_NodeIterator@@QAE?AVDOM_Node@@XZ 120521b0 f   DOM_NodeIterator.obj
 0001:000511b0       ?getStartContainer@DOM_Range@@QBE?AVDOM_Node@@XZ 120521b0 f   DOM_NodeIterator.obj
 0001:000511d0       ?getFilter@DOM_TreeWalker@@QAEPAVDOM_NodeFilter@@XZ 120521d0 f   DOM_NodeIterator.obj
 0001:000511d0       ?getWhatToShow@DOM_NodeIterator@@QAEKXZ 120521d0 f   DOM_NodeIterator.obj
 0001:000511d0       ?getStartOffset@DOM_Range@@QBEIXZ 120521d0 f   DOM_NodeIterator.obj
 0001:000511e0       ?getFilter@DOM_NodeIterator@@QAEPAVDOM_NodeFilter@@XZ 120521e0 f   DOM_NodeIterator.obj
 0001:000511f0       ?getExpandEntityReferences@DOM_NodeIterator@@QAE_NXZ 120521f0 f   DOM_NodeIterator.obj
 0001:00051200       ?nextNode@DOM_NodeIterator@@QAE?AVDOM_Node@@XZ 12052200 f   DOM_NodeIterator.obj
 0001:00051220       ?previousNode@DOM_NodeIterator@@QAE?AVDOM_Node@@XZ 12052220 f   DOM_NodeIterator.obj
 0001:00051240       ??8DOM_Range@@QBE_NABV0@@Z 12052240 f   DOM_NodeList.obj
 0001:00051240       ??8DOM_NamedNodeMap@@QBE_NABV0@@Z 12052240 f   DOM_NodeList.obj
 0001:00051240       ??8DOM_NodeIterator@@QBE_NABV0@@Z 12052240 f   DOM_NodeList.obj
 0001:00051240       ??8DOM_TreeWalker@@QBE_NABV0@@Z 12052240 f   DOM_NodeList.obj
 0001:00051240       ??8DOM_NodeList@@QBE_NABV0@@Z 12052240 f   DOM_NodeList.obj
 0001:00051240       ??8DOMString@@QBE_NABV0@@Z 12052240 f   DOM_NodeList.obj
 0001:00051240       ??8DOM_Node@@QBE_NABV0@@Z  12052240 f   DOM_NodeList.obj
 0001:00051250       ??8DOM_Node@@QBE_NPBVDOM_NullPtr@@@Z 12052250 f   DOM_NodeList.obj
 0001:00051250       ??8DOM_NamedNodeMap@@QBE_NPBVDOM_NullPtr@@@Z 12052250 f   DOM_NodeList.obj
 0001:00051250       ??8DOM_NodeList@@QBE_NPBVDOM_NullPtr@@@Z 12052250 f   DOM_NodeList.obj
 0001:00051250       ??8DOMString@@QBE_NPBVDOM_NullPtr@@@Z 12052250 f   DOM_NodeList.obj
 0001:00051250       ??8DOM_TreeWalker@@QBE_NPBVDOM_NullPtr@@@Z 12052250 f   DOM_NodeList.obj
 0001:00051250       ??8DOM_NodeIterator@@QBE_NPBVDOM_NullPtr@@@Z 12052250 f   DOM_NodeList.obj
 0001:00051250       ??8DOM_Range@@QBE_NPBVDOM_NullPtr@@@Z 12052250 f   DOM_NodeList.obj
 0001:00051260       ??9DOM_Node@@QBE_NPBVDOM_NullPtr@@@Z 12052260 f   DOM_NodeList.obj
 0001:00051260       ??9DOMString@@QBE_NPBVDOM_NullPtr@@@Z 12052260 f   DOM_NodeList.obj
 0001:00051260       ??9DOM_TreeWalker@@QBE_NPBVDOM_NullPtr@@@Z 12052260 f   DOM_NodeList.obj
 0001:00051260       ??9DOM_NamedNodeMap@@QBE_NPBVDOM_NullPtr@@@Z 12052260 f   DOM_NodeList.obj
 0001:00051260       ??9DOM_NodeList@@QBE_NPBVDOM_NullPtr@@@Z 12052260 f   DOM_NodeList.obj
 0001:00051260       ??9DOM_NodeIterator@@QBE_NPBVDOM_NullPtr@@@Z 12052260 f   DOM_NodeList.obj
 0001:00051260       ??9DOM_Range@@QBE_NPBVDOM_NullPtr@@@Z 12052260 f   DOM_NodeList.obj
 0001:00051270       ?item@DOM_NodeList@@QBE?AVDOM_Node@@I@Z 12052270 f   DOM_NodeList.obj
 0001:000512a0       ?getLength@DOM_NodeList@@QBEIXZ 120522a0 f   DOM_NodeList.obj
 0001:000512b0       ?getPublicId@DOM_Notation@@QBE?AVDOMString@@XZ 120522b0 f   DOM_Notation.obj
 0001:000512d0       ?getSystemId@DOM_Notation@@QBE?AVDOMString@@XZ 120522d0 f   DOM_Notation.obj
 0001:000512f0       ??0DOM_DocumentType@@QAE@XZ 120522f0 f   DOM_ProcessingInstruction.obj
 0001:000512f0       ??0DOM_DocumentFragment@@QAE@XZ 120522f0 f   DOM_ProcessingInstruction.obj
 0001:000512f0       ??0DOM_Attr@@QAE@XZ        120522f0 f   DOM_ProcessingInstruction.obj
 0001:000512f0       ??0DOM_EntityReference@@QAE@XZ 120522f0 f   DOM_ProcessingInstruction.obj
 0001:000512f0       ??0DOM_Entity@@QAE@XZ      120522f0 f   DOM_ProcessingInstruction.obj
 0001:000512f0       ??0DOM_CharacterData@@QAE@XZ 120522f0 f   DOM_ProcessingInstruction.obj
 0001:000512f0       ??0DOM_Notation@@QAE@XZ    120522f0 f   DOM_ProcessingInstruction.obj
 0001:000512f0       ??0DOM_ProcessingInstruction@@QAE@XZ 120522f0 f   DOM_ProcessingInstruction.obj
 0001:000512f0       ??0DOM_XMLDecl@@QAE@XZ     120522f0 f   DOM_ProcessingInstruction.obj
 0001:000512f0       ??0DOM_Document@@QAE@XZ    120522f0 f   DOM_ProcessingInstruction.obj
 0001:000512f0       ??0DOM_Element@@QAE@XZ     120522f0 f   DOM_ProcessingInstruction.obj
 0001:00051300       ??1DOM_ProcessingInstruction@@QAE@XZ 12052300 f   DOM_ProcessingInstruction.obj
 0001:00051300       ??1DOM_Element@@QAE@XZ     12052300 f   DOM_ProcessingInstruction.obj
 0001:00051300       ??1DOM_EntityReference@@QAE@XZ 12052300 f   DOM_ProcessingInstruction.obj
 0001:00051300       ??1DOM_Entity@@QAE@XZ      12052300 f   DOM_ProcessingInstruction.obj
 0001:00051300       ??1DOM_Attr@@QAE@XZ        12052300 f   DOM_ProcessingInstruction.obj
 0001:00051300       ??1DOM_DocumentType@@QAE@XZ 12052300 f   DOM_ProcessingInstruction.obj
 0001:00051300       ??1DOM_XMLDecl@@QAE@XZ     12052300 f   DOM_ProcessingInstruction.obj
 0001:00051300       ??1DOM_Notation@@QAE@XZ    12052300 f   DOM_ProcessingInstruction.obj
 0001:00051300       ??1DOM_Document@@QAE@XZ    12052300 f   DOM_ProcessingInstruction.obj
 0001:00051300       ??1DOM_CharacterData@@QAE@XZ 12052300 f   DOM_ProcessingInstruction.obj
 0001:00051300       ??1DOM_DocumentFragment@@QAE@XZ 12052300 f   DOM_ProcessingInstruction.obj
 0001:00051310       ??4DOM_Element@@QAEAAV0@ABV0@@Z 12052310 f   DOM_ProcessingInstruction.obj
 0001:00051310       ??4DOM_CharacterData@@QAEAAV0@ABV0@@Z 12052310 f   DOM_ProcessingInstruction.obj
 0001:00051310       ??4DOM_Notation@@QAEAAV0@ABV0@@Z 12052310 f   DOM_ProcessingInstruction.obj
 0001:00051310       ??4DOM_Attr@@QAEAAV0@ABV0@@Z 12052310 f   DOM_ProcessingInstruction.obj
 0001:00051310       ??4DOM_EntityReference@@QAEAAV0@ABV0@@Z 12052310 f   DOM_ProcessingInstruction.obj
 0001:00051310       ??4DOM_Document@@QAEAAV0@ABV0@@Z 12052310 f   DOM_ProcessingInstruction.obj
 0001:00051310       ??4DOM_Entity@@QAEAAV0@ABV0@@Z 12052310 f   DOM_ProcessingInstruction.obj
 0001:00051310       ??4DOM_XMLDecl@@QAEAAV0@ABV0@@Z 12052310 f   DOM_ProcessingInstruction.obj
 0001:00051310       ??4DOM_DocumentFragment@@QAEAAV0@ABV0@@Z 12052310 f   DOM_ProcessingInstruction.obj
 0001:00051310       ??4DOM_DocumentType@@QAEAAV0@ABV0@@Z 12052310 f   DOM_ProcessingInstruction.obj
 0001:00051310       ??4DOM_ProcessingInstruction@@QAEAAV0@ABV0@@Z 12052310 f   DOM_ProcessingInstruction.obj
 0001:00051320       ??4DOM_ProcessingInstruction@@QAEAAV0@PBVDOM_NullPtr@@@Z 12052320 f   DOM_ProcessingInstruction.obj
 0001:00051320       ??4DOM_DocumentFragment@@QAEAAV0@PBVDOM_NullPtr@@@Z 12052320 f   DOM_ProcessingInstruction.obj
 0001:00051320       ??4DOM_Comment@@QAEAAV0@PBVDOM_NullPtr@@@Z 12052320 f   DOM_ProcessingInstruction.obj
 0001:00051320       ??4DOM_Entity@@QAEAAV0@PBVDOM_NullPtr@@@Z 12052320 f   DOM_ProcessingInstruction.obj
 0001:00051320       ??4DOM_DocumentType@@QAEAAV0@PBVDOM_NullPtr@@@Z 12052320 f   DOM_ProcessingInstruction.obj
 0001:00051320       ??4DOM_Document@@QAEAAV0@PBVDOM_NullPtr@@@Z 12052320 f   DOM_ProcessingInstruction.obj
 0001:00051320       ??4DOM_XMLDecl@@QAEAAV0@PBVDOM_NullPtr@@@Z 12052320 f   DOM_ProcessingInstruction.obj
 0001:00051320       ??4DOM_CDATASection@@QAEAAV0@PBVDOM_NullPtr@@@Z 12052320 f   DOM_ProcessingInstruction.obj
 0001:00051320       ??4DOM_Element@@QAEAAV0@PBVDOM_NullPtr@@@Z 12052320 f   DOM_ProcessingInstruction.obj
 0001:00051320       ??4DOM_CharacterData@@QAEAAV0@PBVDOM_NullPtr@@@Z 12052320 f   DOM_ProcessingInstruction.obj
 0001:00051320       ??4DOM_Notation@@QAEAAV0@PBVDOM_NullPtr@@@Z 12052320 f   DOM_ProcessingInstruction.obj
 0001:00051320       ??4DOM_EntityReference@@QAEAAV0@PBVDOM_NullPtr@@@Z 12052320 f   DOM_ProcessingInstruction.obj
 0001:00051320       ??4DOM_Text@@QAEAAV0@PBVDOM_NullPtr@@@Z 12052320 f   DOM_ProcessingInstruction.obj
 0001:00051320       ??4DOM_Attr@@QAEAAV0@PBVDOM_NullPtr@@@Z 12052320 f   DOM_ProcessingInstruction.obj
 0001:00051330       ?getTarget@DOM_ProcessingInstruction@@QBE?AVDOMString@@XZ 12052330 f   DOM_ProcessingInstruction.obj
 0001:000513a0       ?getData@DOM_ProcessingInstruction@@QBE?AVDOMString@@XZ 120523a0 f   DOM_ProcessingInstruction.obj
 0001:00051410       ?setData@DOM_ProcessingInstruction@@QAEXABVDOMString@@@Z 12052410 f   DOM_ProcessingInstruction.obj
 0001:00051470       ??9DOM_TreeWalker@@QBE_NABV0@@Z 12052470 f   DOM_Range.obj
 0001:00051470       ??9DOM_Range@@QBE_NABV0@@Z 12052470 f   DOM_Range.obj
 0001:00051470       ??9DOM_Node@@QBE_NABV0@@Z  12052470 f   DOM_Range.obj
 0001:00051470       ??9DOM_NamedNodeMap@@QBE_NABV0@@Z 12052470 f   DOM_Range.obj
 0001:00051470       ??9DOM_NodeList@@QBE_NABV0@@Z 12052470 f   DOM_Range.obj
 0001:00051470       ??9DOM_NodeIterator@@QBE_NABV0@@Z 12052470 f   DOM_Range.obj
 0001:00051470       ??9DOMString@@QBE_NABV0@@Z 12052470 f   DOM_Range.obj
 0001:00051490       ?getEndOffset@DOM_Range@@QBEIXZ 12052490 f   DOM_Range.obj
 0001:000514a0       ?getCommonAncestorContainer@DOM_Range@@QBE?BVDOM_Node@@XZ 120524a0 f   DOM_Range.obj
 0001:000514c0       ?setStart@DOM_Range@@QAEXABVDOM_Node@@I@Z 120524c0 f   DOM_Range.obj
 0001:000514e0       ?setEnd@DOM_Range@@QAEXABVDOM_Node@@I@Z 120524e0 f   DOM_Range.obj
 0001:00051500       ?setStartBefore@DOM_Range@@QAEXABVDOM_Node@@@Z 12052500 f   DOM_Range.obj
 0001:00051510       ?setStartAfter@DOM_Range@@QAEXABVDOM_Node@@@Z 12052510 f   DOM_Range.obj
 0001:00051520       ?setEndBefore@DOM_Range@@QAEXABVDOM_Node@@@Z 12052520 f   DOM_Range.obj
 0001:00051530       ?setEndAfter@DOM_Range@@QAEXABVDOM_Node@@@Z 12052530 f   DOM_Range.obj
 0001:00051540       ?collapse@DOM_Range@@QAEX_N@Z 12052540 f   DOM_Range.obj
 0001:00051550       ?getCollapsed@DOM_Range@@QBE_NXZ 12052550 f   DOM_Range.obj
 0001:00051560       ?selectNode@DOM_Range@@QAEXABVDOM_Node@@@Z 12052560 f   DOM_Range.obj
 0001:00051570       ?selectNodeContents@DOM_Range@@QAEXABVDOM_Node@@@Z 12052570 f   DOM_Range.obj
 0001:00051580       ?compareBoundaryPoints@DOM_Range@@QBEFW4CompareHow@1@ABV1@@Z 12052580 f   DOM_Range.obj
 0001:000515a0       ?deleteContents@DOM_Range@@QAEXXZ 120525a0 f   DOM_Range.obj
 0001:000515b0       ?extractContents@DOM_Range@@QAE?AVDOM_DocumentFragment@@XZ 120525b0 f   DOM_Range.obj
 0001:000515d0       ?cloneContents@DOM_Range@@QBE?AVDOM_DocumentFragment@@XZ 120525d0 f   DOM_Range.obj
 0001:000515f0       ?insertNode@DOM_Range@@QAEXAAVDOM_Node@@@Z 120525f0 f   DOM_Range.obj
 0001:00051600       ?surroundContents@DOM_Range@@QAEXAAVDOM_Node@@@Z 12052600 f   DOM_Range.obj
 0001:00051610       ?cloneRange@DOM_Range@@QBE?AV1@XZ 12052610 f   DOM_Range.obj
 0001:00051640       ?toString@DOM_Range@@QBE?AVDOMString@@XZ 12052640 f   DOM_Range.obj
 0001:00051660       ?detach@DOM_Range@@QAEXXZ  12052660 f   DOM_Range.obj
 0001:00051670       ??4DOM_RangeException@@QAEAAV0@ABV0@@Z 12052670 f i DOM_RangeException.obj
 0001:000516a0       ??0DOM_RangeException@@QAE@XZ 120526a0 f   DOM_RangeException.obj
 0001:000516c0       ??_EDOM_RangeException@@UAEPAXI@Z 120526c0 f i DOM_RangeException.obj
 0001:00051720       ??0DOM_RangeException@@QAE@W4RangeExceptionCode@0@ABVDOMString@@@Z 12052720 f   DOM_RangeException.obj
 0001:00051750       ??0DOM_RangeException@@QAE@ABV0@@Z 12052750 f   DOM_RangeException.obj
 0001:00051780       ??1DOM_RangeException@@UAE@XZ 12052780 f   DOM_RangeException.obj
 0001:00051790       ??0DOM_Text@@QAE@XZ        12052790 f   DOM_Text.obj
 0001:00051790       ??0DOM_Comment@@QAE@XZ     12052790 f   DOM_Text.obj
 0001:000517a0       ??0DOM_Comment@@QAE@ABV0@@Z 120527a0 f   DOM_Text.obj
 0001:000517a0       ??0DOM_Text@@QAE@ABV0@@Z   120527a0 f   DOM_Text.obj
 0001:000517c0       ??1DOM_Comment@@QAE@XZ     120527c0 f   DOM_Text.obj
 0001:000517c0       ??1DOM_Text@@QAE@XZ        120527c0 f   DOM_Text.obj
 0001:000517d0       ??4DOM_Text@@QAEAAV0@ABV0@@Z 120527d0 f   DOM_Text.obj
 0001:000517d0       ??4DOM_Comment@@QAEAAV0@ABV0@@Z 120527d0 f   DOM_Text.obj
 0001:000517e0       ?isIgnorableWhitespace@DOM_Text@@QAE_NXZ 120527e0 f   DOM_Text.obj
 0001:000517f0       ??0DOM_Range@@IAE@PAVRangeImpl@@@Z 120527f0 f   DOM_TreeWalker.obj
 0001:000517f0       ??0DOM_TreeWalker@@IAE@PAVTreeWalkerImpl@@@Z 120527f0 f   DOM_TreeWalker.obj
 0001:000517f0       ??0DOM_Node@@IAE@PAVNodeImpl@@@Z 120527f0 f   DOM_TreeWalker.obj
 0001:000517f0       ??0DOM_NodeIterator@@IAE@PAVNodeIteratorImpl@@@Z 120527f0 f   DOM_TreeWalker.obj
 0001:000517f0       ??0DOM_NodeList@@IAE@PAVNodeListImpl@@@Z 120527f0 f   DOM_TreeWalker.obj
 0001:00051810       ??0DOM_NodeList@@QAE@ABV0@@Z 12052810 f   DOM_TreeWalker.obj
 0001:00051810       ??0DOM_NodeIterator@@QAE@ABV0@@Z 12052810 f   DOM_TreeWalker.obj
 0001:00051810       ??0DOM_TreeWalker@@QAE@ABV0@@Z 12052810 f   DOM_TreeWalker.obj
 0001:00051810       ??0DOM_Node@@QAE@ABV0@@Z   12052810 f   DOM_TreeWalker.obj
 0001:00051810       ??0DOM_Range@@QAE@ABV0@@Z  12052810 f   DOM_TreeWalker.obj
 0001:00051830       ??4DOM_NodeList@@QAEAAV0@ABV0@@Z 12052830 f   DOM_TreeWalker.obj
 0001:00051830       ??4DOM_NodeIterator@@QAEAAV0@ABV0@@Z 12052830 f   DOM_TreeWalker.obj
 0001:00051830       ??4DOM_Node@@QAEAAV0@ABV0@@Z 12052830 f   DOM_TreeWalker.obj
 0001:00051830       ??4DOM_TreeWalker@@QAEAAV0@ABV0@@Z 12052830 f   DOM_TreeWalker.obj
 0001:00051830       ??4DOM_Range@@QAEAAV0@ABV0@@Z 12052830 f   DOM_TreeWalker.obj
 0001:00051860       ??4DOM_TreeWalker@@QAEAAV0@PBVDOM_NullPtr@@@Z 12052860 f   DOM_TreeWalker.obj
 0001:00051860       ??4DOM_NodeIterator@@QAEAAV0@PBVDOM_NullPtr@@@Z 12052860 f   DOM_TreeWalker.obj
 0001:00051860       ??4DOM_NodeList@@QAEAAV0@PBVDOM_NullPtr@@@Z 12052860 f   DOM_TreeWalker.obj
 0001:00051860       ??4DOM_Node@@QAEAAV0@PBVDOM_NullPtr@@@Z 12052860 f   DOM_TreeWalker.obj
 0001:00051860       ??4DOM_Range@@QAEAAV0@PBVDOM_NullPtr@@@Z 12052860 f   DOM_TreeWalker.obj
 0001:00051880       ??1DOM_NodeIterator@@QAE@XZ 12052880 f   DOM_TreeWalker.obj
 0001:00051880       ??1DOM_TreeWalker@@QAE@XZ  12052880 f   DOM_TreeWalker.obj
 0001:00051880       ??1DOM_Range@@QAE@XZ       12052880 f   DOM_TreeWalker.obj
 0001:00051880       ??1DOM_NodeList@@QAE@XZ    12052880 f   DOM_TreeWalker.obj
 0001:00051880       ??1DOM_Node@@QAE@XZ        12052880 f   DOM_TreeWalker.obj
 0001:000518a0       ?getRoot@DOM_TreeWalker@@QAE?AVDOM_Node@@XZ 120528a0 f   DOM_TreeWalker.obj
 0001:000518c0       ?getWhatToShow@DOM_TreeWalker@@QAEKXZ 120528c0 f   DOM_TreeWalker.obj
 0001:000518d0       ?getCurrentNode@DOM_TreeWalker@@QAE?AVDOM_Node@@XZ 120528d0 f   DOM_TreeWalker.obj
 0001:000518d0       ?getEndContainer@DOM_Range@@QBE?AVDOM_Node@@XZ 120528d0 f   DOM_TreeWalker.obj
 0001:000518f0       ?setCurrentNode@DOM_TreeWalker@@QAEXVDOM_Node@@@Z 120528f0 f   DOM_TreeWalker.obj
 0001:00051950       ?parentNode@DOM_TreeWalker@@QAE?AVDOM_Node@@XZ 12052950 f   DOM_TreeWalker.obj
 0001:00051970       ?firstChild@DOM_TreeWalker@@QAE?AVDOM_Node@@XZ 12052970 f   DOM_TreeWalker.obj
 0001:00051990       ?lastChild@DOM_TreeWalker@@QAE?AVDOM_Node@@XZ 12052990 f   DOM_TreeWalker.obj
 0001:000519b0       ?previousSibling@DOM_TreeWalker@@QAE?AVDOM_Node@@XZ 120529b0 f   DOM_TreeWalker.obj
 0001:000519d0       ?nextSibling@DOM_TreeWalker@@QAE?AVDOM_Node@@XZ 120529d0 f   DOM_TreeWalker.obj
 0001:000519f0       ?previousNode@DOM_TreeWalker@@QAE?AVDOM_Node@@XZ 120529f0 f   DOM_TreeWalker.obj
 0001:00051a10       ?nextNode@DOM_TreeWalker@@QAE?AVDOM_Node@@XZ 12052a10 f   DOM_TreeWalker.obj
 0001:00051a30       ?getVersion@DOM_XMLDecl@@QBE?AVDOMString@@XZ 12052a30 f   DOM_XMLDecl.obj
 0001:00051aa0       ?getEncoding@DOM_XMLDecl@@QBE?AVDOMString@@XZ 12052aa0 f   DOM_XMLDecl.obj
 0001:00051b10       ?getStandalone@DOM_XMLDecl@@QBE?AVDOMString@@XZ 12052b10 f   DOM_XMLDecl.obj
 0001:00051b80       ??0DomMemDebug@@QAE@XZ     12052b80 f   DomMemDebug.obj
 0001:00051bd0       ??8DomMemDebug@@QAE_NABV0@@Z 12052bd0 f   DomMemDebug.obj
 0001:00051c00       ??9DomMemDebug@@QAE_NABV0@@Z 12052c00 f   DomMemDebug.obj
 0001:00051c40       ??4DomMemDebug@@QAEXABV0@@Z 12052c40 f   DomMemDebug.obj
 0001:00051c80       ?print@DomMemDebug@@QAEXXZ 12052c80 f   DomMemDebug.obj
 0001:00051cb0       ?printDifference@DomMemDebug@@QAEXABV1@@Z 12052cb0 f   DomMemDebug.obj
 0001:00051d60       ?allocateBuffer@DOMStringData@@SAPAV1@I@Z 12052d60 f   DOMString.obj
 0001:00051e60       ??2DOMStringHandle@@SAPAXI@Z 12052e60 f   DOMString.obj
 0001:00051ff0       ??0DOMStringHandle@@AAE@XZ 12052ff0 f i DOMString.obj
 0001:00051ff0       ??0XUtil@@IAE@XZ           12052ff0 f i DOMString.obj
 0001:00052000       ??_EDOMStringHandle@@QAEPAXI@Z 12053000 f i DOMString.obj
 0001:00052050       ??3DOMStringHandle@@SAXPAX@Z 12053050 f   DOMString.obj
 0001:000521b0       ?createNewStringHandle@DOMStringHandle@@SAPAV1@I@Z 120531b0 f   DOMString.obj
 0001:000521f0       ?cloneStringHandle@DOMStringHandle@@QAEPAV1@XZ 120531f0 f   DOMString.obj
 0001:00052230       ??0DOM_TreeWalker@@QAE@XZ  12053230 f   DOMString.obj
 0001:00052230       ??0XercesLocationPath@@QAE@XZ 12053230 f   DOMString.obj
 0001:00052230       ??0DOMString@@QAE@XZ       12053230 f   DOMString.obj
 0001:00052230       ??0DOM_NodeList@@QAE@XZ    12053230 f   DOMString.obj
 0001:00052230       ??0DatatypeValidatorFactory@@QAE@XZ 12053230 f   DOMString.obj
 0001:00052230       ??0DOM_Node@@QAE@XZ        12053230 f   DOMString.obj
 0001:00052230       ??0DOM_Range@@QAE@XZ       12053230 f   DOMString.obj
 0001:00052230       ??0DOM_NodeIterator@@QAE@XZ 12053230 f   DOMString.obj
 0001:00052240       ??0DOMString@@QAE@ABV0@@Z  12053240 f   DOMString.obj
 0001:00052270       ??0DOMString@@QAE@PBG@Z    12053270 f   DOMString.obj
 0001:000522e0       ??0DOMString@@QAE@PBGI@Z   120532e0 f   DOMString.obj
 0001:00052340       ??0DOMString@@QAE@PBD@Z    12053340 f   DOMString.obj
 0001:000524e0       ??0DOMString@@QAE@H@Z      120534e0 f   DOMString.obj
 0001:000524f0       ??1DOMString@@QAE@XZ       120534f0 f   DOMString.obj
 0001:00052570       ??4DOMString@@QAEAAV0@ABV0@@Z 12053570 f   DOMString.obj
 0001:00052610       ??4DOMString@@QAEAAV0@PAVDOM_NullPtr@@@Z 12053610 f   DOMString.obj
 0001:00052690       ?reserve@DOMString@@QAEXI@Z 12053690 f   DOMString.obj
 0001:000526b0       ?appendData@DOMString@@QAEXABV1@@Z 120536b0 f   DOMString.obj
 0001:00052830       ?appendData@DOMString@@QAEXG@Z 12053830 f   DOMString.obj
 0001:000528f0       ?appendData@DOMString@@QAEXPBG@Z 120538f0 f   DOMString.obj
 0001:00052b10       ??YDOMString@@QAEAAV0@ABV0@@Z 12053b10 f   DOMString.obj
 0001:00052b30       ??YDOMString@@QAEAAV0@PBG@Z 12053b30 f   DOMString.obj
 0001:00052b50       ??YDOMString@@QAEAAV0@G@Z  12053b50 f   DOMString.obj
 0001:00052b70       ?charAt@DOMString@@QBEGI@Z 12053b70 f   DOMString.obj
 0001:00052b90       ?clone@DOMString@@QBE?AV1@XZ 12053b90 f   DOMString.obj
 0001:00052db0       ?deleteData@DOMString@@QAEXII@Z 12053db0 f   DOMString.obj
 0001:00052f40       ?equals@DOMString@@QBE_NABV1@@Z 12053f40 f   DOMString.obj
 0001:00052fb0       ?equals@DOMString@@QBE_NPBG@Z 12053fb0 f   DOMString.obj
 0001:00053030       ?insertData@DOMString@@QAEXIABV1@@Z 12054030 f   DOMString.obj
 0001:000532f0       ?removeRef@DOMStringData@@QAEXXZ 120542f0 f i DOMString.obj
 0001:00053330       ?length@DOMString@@QBEIXZ  12054330 f   DOMString.obj
 0001:00053340       ?print@DOMString@@QBEXXZ   12054340 f   DOMString.obj
 0001:00053370       ?println@DOMString@@QBEXXZ 12054370 f   DOMString.obj
 0001:000533b0       ?rawBuffer@DOMString@@QBEPBGXZ 120543b0 f   DOMString.obj
 0001:000533c0       ?transcode@DOMString@@QBEPADXZ 120543c0 f   DOMString.obj
 0001:000536c0       ?transcode@DOMString@@SA?AV1@PBD@Z 120546c0 f   DOMString.obj
 0001:000536e0       ?compareString@DOMString@@QBEHABV1@@Z 120546e0 f   DOMString.obj
 0001:00053750       ?substringData@DOMString@@QBE?AV1@II@Z 12054750 f   DOMString.obj
 0001:00053920       ??H@YA?AVDOMString@@ABV0@0@Z 12054920 f   DOMString.obj
 0001:00053b40       ??H@YA?AVDOMString@@ABV0@PBG@Z 12054b40 f   DOMString.obj
 0001:00053d70       ??_GXMLMutex@@QAEPAXI@Z    12054d70 f i DOMString.obj
 0001:00053d90       ?removeRef@DOMStringHandle@@QAEXXZ 12054d90 f i DOMString.obj
 0001:00053e00       ??H@YA?AVDOMString@@PBGABV0@@Z 12054e00 f   DOMString.obj
 0001:00054050       ??H@YA?AVDOMString@@ABV0@G@Z 12055050 f   DOMString.obj
 0001:00054270       ??H@YA?AVDOMString@@GABV0@@Z 12055270 f   DOMString.obj
 0001:000544e0       ??0DStringPool@@QAE@H@Z    120554e0 f   DStringPool.obj
 0001:00054520       ??1DStringPool@@QAE@XZ     12055520 f   DStringPool.obj
 0001:00054580       ??1DStringPoolEntry@@QAE@XZ 12055580 f i DStringPool.obj
 0001:00054590       ?getPooledString@DStringPool@@QAEABVDOMString@@PBG@Z 12055590 f   DStringPool.obj
 0001:00054670       ?getPooledString@DStringPool@@QAEABVDOMString@@ABV2@@Z 12055670 f   DStringPool.obj
 0001:00054770       ?getStaticString@DStringPool@@SAABVDOMString@@PBDPAPAV2@P6AXXZAAVXMLRegisterCleanup@@@Z 12055770 f   DStringPool.obj
 0001:00054860       ??_OElementDefinitionImpl@@QAEXABV0@@Z 12055860 f i ElementDefinitionImpl.obj
 0001:00054870       ??0ElementDefinitionImpl@@QAE@PAVDocumentImpl@@ABVDOMString@@@Z 12055870 f   ElementDefinitionImpl.obj
 0001:00054900       ??_EElementDefinitionImpl@@UAEPAXI@Z 12055900 f i ElementDefinitionImpl.obj
 0001:00054960       ??0ElementDefinitionImpl@@QAE@ABV0@_N@Z 12055960 f   ElementDefinitionImpl.obj
 0001:00054a00       ??1ElementDefinitionImpl@@UAE@XZ 12055a00 f   ElementDefinitionImpl.obj
 0001:00054a60       ?cloneNode@ElementDefinitionImpl@@UAEPAVNodeImpl@@_N@Z 12055a60 f   ElementDefinitionImpl.obj
 0001:00054b10       ?getNodeType@ElementDefinitionImpl@@UAEFXZ 12055b10 f   ElementDefinitionImpl.obj
 0001:00054b40       ??0ElementImpl@@QAE@PAVDocumentImpl@@ABVDOMString@@@Z 12055b40 f   ElementImpl.obj
 0001:00054be0       ??_EElementImpl@@UAEPAXI@Z 12055be0 f i ElementImpl.obj
 0001:00054c40       ??0ElementImpl@@QAE@ABV0@_N@Z 12055c40 f   ElementImpl.obj
 0001:00054d10       ??1ElementImpl@@UAE@XZ     12055d10 f   ElementImpl.obj
 0001:00054d80       ?cloneNode@ElementImpl@@UAEPAVNodeImpl@@_N@Z 12055d80 f   ElementImpl.obj
 0001:00054df0       ?setOwnerDocument@ElementImpl@@UAEXPAVDocumentImpl@@@Z 12055df0 f   ElementImpl.obj
 0001:00054e10       ?getNodeType@ElementImpl@@UAEFXZ 12055e10 f   ElementImpl.obj
 0001:00054e10       ?getNodeType@IDElementImpl@@UBEFXZ 12055e10 f   ElementImpl.obj
 0001:00054e20       ?getAttribute@ElementImpl@@UAE?AVDOMString@@ABV2@@Z 12055e20 f   ElementImpl.obj
 0001:00054ed0       ?getAttributeNode@ElementImpl@@UAEPAVAttrImpl@@ABVDOMString@@@Z 12055ed0 f   ElementImpl.obj
 0001:00054ef0       ?getElementsByTagName@ElementImpl@@UAEPAVDeepNodeListImpl@@ABVDOMString@@@Z 12055ef0 f   ElementImpl.obj
 0001:00054f60       ?removeAttribute@ElementImpl@@UAEXABVDOMString@@@Z 12055f60 f   ElementImpl.obj
 0001:00055010       ?removeAttributeNode@ElementImpl@@UAEPAVAttrImpl@@PAV2@@Z 12056010 f   ElementImpl.obj
 0001:00055150       ?setAttribute@ElementImpl@@UAEPAVAttrImpl@@ABVDOMString@@0@Z 12056150 f   ElementImpl.obj
 0001:00055250       ?setAttributeNode@ElementImpl@@UAEPAVAttrImpl@@PAV2@@Z 12056250 f   ElementImpl.obj
 0001:00055390       ?setReadOnly@ElementImpl@@UAEX_N0@Z 12056390 f   ElementImpl.obj
 0001:000553c0       ?getAttributeNS@ElementImpl@@UAE?AVDOMString@@ABV2@0@Z 120563c0 f   ElementImpl.obj
 0001:00055490       ?setAttributeNS@ElementImpl@@UAEPAVAttrImpl@@ABVDOMString@@00@Z 12056490 f   ElementImpl.obj
 0001:00055590       ?removeAttributeNS@ElementImpl@@UAEXABVDOMString@@0@Z 12056590 f   ElementImpl.obj
 0001:00055650       ?getAttributeNodeNS@ElementImpl@@UAEPAVAttrImpl@@ABVDOMString@@0@Z 12056650 f   ElementImpl.obj
 0001:00055670       ?setAttributeNodeNS@ElementImpl@@UAEPAVAttrImpl@@PAV2@@Z 12056670 f   ElementImpl.obj
 0001:000557e0       ?getElementsByTagNameNS@ElementImpl@@UAEPAVDeepNodeListImpl@@ABVDOMString@@0@Z 120567e0 f   ElementImpl.obj
 0001:00055850       ?hasAttributes@ElementImpl@@UAE_NXZ 12056850 f   ElementImpl.obj
 0001:00055870       ?hasAttribute@ElementImpl@@UAE_NABVDOMString@@@Z 12056870 f   ElementImpl.obj
 0001:00055890       ?hasAttributeNS@ElementImpl@@UAE_NABVDOMString@@0@Z 12056890 f   ElementImpl.obj
 0001:000558b0       ?NNM_cloneMap@ElementImpl@@UAEPAVNamedNodeMapImpl@@PAVNodeImpl@@@Z 120568b0 f   ElementImpl.obj
 0001:000558e0       ?NNM_findNamePoint@ElementImpl@@UAEHABVDOMString@@@Z 120568e0 f   ElementImpl.obj
 0001:00055910       ?NNM_getLength@ElementImpl@@UAEIXZ 12056910 f   ElementImpl.obj
 0001:00055930       ?NNM_getNamedItem@ElementImpl@@UAEPAVNodeImpl@@ABVDOMString@@@Z 12056930 f   ElementImpl.obj
 0001:00055960       ?NNM_item@ElementImpl@@UAEPAVNodeImpl@@I@Z 12056960 f   ElementImpl.obj
 0001:00055990       ?NNM_removeAll@ElementImpl@@UAEXXZ 12056990 f   ElementImpl.obj
 0001:000559b0       ?NNM_removeNamedItem@ElementImpl@@UAEPAVNodeImpl@@ABVDOMString@@@Z 120569b0 f   ElementImpl.obj
 0001:00055a30       ?NNM_setNamedItem@ElementImpl@@UAEPAVNodeImpl@@PAV2@@Z 12056a30 f   ElementImpl.obj
 0001:00055ab0       ?NNM_setReadOnly@ElementImpl@@UAEX_N0@Z 12056ab0 f   ElementImpl.obj
 0001:00055ae0       ?NNM_findNamePoint@ElementImpl@@UAEHABVDOMString@@0@Z 12056ae0 f   ElementImpl.obj
 0001:00055b10       ?NNM_getNamedItemNS@ElementImpl@@UAEPAVNodeImpl@@ABVDOMString@@0@Z 12056b10 f   ElementImpl.obj
 0001:00055b40       ?NNM_setNamedItemNS@ElementImpl@@UAEPAVNodeImpl@@PAV2@@Z 12056b40 f   ElementImpl.obj
 0001:00055bc0       ?NNM_removeNamedItemNS@ElementImpl@@UAEPAVNodeImpl@@ABVDOMString@@0@Z 12056bc0 f   ElementImpl.obj
 0001:00055c40       ?NNM_setOwnerDocument@ElementImpl@@UAEXPAVDocumentImpl@@@Z 12056c40 f   ElementImpl.obj
 0001:00055c70       ?getDefaultAttributes@ElementImpl@@UAEPAVAttrMapImpl@@XZ 12056c70 f   ElementImpl.obj
 0001:00055d30       ?setupDefaultAttributes@ElementImpl@@UAEXXZ 12056d30 f   ElementImpl.obj
 0001:00055de0       ?reinitElementImpl@ElementImpl@@SAXXZ 12056de0 f   ElementImpl.obj
 0001:00055e10       ??0ElementNSImpl@@QAE@PAVDocumentImpl@@ABVDOMString@@@Z 12056e10 f   ElementNSImpl.obj
 0001:00055ea0       ??_EElementNSImpl@@UAEPAXI@Z 12056ea0 f i ElementNSImpl.obj
 0001:00055f00       ??0ElementNSImpl@@QAE@PAVDocumentImpl@@ABVDOMString@@1@Z 12056f00 f   ElementNSImpl.obj
 0001:00056110       ??0ElementNSImpl@@QAE@ABV0@_N@Z 12057110 f   ElementNSImpl.obj
 0001:000561e0       ?cloneNode@ElementNSImpl@@UAEPAVNodeImpl@@_N@Z 120571e0 f   ElementNSImpl.obj
 0001:00056250       ?getSystemId@EntityImpl@@UAE?AVDOMString@@XZ 12057250 f   ElementNSImpl.obj
 0001:00056250       ?getNamespaceURI@ElementNSImpl@@UAE?AVDOMString@@XZ 12057250 f   ElementNSImpl.obj
 0001:00056270       ?getPrefix@ElementNSImpl@@UAE?AVDOMString@@XZ 12057270 f   ElementNSImpl.obj
 0001:000562c0       ?setPrefix@ElementNSImpl@@UAEXABVDOMString@@@Z 120572c0 f   ElementNSImpl.obj
 0001:00056530       ??0EntityImpl@@QAE@PAVDocumentImpl@@ABVDOMString@@@Z 12057530 f   EntityImpl.obj
 0001:000565f0       ??_EEntityImpl@@UAEPAXI@Z  120575f0 f i EntityImpl.obj
 0001:00056650       ??0EntityImpl@@QAE@ABV0@_N@Z 12057650 f   EntityImpl.obj
 0001:000567b0       ??1EntityImpl@@UAE@XZ      120577b0 f   EntityImpl.obj
 0001:00056830       ?cloneNode@EntityImpl@@UAEPAVNodeImpl@@_N@Z 12057830 f   EntityImpl.obj
 0001:000568a0       ?getLocalName@ElementNSImpl@@UAE?AVDOMString@@XZ 120578a0 f   EntityImpl.obj
 0001:000568a0       ?getNotationName@EntityImpl@@UAE?AVDOMString@@XZ 120578a0 f   EntityImpl.obj
 0001:000568c0       ?getPublicId@EntityImpl@@UAE?AVDOMString@@XZ 120578c0 f   EntityImpl.obj
 0001:000568e0       ?setNotationName@EntityImpl@@UAEXABVDOMString@@@Z 120578e0 f   EntityImpl.obj
 0001:000568f0       ?setPublicId@EntityImpl@@UAEXABVDOMString@@@Z 120578f0 f   EntityImpl.obj
 0001:00056900       ?setSystemId@EntityImpl@@UAEXABVDOMString@@@Z 12057900 f   EntityImpl.obj
 0001:00056910       ?setEntityRef@EntityImpl@@UAEXPAVEntityReferenceImpl@@@Z 12057910 f   EntityImpl.obj
 0001:00056930       ?cloneEntityRefTree@EntityImpl@@AAEXXZ 12057930 f   EntityImpl.obj
 0001:00056970       ?getFirstChild@EntityImpl@@UAEPAVNodeImpl@@XZ 12057970 f   EntityImpl.obj
 0001:000569b0       ?getLastChild@EntityImpl@@UAEPAVNodeImpl@@XZ 120579b0 f   EntityImpl.obj
 0001:000569f0       ?getChildNodes@EntityImpl@@UAEPAVNodeListImpl@@XZ 120579f0 f   EntityImpl.obj
 0001:00056a30       ?hasChildNodes@EntityImpl@@UAE_NXZ 12057a30 f   EntityImpl.obj
 0001:00056a70       ?item@EntityImpl@@UAEPAVNodeImpl@@I@Z 12057a70 f   EntityImpl.obj
 0001:00056ac0       ??0EntityReferenceImpl@@QAE@PAVDocumentImpl@@ABVDOMString@@@Z 12057ac0 f   EntityReferenceImpl.obj
 0001:00056b60       ??_EEntityReferenceImpl@@UAEPAXI@Z 12057b60 f i EntityReferenceImpl.obj
 0001:00056bc0       ??0EntityReferenceImpl@@QAE@ABV0@_N@Z 12057bc0 f   EntityReferenceImpl.obj
 0001:00056c70       ??1EntityReferenceImpl@@UAE@XZ 12057c70 f   EntityReferenceImpl.obj
 0001:00056cd0       ?cloneNode@EntityReferenceImpl@@UAEPAVNodeImpl@@_N@Z 12057cd0 f   EntityReferenceImpl.obj
 0001:00056d40       ?setReadOnly@EntityReferenceImpl@@UAEX_N0@Z 12057d40 f   EntityReferenceImpl.obj
 0001:00056db0       ??0NamedNodeMapImpl@@QAE@PAVNodeImpl@@@Z 12057db0 f   NamedNodeMapImpl.obj
 0001:00056de0       ??1NamedNodeMapImpl@@UAE@XZ 12057de0 f   NamedNodeMapImpl.obj
 0001:00056e20       ?addRef@NamedNodeMapImpl@@SAXPAV1@@Z 12057e20 f   NamedNodeMapImpl.obj
 0001:00056e30       ?cloneMap@NamedNodeMapImpl@@UAEPAV1@PAVNodeImpl@@@Z 12057e30 f   NamedNodeMapImpl.obj
 0001:00056f70       ?removeAll@NamedNodeMapImpl@@UAEXXZ 12057f70 f   NamedNodeMapImpl.obj
 0001:00056fe0       ?findNamePoint@NamedNodeMapImpl@@UAEHABVDOMString@@@Z 12057fe0 f   NamedNodeMapImpl.obj
 0001:000570a0       ?getLength@NamedNodeMapImpl@@UAEIXZ 120580a0 f   NamedNodeMapImpl.obj
 0001:000570a0       ?getLength@IDNamedNodeMapImpl@@UBEIXZ 120580a0 f   NamedNodeMapImpl.obj
 0001:000570b0       ?getNamedItem@NamedNodeMapImpl@@UAEPAVNodeImpl@@ABVDOMString@@@Z 120580b0 f   NamedNodeMapImpl.obj
 0001:000570e0       ?item@IDNamedNodeMapImpl@@UBEPAVIDOM_Node@@I@Z 120580e0 f   NamedNodeMapImpl.obj
 0001:000570e0       ?item@NamedNodeMapImpl@@UAEPAVNodeImpl@@I@Z 120580e0 f   NamedNodeMapImpl.obj
 0001:00057110       ?removeNamedItem@NamedNodeMapImpl@@UAEPAVNodeImpl@@ABVDOMString@@@Z 12058110 f   NamedNodeMapImpl.obj
 0001:000571f0       ?removeRef@NamedNodeMapImpl@@SAXPAV1@@Z 120581f0 f   NamedNodeMapImpl.obj
 0001:00057210       ?setNamedItem@NamedNodeMapImpl@@UAEPAVNodeImpl@@PAV2@@Z 12058210 f   NamedNodeMapImpl.obj
 0001:000573e0       ?setReadOnly@NamedNodeMapImpl@@UAEX_N0@Z 120583e0 f   NamedNodeMapImpl.obj
 0001:00057430       ?findNamePoint@NamedNodeMapImpl@@UAEHABVDOMString@@0@Z 12058430 f   NamedNodeMapImpl.obj
 0001:000575f0       ?getNamedItemNS@NamedNodeMapImpl@@UAEPAVNodeImpl@@ABVDOMString@@0@Z 120585f0 f   NamedNodeMapImpl.obj
 0001:00057620       ?setNamedItemNS@NamedNodeMapImpl@@UAEPAVNodeImpl@@PAV2@@Z 12058620 f   NamedNodeMapImpl.obj
 0001:00057840       ?removeNamedItemNS@NamedNodeMapImpl@@UAEPAVNodeImpl@@ABVDOMString@@0@Z 12058840 f   NamedNodeMapImpl.obj
 0001:00057930       ?setOwnerDocument@NamedNodeMapImpl@@UAEXPAVDocumentImpl@@@Z 12058930 f   NamedNodeMapImpl.obj
 0001:00057980       ?cloneContent@NamedNodeMapImpl@@MAEXPAV1@@Z 12058980 f   NamedNodeMapImpl.obj
 0001:00057aa0       ??0NodeIDMap@@QAE@H@Z      12058aa0 f   NodeIDMap.obj
 0001:00057b80       ??_ENodeIDMap@@UAEPAXI@Z   12058b80 f i NodeIDMap.obj
 0001:00057b80       ??_GNodeIDMap@@UAEPAXI@Z   12058b80 f i NodeIDMap.obj
 0001:00057bc0       ?add@NodeIDMap@@QAEXPAVAttrImpl@@@Z 12058bc0 f   NodeIDMap.obj
 0001:00057c80       ?remove@NodeIDMap@@QAEXPAVAttrImpl@@@Z 12058c80 f   NodeIDMap.obj
 0001:00057d30       ?find@NodeIDMap@@QAEPAVAttrImpl@@ABVDOMString@@@Z 12058d30 f   NodeIDMap.obj
 0001:00057e00       ?growTable@NodeIDMap@@AAEXXZ 12058e00 f   NodeIDMap.obj
 0001:00057f00       ??0NodeImpl@@QAE@PAVDocumentImpl@@@Z 12058f00 f   NodeImpl.obj
 0001:00057f40       ??_ENodeImpl@@UAEPAXI@Z    12058f40 f i NodeImpl.obj
 0001:00057fa0       ??0NodeImpl@@QAE@ABV0@@Z   12058fa0 f   NodeImpl.obj
 0001:00058040       ??1NodeImpl@@UAE@XZ        12059040 f   NodeImpl.obj
 0001:000580d0       ?changed@NodeImpl@@UAEXXZ  120590d0 f   NodeImpl.obj
 0001:000580e0       ?changes@NodeImpl@@UAEHXZ  120590e0 f   NodeImpl.obj
 0001:000580f0       ?appendChild@NodeImpl@@UAEPAV1@PAV1@@Z 120590f0 f   NodeImpl.obj
 0001:00058100       ?deleteIf@NodeImpl@@SAXPAV1@@Z 12059100 f   NodeImpl.obj
 0001:000581a0       ?getOwnerDocument@NodeImpl@@UAEPAVDocumentImpl@@XZ 120591a0 f   NodeImpl.obj
 0001:000581a0       ?getDocument@NodeImpl@@UAEPAVDocumentImpl@@XZ 120591a0 f   NodeImpl.obj
 0001:000581c0       ?setOwnerDocument@NodeImpl@@UAEXPAVDocumentImpl@@@Z 120591c0 f   NodeImpl.obj
 0001:000581e0       ?getEnumString@BooleanDatatypeValidator@@UBEPBV?$RefVectorOf@G@@XZ 120591e0 f   NodeImpl.obj
 0001:000581e0       ?getAttributes@IDNodeImpl@@QBEPAVIDOM_NamedNodeMap@@XZ 120591e0 f   NodeImpl.obj
 0001:000581e0       ?getPreviousSibling@NodeImpl@@UAEPAV1@XZ 120591e0 f   NodeImpl.obj
 0001:000581e0       ?getParentNode@NotationImpl@@UAEPAVNodeImpl@@XZ 120591e0 f   NodeImpl.obj
 0001:000581e0       ?processBacksolidus_C@RegxParser@@MAEPAVToken@@XZ 120591e0 f   NodeImpl.obj
 0001:000581e0       ?getParentNode@IDNodeImpl@@QBEPAVIDOM_Node@@XZ 120591e0 f   NodeImpl.obj
 0001:000581e0       ?getAttributes@NodeImpl@@UAEPAVNamedNodeMapImpl@@XZ 120591e0 f   NodeImpl.obj
 0001:000581e0       ?getLength@NodeImpl@@UAEIXZ 120591e0 f   NodeImpl.obj
 0001:000581e0       ?getNextSibling@IDNodeImpl@@QBEPAVIDOM_Node@@XZ 120591e0 f   NodeImpl.obj
 0001:000581e0       ?processBacksolidus_I@RegxParser@@MAEPAVToken@@XZ 120591e0 f   NodeImpl.obj
 0001:000581e0       ?getPrefix@IDNodeImpl@@QBEPBGXZ 120591e0 f   NodeImpl.obj
 0001:000581e0       ?getLastChild@IDNodeImpl@@QBEPAVIDOM_Node@@XZ 120591e0 f   NodeImpl.obj
 0001:000581e0       ?getSign@XMLDateTime@@UBEHXZ 120591e0 f   NodeImpl.obj
 0001:000581e0       ?getNodeValue@IDNodeImpl@@QBEPBGXZ 120591e0 f   NodeImpl.obj
 0001:000581e0       ?getContentLeafNameTypeVector@SimpleContentModel@@UBEPAVContentLeafNameTypeVector@@XZ 120591e0 f   NodeImpl.obj
 0001:000581e0       ?getFirstChild@NodeImpl@@UAEPAV1@XZ 120591e0 f   NodeImpl.obj
 0001:000581e0       ?getNextSibling@NodeImpl@@UAEPAV1@XZ 120591e0 f   NodeImpl.obj
 0001:000581e0       ?getOwnerDocument@DocumentImpl@@UAEPAV1@XZ 120591e0 f   NodeImpl.obj
 0001:000581e0       ?getParentNode@NodeImpl@@UAEPAV1@XZ 120591e0 f   NodeImpl.obj
 0001:000581e0       ?getLastChild@NodeImpl@@UAEPAV1@XZ 120591e0 f   NodeImpl.obj
 0001:000581e0       ?getPreviousSibling@IDNodeImpl@@QBEPAVIDOM_Node@@XZ 120591e0 f   NodeImpl.obj
 0001:000581e0       ?getNamespaceURI@IDNodeImpl@@QBEPBGXZ 120591e0 f   NodeImpl.obj
 0001:000581e0       ?getOwnerDocument@IDDocumentImpl@@UBEPAVIDOM_Document@@XZ 120591e0 f   NodeImpl.obj
 0001:000581e0       ?getFirstChild@IDNodeImpl@@QBEPAVIDOM_Node@@XZ 120591e0 f   NodeImpl.obj
 0001:000581e0       ?getUserData@IDNodeImpl@@QBEPAXXZ 120591e0 f   NodeImpl.obj
 0001:000581e0       ?getLocalName@IDNodeImpl@@QBEPBGXZ 120591e0 f   NodeImpl.obj
 0001:000581e0       ?getEnumString@AnySimpleTypeDatatypeValidator@@UBEPBV?$RefVectorOf@G@@XZ 120591e0 f   NodeImpl.obj
 0001:000581f0       ?getUserData@NodeImpl@@UAEPAXXZ 120591f0 f   NodeImpl.obj
 0001:00058220       ?hasChildNodes@IDNodeImpl@@QBE_NXZ 12059220 f   NodeImpl.obj
 0001:00058220       ?hasAttributes@IDNodeImpl@@QBE_NXZ 12059220 f   NodeImpl.obj
 0001:00058220       ?isDocumentImpl@NodeImpl@@UAE_NXZ 12059220 f   NodeImpl.obj
 0001:00058220       ?isAtomic@ListDatatypeValidator@@UBE_NXZ 12059220 f   NodeImpl.obj
 0001:00058220       ?hasChildNodes@NodeImpl@@UAE_NXZ 12059220 f   NodeImpl.obj
 0001:00058220       ?isEntityReference@NodeImpl@@UAE_NXZ 12059220 f   NodeImpl.obj
 0001:00058220       ?isCDATASectionImpl@NodeImpl@@UAE_NXZ 12059220 f   NodeImpl.obj
 0001:00058220       ?isDocumentFragmentImpl@NodeImpl@@UAE_NXZ 12059220 f   NodeImpl.obj
 0001:00058220       ?isAttrImpl@NodeImpl@@UAE_NXZ 12059220 f   NodeImpl.obj
 0001:00058220       ?hasAttributes@NodeImpl@@UAE_NXZ 12059220 f   NodeImpl.obj
 0001:00058220       ?isTextImpl@NodeImpl@@UAE_NXZ 12059220 f   NodeImpl.obj
 0001:00058220       ?isDocumentTypeImpl@NodeImpl@@UAE_NXZ 12059220 f   NodeImpl.obj
 0001:00058220       ?isElementImpl@NodeImpl@@UAE_NXZ 12059220 f   NodeImpl.obj
 0001:00058220       ?requiresNamespaces@DTDValidator@@UBE_NXZ 12059220 f   NodeImpl.obj
 0001:00058230       ?insertBefore@NodeImpl@@UAEPAV1@PAV1@0@Z 12059230 f   NodeImpl.obj
 0001:00058280       ?item@NodeImpl@@UAEPAV1@I@Z 12059280 f   NodeImpl.obj
 0001:00058290       ?removeChild@NodeImpl@@UAEPAV1@PAV1@@Z 12059290 f   NodeImpl.obj
 0001:000582e0       ?replaceChild@NodeImpl@@UAEPAV1@PAV1@0@Z 120592e0 f   NodeImpl.obj
 0001:00058330       ?referenced@NodeImpl@@UAEXXZ 12059330 f   NodeImpl.obj
 0001:00058340       ?unreferenced@NodeImpl@@UAEXXZ 12059340 f   NodeImpl.obj
 0001:00058360       ?setNodeValue@NodeImpl@@UAEXABVDOMString@@@Z 12059360 f   NodeImpl.obj
 0001:000583d0       ?setReadOnly@NodeImpl@@UAEX_N0@Z 120593d0 f   NodeImpl.obj
 0001:00058410       ?setUserData@NodeImpl@@UAEXPAX@Z 12059410 f   NodeImpl.obj
 0001:00058450       ?toString@NodeImpl@@UAE?AVDOMString@@XZ 12059450 f   NodeImpl.obj
 0001:000585b0       ?isSupported@NodeImpl@@UAE_NABVDOMString@@0@Z 120595b0 f   NodeImpl.obj
 0001:000585d0       ?getNodeValue@NodeImpl@@UAE?AVDOMString@@XZ 120595d0 f   NodeImpl.obj
 0001:000585d0       ?getNamespaceURI@NodeImpl@@UAE?AVDOMString@@XZ 120595d0 f   NodeImpl.obj
 0001:000585d0       ?getPrefix@NodeImpl@@UAE?AVDOMString@@XZ 120595d0 f   NodeImpl.obj
 0001:000585d0       ?getLocalName@NodeImpl@@UAE?AVDOMString@@XZ 120595d0 f   NodeImpl.obj
 0001:000585f0       ?setPrefix@NodeImpl@@UAEXABVDOMString@@@Z 120595f0 f   NodeImpl.obj
 0001:00058640       ?getXmlnsString@NodeImpl@@KA?AVDOMString@@XZ 12059640 f   NodeImpl.obj
 0001:00058680       ?getXmlnsURIString@NodeImpl@@KA?AVDOMString@@XZ 12059680 f   NodeImpl.obj
 0001:000586c0       ?getXmlString@NodeImpl@@KA?AVDOMString@@XZ 120596c0 f   NodeImpl.obj
 0001:00058700       ?getXmlURIString@NodeImpl@@KA?AVDOMString@@XZ 12059700 f   NodeImpl.obj
 0001:00058740       ?mapPrefix@NodeImpl@@KAABVDOMString@@ABV2@0F@Z 12059740 f   NodeImpl.obj
 0001:000589d0       ?reinitNodeImpl@NodeImpl@@SAXXZ 120599d0 f   NodeImpl.obj
 0001:00058a60       ??0NodeIteratorImpl@@IAE@XZ 12059a60 f   NodeIteratorImpl.obj
 0001:00058ad0       ??_ENodeIteratorImpl@@UAEPAXI@Z 12059ad0 f i NodeIteratorImpl.obj
 0001:00058b30       ??1NodeIteratorImpl@@UAE@XZ 12059b30 f   NodeIteratorImpl.obj
 0001:00058ba0       ?detach@NodeIteratorImpl@@QAEXXZ 12059ba0 f   NodeIteratorImpl.obj
 0001:00058bb0       ??0NodeIteratorImpl@@QAE@VDOM_Node@@KPAVDOM_NodeFilter@@_N@Z 12059bb0 f   NodeIteratorImpl.obj
 0001:00058c50       ??0NodeIteratorImpl@@QAE@ABV0@@Z 12059c50 f   NodeIteratorImpl.obj
 0001:00058ce0       ??4NodeIteratorImpl@@QAEAAV0@ABV0@@Z 12059ce0 f   NodeIteratorImpl.obj
 0001:00058d30       ?getRoot@NodeIteratorImpl@@QAE?AVDOM_Node@@XZ 12059d30 f   NodeIteratorImpl.obj
 0001:00058d30       ?getStartContainer@RangeImpl@@QBE?AVDOM_Node@@XZ 12059d30 f   NodeIteratorImpl.obj
 0001:00058d50       ?nextNode@NodeIteratorImpl@@QAE?AVDOM_Node@@XZ 12059d50 f   NodeIteratorImpl.obj
 0001:00058ee0       ?previousNode@NodeIteratorImpl@@QAE?AVDOM_Node@@XZ 12059ee0 f   NodeIteratorImpl.obj
 0001:00059080       ?acceptNode@NodeIteratorImpl@@QAE_NVDOM_Node@@@Z 1205a080 f   NodeIteratorImpl.obj
 0001:00059150       ?matchNodeOrParent@NodeIteratorImpl@@QAE?AVDOM_Node@@V2@@Z 1205a150 f   NodeIteratorImpl.obj
 0001:00059280       ?nextNode@NodeIteratorImpl@@QAE?AVDOM_Node@@V2@_N@Z 1205a280 f   NodeIteratorImpl.obj
 0001:00059510       ?previousNode@NodeIteratorImpl@@QAE?AVDOM_Node@@V2@@Z 1205a510 f   NodeIteratorImpl.obj
 0001:000596b0       ?removeNode@NodeIteratorImpl@@QAEXVDOM_Node@@@Z 1205a6b0 f   NodeIteratorImpl.obj
 0001:00059850       ?unreferenced@NodeIteratorImpl@@UAEXXZ 1205a850 f   NodeIteratorImpl.obj
 0001:000599d0       ??0NodeListImpl@@IAE@XZ    1205a9d0 f   NodeListImpl.obj
 0001:000599f0       ??1NodeListImpl@@UAE@XZ    1205a9f0 f   NodeListImpl.obj
 0001:00059a00       ??0NodeVector@@QAE@XZ      1205aa00 f   NodeVector.obj
 0001:00059a30       ??0NodeVector@@QAE@I@Z     1205aa30 f   NodeVector.obj
 0001:00059a60       ??1BitSet@@QAE@XZ          1205aa60 f   NodeVector.obj
 0001:00059a60       ??1NodeVector@@QAE@XZ      1205aa60 f   NodeVector.obj
 0001:00059a70       ?addElement@NodeVector@@QAEXPAVNodeImpl@@@Z 1205aa70 f   NodeVector.obj
 0001:00059ae0       ?lastElement@NodeVector@@QAEPAVNodeImpl@@XZ 1205aae0 f   NodeVector.obj
 0001:00059af0       ?insertElementAt@NodeVector@@QAEXPAVNodeImpl@@I@Z 1205aaf0 f   NodeVector.obj
 0001:00059b80       ??0NotationImpl@@QAE@PAVDocumentImpl@@ABVDOMString@@@Z 1205ab80 f   NotationImpl.obj
 0001:00059c20       ??_ENotationImpl@@UAEPAXI@Z 1205ac20 f i NotationImpl.obj
 0001:00059c80       ??0NotationImpl@@QAE@ABV0@_N@Z 1205ac80 f   NotationImpl.obj
 0001:00059d20       ??1NotationImpl@@UAE@XZ    1205ad20 f   NotationImpl.obj
 0001:00059d90       ?cloneNode@NotationImpl@@UAEPAVNodeImpl@@_N@Z 1205ad90 f   NotationImpl.obj
 0001:00059e00       ?getNodeName@ElementDefinitionImpl@@UAE?AVDOMString@@XZ 1205ae00 f   NotationImpl.obj
 0001:00059e00       ?getNodeName@AttrImpl@@UAE?AVDOMString@@XZ 1205ae00 f   NotationImpl.obj
 0001:00059e00       ?getName@AttrImpl@@UAE?AVDOMString@@XZ 1205ae00 f   NotationImpl.obj
 0001:00059e00       ?getNodeName@NotationImpl@@UAE?AVDOMString@@XZ 1205ae00 f   NotationImpl.obj
 0001:00059e20       ?getPublicId@NotationImpl@@UAE?AVDOMString@@XZ 1205ae20 f   NotationImpl.obj
 0001:00059e40       ?setPublicId@NotationImpl@@UAEXABVDOMString@@@Z 1205ae40 f   NotationImpl.obj
 0001:00059ee0       ?setSystemId@NotationImpl@@UAEXABVDOMString@@@Z 1205aee0 f   NotationImpl.obj
 0001:00059f80       ??0ParentNode@@QAE@PAVDocumentImpl@@@Z 1205af80 f   ParentNode.obj
 0001:00059fb0       ??_EParentNode@@UAEPAXI@Z  1205afb0 f i ParentNode.obj
 0001:0005a010       ??0ParentNode@@QAE@ABV0@@Z 1205b010 f   ParentNode.obj
 0001:0005a050       ?setOwnerDocument@ParentNode@@UAEXPAVDocumentImpl@@@Z 1205b050 f   ParentNode.obj
 0001:0005a080       ?getFirstChild@ParentNode@@UAEPAVNodeImpl@@XZ 1205b080 f   ParentNode.obj
 0001:0005a080       ?getDoctype@IDDocumentImpl@@UBEPAVIDOM_DocumentType@@XZ 1205b080 f   ParentNode.obj
 0001:0005a080       ?getName@IDAttrImpl@@UBEPBGXZ 1205b080 f   ParentNode.obj
 0001:0005a080       ?getNodeName@IDAttrImpl@@UBEPBGXZ 1205b080 f   ParentNode.obj
 0001:0005a080       ?getNodeName@IDEntityImpl@@UBEPBGXZ 1205b080 f   ParentNode.obj
 0001:0005a090       ?lastChild@ParentNode@@IAEPAVChildNode@@XZ 1205b090 f   ParentNode.obj
 0001:0005a090       ?getLastChild@ParentNode@@UAEPAVNodeImpl@@XZ 1205b090 f   ParentNode.obj
 0001:0005a0a0       ?lastChild@ParentNode@@IAEXPAVChildNode@@@Z 1205b0a0 f   ParentNode.obj
 0001:0005a0c0       ?getLength@ParentNode@@UAEIXZ 1205b0c0 f   ParentNode.obj
 0001:0005a100       ?hasChildNodes@ParentNode@@UAE_NXZ 1205b100 f   ParentNode.obj
 0001:0005a110       ?insertBefore@ParentNode@@UAEPAVNodeImpl@@PAV2@0@Z 1205b110 f   ParentNode.obj
 0001:0005a4a0       ?item@ParentNode@@UAEPAVNodeImpl@@I@Z 1205b4a0 f   ParentNode.obj
 0001:0005a540       ?removeChild@ParentNode@@UAEPAVNodeImpl@@PAV2@@Z 1205b540 f   ParentNode.obj
 0001:0005a750       ?replaceChild@AttrImpl@@UAEPAVNodeImpl@@PAV2@0@Z 1205b750 f   ParentNode.obj
 0001:0005a750       ?replaceChild@ParentNode@@UAEPAVNodeImpl@@PAV2@0@Z 1205b750 f   ParentNode.obj
 0001:0005a780       ?setReadOnly@ParentNode@@UAEX_N0@Z 1205b780 f   ParentNode.obj
 0001:0005a7d0       ?normalize@ParentNode@@UAEXXZ 1205b7d0 f   ParentNode.obj
 0001:0005a870       ??0ProcessingInstructionImpl@@QAE@PAVDocumentImpl@@ABVDOMString@@1@Z 1205b870 f   ProcessingInstructionImpl.obj
 0001:0005a930       ??_EProcessingInstructionImpl@@UAEPAXI@Z 1205b930 f i ProcessingInstructionImpl.obj
 0001:0005a990       ??0ProcessingInstructionImpl@@QAE@ABV0@_N@Z 1205b990 f   ProcessingInstructionImpl.obj
 0001:0005aa50       ??1ProcessingInstructionImpl@@UAE@XZ 1205ba50 f   ProcessingInstructionImpl.obj
 0001:0005aab0       ?cloneNode@ProcessingInstructionImpl@@UAEPAVNodeImpl@@_N@Z 1205bab0 f   ProcessingInstructionImpl.obj
 0001:0005ab20       ?setNodeValue@ProcessingInstructionImpl@@UAEXABVDOMString@@@Z 1205bb20 f   ProcessingInstructionImpl.obj
 0001:0005abc0       ?getData@ProcessingInstructionImpl@@UAE?AVDOMString@@XZ 1205bbc0 f   ProcessingInstructionImpl.obj
 0001:0005abc0       ?getNodeValue@ProcessingInstructionImpl@@UAE?AVDOMString@@XZ 1205bbc0 f   ProcessingInstructionImpl.obj
 0001:0005abe0       ?getTarget@ProcessingInstructionImpl@@UAE?AVDOMString@@XZ 1205bbe0 f   ProcessingInstructionImpl.obj
 0001:0005abe0       ?getSystemId@NotationImpl@@UAE?AVDOMString@@XZ 1205bbe0 f   ProcessingInstructionImpl.obj
 0001:0005ac00       ?setData@ProcessingInstructionImpl@@UAEXABVDOMString@@@Z 1205bc00 f   ProcessingInstructionImpl.obj
 0001:0005aca0       ??0RangeImpl@@QAE@VDOM_Document@@@Z 1205bca0 f   RangeImpl.obj
 0001:0005ad50       ??_ERangeImpl@@UAEPAXI@Z   1205bd50 f i RangeImpl.obj
 0001:0005adb0       ??0RangeImpl@@QAE@ABV0@@Z  1205bdb0 f   RangeImpl.obj
 0001:0005ae80       ??1RangeImpl@@UAE@XZ       1205be80 f   RangeImpl.obj
 0001:0005af00       ?unreferenced@RangeImpl@@UAEXXZ 1205bf00 f   RangeImpl.obj
 0001:0005aff0       ?getCollapsed@RangeImpl@@QBE_NXZ 1205bff0 f   RangeImpl.obj
 0001:0005b090       ?setStartContainer@RangeImpl@@AAEXABVDOM_Node@@@Z 1205c090 f   RangeImpl.obj
 0001:0005b100       ?setStartOffset@RangeImpl@@AAEXI@Z 1205c100 f   RangeImpl.obj
 0001:0005b170       ?setEndContainer@RangeImpl@@AAEXABVDOM_Node@@@Z 1205c170 f   RangeImpl.obj
 0001:0005b1e0       ?setEndOffset@RangeImpl@@AAEXI@Z 1205c1e0 f   RangeImpl.obj
 0001:0005b250       ?setStart@RangeImpl@@QAEXABVDOM_Node@@I@Z 1205c250 f   RangeImpl.obj
 0001:0005b4f0       ?setEnd@RangeImpl@@QAEXABVDOM_Node@@I@Z 1205c4f0 f   RangeImpl.obj
 0001:0005b790       ?setStartBefore@RangeImpl@@QAEXABVDOM_Node@@@Z 1205c790 f   RangeImpl.obj
 0001:0005ba90       ?setStartAfter@RangeImpl@@QAEXABVDOM_Node@@@Z 1205ca90 f   RangeImpl.obj
 0001:0005bd80       ?setEndBefore@RangeImpl@@QAEXABVDOM_Node@@@Z 1205cd80 f   RangeImpl.obj
 0001:0005c080       ?setEndAfter@RangeImpl@@QAEXABVDOM_Node@@@Z 1205d080 f   RangeImpl.obj
 0001:0005c380       ?detach@RangeImpl@@QAEXXZ  1205d380 f   RangeImpl.obj
 0001:0005c420       ?collapse@RangeImpl@@QAEX_N@Z 1205d420 f   RangeImpl.obj
 0001:0005c4c0       ?selectNode@RangeImpl@@QAEXABVDOM_Node@@@Z 1205d4c0 f   RangeImpl.obj
 0001:0005c780       ?selectNodeContents@RangeImpl@@QAEXABVDOM_Node@@@Z 1205d780 f   RangeImpl.obj
 0001:0005c9b0       ?surroundContents@RangeImpl@@QAEXAAVDOM_Node@@@Z 1205d9b0 f   RangeImpl.obj
 0001:0005cc80       ?compareBoundaryPoints@RangeImpl@@QBEFW4CompareHow@DOM_Range@@PAV1@@Z 1205dc80 f   RangeImpl.obj
 0001:0005d430       ?deleteContents@RangeImpl@@QAEXXZ 1205e430 f   RangeImpl.obj
 0001:0005d450       ?extractContents@RangeImpl@@QAE?AVDOM_DocumentFragment@@XZ 1205e450 f   RangeImpl.obj
 0001:0005d490       ?cloneContents@RangeImpl@@QBE?AVDOM_DocumentFragment@@XZ 1205e490 f   RangeImpl.obj
 0001:0005d4b0       ?insertNode@RangeImpl@@QAEXAAVDOM_Node@@@Z 1205e4b0 f   RangeImpl.obj
 0001:0005d910       ?cloneRange@RangeImpl@@QBEPAV1@XZ 1205e910 f   RangeImpl.obj
 0001:0005d9b0       ?toString@RangeImpl@@QBE?AVDOMString@@XZ 1205e9b0 f   RangeImpl.obj
 0001:0005de90       ?getDocument@RangeImpl@@QAE?AVDOM_Document@@XZ 1205ee90 f   RangeImpl.obj
 0001:0005deb0       ?getCommonAncestorContainer@RangeImpl@@QBE?BVDOM_Node@@XZ 1205eeb0 f   RangeImpl.obj
 0001:0005dee0       ?isValidAncestorType@RangeImpl@@ABE_NABVDOM_Node@@@Z 1205eee0 f   RangeImpl.obj
 0001:0005dfc0       ?isAncestorOf@RangeImpl@@CA_NABVDOM_Node@@0@Z 1205efc0 f   RangeImpl.obj
 0001:0005e090       ?hasLegalRootContainer@RangeImpl@@ABE_NABVDOM_Node@@@Z 1205f090 f   RangeImpl.obj
 0001:0005e1e0       ?isLegalContainedNode@RangeImpl@@ABE_NABVDOM_Node@@@Z 1205f1e0 f   RangeImpl.obj
 0001:0005e240       ?indexOf@RangeImpl@@ABEGABVDOM_Node@@0@Z 1205f240 f   RangeImpl.obj
 0001:0005e330       ?validateNode@RangeImpl@@ABEXABVDOM_Node@@@Z 1205f330 f   RangeImpl.obj
 0001:0005e460       ?commonAncestorOf@RangeImpl@@ABE?BVDOM_Node@@ABV2@0@Z 1205f460 f   RangeImpl.obj
 0001:0005e880       ?checkIndex@RangeImpl@@ABEXABVDOM_Node@@I@Z 1205f880 f   RangeImpl.obj
 0001:0005e9f0       ?nextNode@RangeImpl@@ABE?AVDOM_Node@@ABV2@_N@Z 1205f9f0 f   RangeImpl.obj
 0001:0005ec30       ?traverseContents@RangeImpl@@AAE?AVDOM_DocumentFragment@@W4TraversalType@1@@Z 1205fc30 f   RangeImpl.obj
 0001:0005efd0       ?traverseSameContainer@RangeImpl@@AAE?AVDOM_DocumentFragment@@H@Z 1205ffd0 f   RangeImpl.obj
 0001:0005f2d0       ?traverseCommonStartContainer@RangeImpl@@AAE?AVDOM_DocumentFragment@@VDOM_Node@@H@Z 120602d0 f   RangeImpl.obj
 0001:0005f650       ?traverseCommonEndContainer@RangeImpl@@AAE?AVDOM_DocumentFragment@@VDOM_Node@@H@Z 12060650 f   RangeImpl.obj
 0001:0005f940       ?traverseCommonAncestors@RangeImpl@@AAE?AVDOM_DocumentFragment@@VDOM_Node@@0H@Z 12060940 f   RangeImpl.obj
 0001:0005fd80       ?traverseRightBoundary@RangeImpl@@AAE?AVDOM_Node@@V2@H@Z 12060d80 f   RangeImpl.obj
 0001:000600a0       ?traverseLeftBoundary@RangeImpl@@AAE?AVDOM_Node@@V2@H@Z 120610a0 f   RangeImpl.obj
 0001:000603c0       ?traverseNode@RangeImpl@@AAE?AVDOM_Node@@V2@_N1H@Z 120613c0 f   RangeImpl.obj
 0001:000604a0       ?traverseFullySelected@RangeImpl@@AAE?AVDOM_Node@@V2@H@Z 120614a0 f   RangeImpl.obj
 0001:000605c0       ?traversePartiallySelected@RangeImpl@@AAE?AVDOM_Node@@V2@H@Z 120615c0 f   RangeImpl.obj
 0001:00060650       ?traverseTextNode@RangeImpl@@AAE?AVDOM_Node@@V2@_NH@Z 12061650 f   RangeImpl.obj
 0001:00060890       ?getSelectedNode@RangeImpl@@AAE?AVDOM_Node@@V2@H@Z 12061890 f   RangeImpl.obj
 0001:000609c0       ?checkReadOnly@RangeImpl@@AAEXAAVDOM_Node@@0II@Z 120619c0 f   RangeImpl.obj
 0001:00060b80       ?recurseTreeAndCheck@RangeImpl@@AAEXAAVDOM_Node@@0@Z 12061b80 f   RangeImpl.obj
 0001:00060cd0       ?removeChild@RangeImpl@@AAE?AVDOM_Node@@AAV2@0@Z 12061cd0 f   RangeImpl.obj
 0001:00060d60       ?receiveReplacedText@RangeImpl@@QAEXPAVNodeImpl@@@Z 12061d60 f   RangeImpl.obj
 0001:00060e10       ?updateRangeForDeletedText@RangeImpl@@QAEXAAVDOM_Node@@IH@Z 12061e10 f   RangeImpl.obj
 0001:00060eb0       ?updateRangeForDeletedNode@RangeImpl@@QAEXPAVNodeImpl@@@Z 12061eb0 f   RangeImpl.obj
 0001:00061420       ?updateRangeForInsertedNode@RangeImpl@@QAEXPAVNodeImpl@@@Z 12062420 f   RangeImpl.obj
 0001:00061640       ?updateSplitInfo@RangeImpl@@QAEXPAVTextImpl@@0I@Z 12062640 f   RangeImpl.obj
 0001:00061720       ??0RefCountedImpl@@QAE@XZ  12062720 f   RefCountedImpl.obj
 0001:00061730       ??1RefCountedImpl@@UAE@XZ  12062730 f   RefCountedImpl.obj
 0001:00061740       ?addRef@RefCountedImpl@@SAXPAV1@@Z 12062740 f   RefCountedImpl.obj
 0001:00061760       ?removeRef@RefCountedImpl@@SAXPAV1@@Z 12062760 f   RefCountedImpl.obj
 0001:000617a0       ??0TextImpl@@QAE@PAVDocumentImpl@@ABVDOMString@@@Z 120627a0 f   TextImpl.obj
 0001:000617c0       ??_ETextImpl@@UAEPAXI@Z    120627c0 f i TextImpl.obj
 0001:00061820       ??0TextImpl@@QAE@ABV0@_N@Z 12062820 f   TextImpl.obj
 0001:00061840       ??1TextImpl@@UAE@XZ        12062840 f   TextImpl.obj
 0001:00061850       ?cloneNode@TextImpl@@UAEPAVNodeImpl@@_N@Z 12062850 f   TextImpl.obj
 0001:000618b0       ?getNodeName@TextImpl@@UAE?AVDOMString@@XZ 120628b0 f   TextImpl.obj
 0001:000618f0       ?splitText@TextImpl@@UAEPAV1@I@Z 120628f0 f   TextImpl.obj
 0001:00061ae0       ?isIgnorableWhitespace@TextImpl@@UAE_NXZ 12062ae0 f   TextImpl.obj
 0001:00061b00       ?setIgnorableWhitespace@TextImpl@@MAEX_N@Z 12062b00 f   TextImpl.obj
 0001:00061b40       ?reinitTextImpl@TextImpl@@SAXXZ 12062b40 f   TextImpl.obj
 0001:00061b70       ??0TreeWalkerImpl@@QAE@VDOM_Node@@KPAVDOM_NodeFilter@@_N@Z 12062b70 f   TreeWalkerImpl.obj
 0001:00061c00       ??_ETreeWalkerImpl@@UAEPAXI@Z 12062c00 f i TreeWalkerImpl.obj
 0001:00061c60       ??0TreeWalkerImpl@@QAE@ABV0@@Z 12062c60 f   TreeWalkerImpl.obj
 0001:00061ce0       ??4TreeWalkerImpl@@QAEAAV0@ABV0@@Z 12062ce0 f   TreeWalkerImpl.obj
 0001:00061d20       ?unreferenced@TreeWalkerImpl@@UAEXXZ 12062d20 f   TreeWalkerImpl.obj
 0001:00061ea0       ?getRoot@TreeWalkerImpl@@QAE?AVDOM_Node@@XZ 12062ea0 f   TreeWalkerImpl.obj
 0001:00061ec0       ?getExpandEntityReferences@TreeWalkerImpl@@QAE_NXZ 12062ec0 f   TreeWalkerImpl.obj
 0001:00061ed0       ?getCurrentNode@TreeWalkerImpl@@QAE?AVDOM_Node@@XZ 12062ed0 f   TreeWalkerImpl.obj
 0001:00061ed0       ?getEndContainer@RangeImpl@@QBE?AVDOM_Node@@XZ 12062ed0 f   TreeWalkerImpl.obj
 0001:00061ef0       ?setCurrentNode@TreeWalkerImpl@@QAEXVDOM_Node@@@Z 12062ef0 f   TreeWalkerImpl.obj
 0001:00061f40       ?parentNode@TreeWalkerImpl@@QAE?AVDOM_Node@@XZ 12062f40 f   TreeWalkerImpl.obj
 0001:00062020       ?firstChild@TreeWalkerImpl@@QAE?AVDOM_Node@@XZ 12063020 f   TreeWalkerImpl.obj
 0001:00062100       ?lastChild@TreeWalkerImpl@@QAE?AVDOM_Node@@XZ 12063100 f   TreeWalkerImpl.obj
 0001:000621e0       ?previousSibling@TreeWalkerImpl@@QAE?AVDOM_Node@@XZ 120631e0 f   TreeWalkerImpl.obj
 0001:000622c0       ?nextSibling@TreeWalkerImpl@@QAE?AVDOM_Node@@XZ 120632c0 f   TreeWalkerImpl.obj
 0001:000623a0       ?previousNode@TreeWalkerImpl@@QAE?AVDOM_Node@@XZ 120633a0 f   TreeWalkerImpl.obj
 0001:00062560       ?nextNode@TreeWalkerImpl@@QAE?AVDOM_Node@@XZ 12063560 f   TreeWalkerImpl.obj
 0001:00062790       ?getParentNode@TreeWalkerImpl@@IAE?AVDOM_Node@@V2@@Z 12063790 f   TreeWalkerImpl.obj
 0001:00062920       ?getNextSibling@TreeWalkerImpl@@IAE?AVDOM_Node@@V2@@Z 12063920 f   TreeWalkerImpl.obj
 0001:00062bb0       ?getPreviousSibling@TreeWalkerImpl@@IAE?AVDOM_Node@@V2@@Z 12063bb0 f   TreeWalkerImpl.obj
 0001:00062e40       ?getFirstChild@TreeWalkerImpl@@IAE?AVDOM_Node@@V2@@Z 12063e40 f   TreeWalkerImpl.obj
 0001:00063020       ?getLastChild@TreeWalkerImpl@@IAE?AVDOM_Node@@V2@@Z 12064020 f   TreeWalkerImpl.obj
 0001:00063200       ?acceptNode@TreeWalkerImpl@@IAEFVDOM_Node@@@Z 12064200 f   TreeWalkerImpl.obj
 0001:00063330       ??0XMLDeclImpl@@QAE@PAVDocumentImpl@@@Z 12064330 f   XMLDeclImpl.obj
 0001:000633b0       ??_EXMLDeclImpl@@UAEPAXI@Z 120643b0 f i XMLDeclImpl.obj
 0001:00063410       ??0XMLDeclImpl@@QAE@PAVDocumentImpl@@ABVDOMString@@11@Z 12064410 f   XMLDeclImpl.obj
 0001:00063490       ??0XMLDeclImpl@@QAE@ABV0@_N@Z 12064490 f   XMLDeclImpl.obj
 0001:00063590       ??1XMLDeclImpl@@UAE@XZ     12064590 f   XMLDeclImpl.obj
 0001:00063600       ?cloneNode@XMLDeclImpl@@UAEPAVNodeImpl@@_N@Z 12064600 f   XMLDeclImpl.obj
 0001:00063670       ?getNodeName@XMLDeclImpl@@UAE?AVDOMString@@XZ 12064670 f   XMLDeclImpl.obj
 0001:000636b0       ?getNodeType@XMLDeclImpl@@UAEFXZ 120646b0 f   XMLDeclImpl.obj
 0001:000636c0       ?getNodeValue@CharacterDataImpl@@UAE?AVDOMString@@XZ 120646c0 f   XMLDeclImpl.obj
 0001:000636c0       ?getNodeName@ProcessingInstructionImpl@@UAE?AVDOMString@@XZ 120646c0 f   XMLDeclImpl.obj
 0001:000636c0       ?getVersion@XMLDeclImpl@@UBE?AVDOMString@@XZ 120646c0 f   XMLDeclImpl.obj
 0001:000636c0       ?getNamespaceURI@AttrNSImpl@@UAE?AVDOMString@@XZ 120646c0 f   XMLDeclImpl.obj
 0001:000636e0       ?getLocalName@AttrNSImpl@@UAE?AVDOMString@@XZ 120646e0 f   XMLDeclImpl.obj
 0001:000636e0       ?getEncoding@XMLDeclImpl@@UBE?AVDOMString@@XZ 120646e0 f   XMLDeclImpl.obj
 0001:00063700       ?getStandalone@XMLDeclImpl@@UBE?AVDOMString@@XZ 12064700 f   XMLDeclImpl.obj
 0001:00063720       ?setVersion@XMLDeclImpl@@UAEXABVDOMString@@@Z 12064720 f   XMLDeclImpl.obj
 0001:00063780       ?setEncoding@XMLDeclImpl@@UAEXABVDOMString@@@Z 12064780 f   XMLDeclImpl.obj
 0001:000637e0       ?setStandalone@XMLDeclImpl@@UAEXABVDOMString@@@Z 120647e0 f   XMLDeclImpl.obj
 0001:00063840       ?reinitXMLDeclImpl@XMLDeclImpl@@SAXXZ 12064840 f   XMLDeclImpl.obj
 0001:00063870       ??0AllContentModel@@QAE@QAVContentSpecNode@@_N@Z 12064870 f   AllContentModel.obj
 0001:00063a60       ?getNextState@SimpleContentModel@@UBEIII@Z 12064a60 f i AllContentModel.obj
 0001:00063a60       ?getNextState@MixedContentModel@@UBEIII@Z 12064a60 f i AllContentModel.obj
 0001:00063a60       ?getNextState@AllContentModel@@UBEIII@Z 12064a60 f i AllContentModel.obj
 0001:00063a70       ??_EAllContentModel@@UAEPAXI@Z 12064a70 f i AllContentModel.obj
 0001:00063a70       ??_GAllContentModel@@UAEPAXI@Z 12064a70 f i AllContentModel.obj
 0001:00063a90       ??1AllContentModel@@UAE@XZ 12064a90 f   AllContentModel.obj
 0001:00063af0       ?validateContent@AllContentModel@@UBEHQAPAVQName@@II@Z 12064af0 f   AllContentModel.obj
 0001:00063c20       ?validateContentSpecial@AllContentModel@@UBEHQAPAVQName@@IIQAVGrammarResolver@@QAVXMLStringPool@@@Z 12064c20 f   AllContentModel.obj
 0001:00063d60       ?checkUniqueParticleAttribution@AllContentModel@@UAEXQAVSchemaGrammar@@QAVGrammarResolver@@QAVXMLStringPool@@QAVXMLValidator@@QAI@Z 12064d60 f   AllContentModel.obj
 0001:00063e80       ?buildChildList@AllContentModel@@AAEXQAVContentSpecNode@@AAV?$ValueVectorOf@PAVQName@@@@AAV?$ValueVectorOf@_N@@@Z 12064e80 f   AllContentModel.obj
 0001:00064060       ?ensureExtraCapacity@?$ValueVectorOf@_N@@QAEXI@Z 12065060 f i AllContentModel.obj
 0001:000640e0       ??0CMAny@@QAE@W4NodeTypes@ContentSpecNode@@II@Z 120650e0 f   CMAny.obj
 0001:000641a0       ??1CMNode@@UAE@XZ          120651a0 f i CMAny.obj
 0001:000641f0       ??_ECMNode@@UAEPAXI@Z      120651f0 f i CMAny.obj
 0001:000641f0       ??_GCMNode@@UAEPAXI@Z      120651f0 f i CMAny.obj
 0001:00064260       ??_GCMAny@@UAEPAXI@Z       12065260 f i CMAny.obj
 0001:00064260       ??_ECMAny@@UAEPAXI@Z       12065260 f i CMAny.obj
 0001:00064280       ??1CMAny@@UAE@XZ           12065280 f   CMAny.obj
 0001:000642d0       ?isNullable@CMAny@@UBE_NXZ 120652d0 f   CMAny.obj
 0001:000642e0       ?calcLastPos@CMAny@@MBEXAAVCMStateSet@@@Z 120652e0 f   CMAny.obj
 0001:000642e0       ?calcFirstPos@CMAny@@MBEXAAVCMStateSet@@@Z 120652e0 f   CMAny.obj
 0001:000643d0       ??0CMBinaryOp@@QAE@W4NodeTypes@ContentSpecNode@@QAVCMNode@@1@Z 120653d0 f   CMBinaryOp.obj
 0001:00064480       ??_ECMBinaryOp@@UAEPAXI@Z  12065480 f i CMBinaryOp.obj
 0001:00064480       ??_GCMBinaryOp@@UAEPAXI@Z  12065480 f i CMBinaryOp.obj
 0001:000644a0       ??1CMBinaryOp@@UAE@XZ      120654a0 f   CMBinaryOp.obj
 0001:00064550       ?isNullable@CMBinaryOp@@UBE_NXZ 12065550 f   CMBinaryOp.obj
 0001:000645a0       ?calcFirstPos@CMBinaryOp@@MBEXAAVCMStateSet@@@Z 120655a0 f   CMBinaryOp.obj
 0001:00064760       ?getFirstPos@CMNode@@QBEABVCMStateSet@@XZ 12065760 f i CMBinaryOp.obj
 0001:00064830       ?calcLastPos@CMBinaryOp@@MBEXAAVCMStateSet@@@Z 12065830 f   CMBinaryOp.obj
 0001:000649f0       ?getLastPos@CMNode@@QBEABVCMStateSet@@XZ 120659f0 f i CMBinaryOp.obj
 0001:00064ac0       ??0CMUnaryOp@@QAE@W4NodeTypes@ContentSpecNode@@QAVCMNode@@@Z 12065ac0 f   CMUnaryOp.obj
 0001:00064b70       ??_GCMUnaryOp@@UAEPAXI@Z   12065b70 f i CMUnaryOp.obj
 0001:00064b70       ??_ECMUnaryOp@@UAEPAXI@Z   12065b70 f i CMUnaryOp.obj
 0001:00064b90       ??1CMUnaryOp@@UAE@XZ       12065b90 f   CMUnaryOp.obj
 0001:00064c30       ?isNullable@CMUnaryOp@@UBE_NXZ 12065c30 f   CMUnaryOp.obj
 0001:00064c50       ?calcFirstPos@CMUnaryOp@@MBEXAAVCMStateSet@@@Z 12065c50 f   CMUnaryOp.obj
 0001:00064cd0       ?calcLastPos@CMUnaryOp@@MBEXAAVCMStateSet@@@Z 12065cd0 f   CMUnaryOp.obj
 0001:00064d50       ??1ContentLeafNameTypeVector@@QAE@XZ 12065d50 f   ContentLeafNameTypeVector.obj
 0001:00064d70       ?setValues@ContentLeafNameTypeVector@@QAEXQAPAVQName@@QAW4NodeTypes@ContentSpecNode@@I@Z 12065d70 f   ContentLeafNameTypeVector.obj
 0001:00064de0       ?getLeafNameAt@ContentLeafNameTypeVector@@QBEPAVQName@@I@Z 12065de0 f   ContentLeafNameTypeVector.obj
 0001:00064e20       ?getLeafTypeAt@ContentLeafNameTypeVector@@QBE?BW4NodeTypes@ContentSpecNode@@I@Z 12065e20 f   ContentLeafNameTypeVector.obj
 0001:00064e60       ??0ContentSpecNode@@QAE@ABV0@@Z 12065e60 f   ContentSpecNode.obj
 0001:00064f80       ?formatSpec@ContentSpecNode@@QBEXAAVXMLBuffer@@@Z 12065f80 f   ContentSpecNode.obj
 0001:00065430       ??0HashCMStateSet@@QAE@ABV0@@Z 12066430 f i DFAContentModel.obj
 0001:00065440       ??_EHashCMStateSet@@UAEPAXI@Z 12066440 f i DFAContentModel.obj
 0001:000654a0       ??0HashCMStateSet@@QAE@XZ  120664a0 f i DFAContentModel.obj
 0001:000654b0       ??1HashCMStateSet@@UAE@XZ  120664b0 f i DFAContentModel.obj
 0001:000654c0       ?getHashVal@HashCMStateSet@@UAEIQBXI@Z 120664c0 f i DFAContentModel.obj
 0001:00065510       ?equals@HashCMStateSet@@UAE_NQBX0@Z 12066510 f i DFAContentModel.obj
 0001:00065570       ??4DatatypeValidatorFactory@@QAEAAV0@ABV0@@Z 12066570 f i DFAContentModel.obj
 0001:00065570       ??4IDCharacterDataImpl@@QAEAAV0@ABV0@@Z 12066570 f i DFAContentModel.obj
 0001:00065570       ??4XMLInteger@@QAEAAV0@ABV0@@Z 12066570 f i DFAContentModel.obj
 0001:00065580       ?resetEntities@IDOMParser@@UAEXXZ 12066580 f i DFAContentModel.obj
 0001:00065580       ?startDocument@DefaultHandler@@UAEXXZ 12066580 f i DFAContentModel.obj
 0001:00065580       ?resetDocument@DefaultHandler@@UAEXXZ 12066580 f i DFAContentModel.obj
 0001:00065580       ??1XUtil@@IAE@XZ           12066580 f i DFAContentModel.obj
 0001:00065580       ?endCDATA@DefaultHandler@@UAEXXZ 12066580 f i DFAContentModel.obj
 0001:00065580       ?endDocument@DefaultHandler@@UAEXXZ 12066580 f i DFAContentModel.obj
 0001:00065580       ?endDocument@HandlerBase@@UAEXXZ 12066580 f i DFAContentModel.obj
 0001:00065580       ?endDocument@ValueStoreCache@@QAEXXZ 12066580 f i DFAContentModel.obj
 0001:00065580       ?resetDocument@HandlerBase@@UAEXXZ 12066580 f i DFAContentModel.obj
 0001:00065580       ?resetErrors@HandlerBase@@UAEXXZ 12066580 f i DFAContentModel.obj
 0001:00065580       ?resetEntities@DOMParser@@UAEXXZ 12066580 f i DFAContentModel.obj
 0001:00065580       ?startDocument@HandlerBase@@UAEXXZ 12066580 f i DFAContentModel.obj
 0001:00065580       ?endDTD@DefaultHandler@@UAEXXZ 12066580 f i DFAContentModel.obj
 0001:00065580       ??1XMLInteger@@QAE@XZ      12066580 f i DFAContentModel.obj
 0001:00065580       ?startCDATA@DefaultHandler@@UAEXXZ 12066580 f i DFAContentModel.obj
 0001:00065580       ?resetDocType@DefaultHandler@@UAEXXZ 12066580 f i DFAContentModel.obj
 0001:00065580       ??1SubstitutionGroupComparator@@QAE@XZ 12066580 f i DFAContentModel.obj
 0001:00065580       ??3@YAXPAXPAVIDOM_Document@@@Z 12066580 f i DFAContentModel.obj
 0001:00065580       ??1XMLUniCharacter@@QAE@XZ 12066580 f i DFAContentModel.obj
 0001:00065580       ?resetDocType@HandlerBase@@UAEXXZ 12066580 f i DFAContentModel.obj
 0001:00065580       ??1RegxUtil@@QAE@XZ        12066580 f i DFAContentModel.obj
 0001:00065580       ?resetErrors@DefaultHandler@@UAEXXZ 12066580 f i DFAContentModel.obj
 0001:00065580       ??1EndOfEntityException@@QAE@XZ 12066580 f i DFAContentModel.obj
 0001:00065580       ??1XMLPScanToken@@QAE@XZ   12066580 f i DFAContentModel.obj
 0001:00065580       ??1DOMStringHandle@@QAE@XZ 12066580 f i DFAContentModel.obj
 0001:00065590       ??0DFAContentModel@@QAE@_NQAVContentSpecNode@@@Z 12066590 f   DFAContentModel.obj
 0001:00065610       ?getNextState@DFAContentModel@@UBEIII@Z 12066610 f i DFAContentModel.obj
 0001:00065670       ??_EDFAContentModel@@UAEPAXI@Z 12066670 f i DFAContentModel.obj
 0001:00065670       ??_GDFAContentModel@@UAEPAXI@Z 12066670 f i DFAContentModel.obj
 0001:00065690       ??0DFAContentModel@@QAE@_NQAVContentSpecNode@@0@Z 12066690 f   DFAContentModel.obj
 0001:00065710       ??1DFAContentModel@@UAE@XZ 12066710 f   DFAContentModel.obj
 0001:000657f0       ?validateContent@DFAContentModel@@UBEHQAPAVQName@@II@Z 120667f0 f   DFAContentModel.obj
 0001:000659c0       ?validateContentSpecial@DFAContentModel@@UBEHQAPAVQName@@IIQAVGrammarResolver@@QAVXMLStringPool@@@Z 120669c0 f   DFAContentModel.obj
 0001:00065b30       ?buildDFA@DFAContentModel@@AAEXQAVContentSpecNode@@@Z 12066b30 f   DFAContentModel.obj
 0001:00066a30       ??_ECMLeaf@@UAEPAXI@Z      12067a30 f i DFAContentModel.obj
 0001:00066a30       ??_GCMLeaf@@UAEPAXI@Z      12067a30 f i DFAContentModel.obj
 0001:00066a50       ??1CMLeaf@@UAE@XZ          12067a50 f i DFAContentModel.obj
 0001:00066b00       ?isNullable@CMLeaf@@UBE_NXZ 12067b00 f i DFAContentModel.obj
 0001:00066b10       ?calcLastPos@CMLeaf@@MBEXAAVCMStateSet@@@Z 12067b10 f i DFAContentModel.obj
 0001:00066b10       ?calcFirstPos@CMLeaf@@MBEXAAVCMStateSet@@@Z 12067b10 f i DFAContentModel.obj
 0001:00066c00       ?buildSyntaxTree@DFAContentModel@@AAEPAVCMNode@@QAVContentSpecNode@@@Z 12067c00 f   DFAContentModel.obj
 0001:00066e20       ?calcFollowList@DFAContentModel@@AAEXQAVCMNode@@@Z 12067e20 f   DFAContentModel.obj
 0001:00067090       ?postTreeBuildInit@DFAContentModel@@AAEHQAVCMNode@@I@Z 12068090 f   DFAContentModel.obj
 0001:00067370       ?getEntityRef@EntityImpl@@UBEPAVEntityReferenceImpl@@XZ 12068370 f   DFAContentModel.obj
 0001:00067370       ?getContentLeafNameTypeVector@DFAContentModel@@UBEPAVContentLeafNameTypeVector@@XZ 12068370 f   DFAContentModel.obj
 0001:00067370       ?changes@IDDocumentImpl@@UBEHXZ 12068370 f   DFAContentModel.obj
 0001:00067370       ?getInternalSubset@IDDocumentTypeImpl@@UBEPBGXZ 12068370 f   DFAContentModel.obj
 0001:00067380       ?checkUniqueParticleAttribution@DFAContentModel@@UAEXQAVSchemaGrammar@@QAVGrammarResolver@@QAVXMLStringPool@@QAVXMLValidator@@QAI@Z 12068380 f   DFAContentModel.obj
 0001:000676e0       ?getDatatypeValidator@DatatypeValidatorFactory@@QBEPAVDatatypeValidator@@QBG@Z 120686e0 f i GrammarResolver.obj
 0001:000678c0       ?cleanUp@DatatypeValidatorFactory@@AAEXXZ 120688c0 f i GrammarResolver.obj
 0001:00067940       ??0GrammarResolver@@QAE@XZ 12068940 f   GrammarResolver.obj
 0001:00067a30       ??1GrammarResolver@@QAE@XZ 12068a30 f   GrammarResolver.obj
 0001:00067b00       ?getDatatypeRegistry@GrammarResolver@@QAEPAVDatatypeValidatorFactory@@XZ 12068b00 f   GrammarResolver.obj
 0001:00067b60       ?getGrammar@GrammarResolver@@QAEPAVGrammar@@QBG@Z 12068b60 f   GrammarResolver.obj
 0001:00067c00       ?getGrammarEnumerator@GrammarResolver@@QBE?AV?$RefHashTableOfEnumerator@VGrammar@@@@XZ 12068c00 f   GrammarResolver.obj
 0001:00067cc0       ?putGrammar@GrammarResolver@@QAEXQBGQAVGrammar@@@Z 12068cc0 f   GrammarResolver.obj
 0001:00067ce0       ?reset@GrammarResolver@@QAEXXZ 12068ce0 f   GrammarResolver.obj
 0001:00067d60       ?put@?$RefHashTableOf@VGrammar@@@@QAEXPAXQAVGrammar@@@Z 12068d60 f i GrammarResolver.obj
 0001:00067e60       ?Reset@?$RefHash2KeysTableOfEnumerator@VSchemaAttDef@@@@UAEXXZ 12068e60 f i GrammarResolver.obj
 0001:00067e60       ?Reset@?$RefHashTableOfEnumerator@VXMLRefInfo@@@@UAEXXZ 12068e60 f i GrammarResolver.obj
 0001:00067e60       ?Reset@?$RefHashTableOfEnumerator@VComplexTypeInfo@@@@UAEXXZ 12068e60 f i GrammarResolver.obj
 0001:00067e60       ?Reset@?$RefHashTableOfEnumerator@VValueStore@@@@UAEXXZ 12068e60 f i GrammarResolver.obj
 0001:00067e60       ?Reset@?$RefHashTableOfEnumerator@VKVStringPair@@@@UAEXXZ 12068e60 f i GrammarResolver.obj
 0001:00067e60       ?Reset@?$RefHashTableOfEnumerator@VGrammar@@@@UAEXXZ 12068e60 f i GrammarResolver.obj
 0001:00067e60       ?Reset@?$RefHashTableOfEnumerator@VDTDAttDef@@@@UAEXXZ 12068e60 f i GrammarResolver.obj
 0001:00067ea0       ??0MixedContentModel@@QAE@_NQAVContentSpecNode@@0@Z 12068ea0 f   MixedContentModel.obj
 0001:000680a0       ?checkUniqueParticleAttribution@MixedContentModel@@UAEXQAVSchemaGrammar@@QAVGrammarResolver@@QAVXMLStringPool@@QAVXMLValidator@@QAI@Z 120690a0 f i MixedContentModel.obj
 0001:000680f0       ??_GMixedContentModel@@UAEPAXI@Z 120690f0 f i MixedContentModel.obj
 0001:000680f0       ??_EMixedContentModel@@UAEPAXI@Z 120690f0 f i MixedContentModel.obj
 0001:00068110       ??1MixedContentModel@@UAE@XZ 12069110 f   MixedContentModel.obj
 0001:00068170       ?hasDups@MixedContentModel@@QBE_NXZ 12069170 f   MixedContentModel.obj
 0001:00068200       ?validateContent@MixedContentModel@@UBEHQAPAVQName@@II@Z 12069200 f   MixedContentModel.obj
 0001:000683a0       ?validateContentSpecial@MixedContentModel@@UBEHQAPAVQName@@IIQAVGrammarResolver@@QAVXMLStringPool@@@Z 120693a0 f   MixedContentModel.obj
 0001:00068510       ?buildChildList@MixedContentModel@@AAEXQAVContentSpecNode@@AAV?$ValueVectorOf@PAVQName@@@@AAV?$ValueVectorOf@W4NodeTypes@ContentSpecNode@@@@@Z 12069510 f   MixedContentModel.obj
 0001:000686a0       ?validateContent@SimpleContentModel@@UBEHQAPAVQName@@II@Z 120696a0 f   SimpleContentModel.obj
 0001:00068ae0       ?validateContentSpecial@SimpleContentModel@@UBEHQAPAVQName@@IIQAVGrammarResolver@@QAVXMLStringPool@@@Z 12069ae0 f   SimpleContentModel.obj
 0001:00068e30       ?checkUniqueParticleAttribution@SimpleContentModel@@UAEXQAVSchemaGrammar@@QAVGrammarResolver@@QAVXMLStringPool@@QAVXMLValidator@@QAI@Z 12069e30 f   SimpleContentModel.obj
 0001:00068f10       ??0AbstractNumericFacetValidator@@QAE@ABV0@@Z 12069f10 f i AbstractNumericFacetValidator.obj
 0001:00068fa0       ??_EAbstractNumericFacetValidator@@UAEPAXI@Z 12069fa0 f i AbstractNumericFacetValidator.obj
 0001:00069000       ?getEnumeration@AbstractNumericFacetValidator@@IBEPAV?$RefVectorOf@VXMLNumber@@@@XZ 1206a000 f i AbstractNumericFacetValidator.obj
 0001:00069010       ??0InvalidDatatypeFacetException@@QAE@QBDIW4Codes@XMLExcepts@@@Z 1206a010 f i AbstractNumericFacetValidator.obj
 0001:00069070       ??0InvalidDatatypeFacetException@@QAE@ABV0@@Z 1206a070 f i AbstractNumericFacetValidator.obj
 0001:00069090       ??0InvalidDatatypeFacetException@@QAE@QBDIW4Codes@XMLExcepts@@QBG222@Z 1206a090 f i AbstractNumericFacetValidator.obj
 0001:00069100       ??0InvalidDatatypeFacetException@@QAE@QBDIW4Codes@XMLExcepts@@0000@Z 1206a100 f i AbstractNumericFacetValidator.obj
 0001:00069170       ??1InvalidDatatypeFacetException@@UAE@XZ 1206a170 f i AbstractNumericFacetValidator.obj
 0001:00069180       ??4TranscodingException@@QAEAAV0@ABV0@@Z 1206a180 f i AbstractNumericFacetValidator.obj
 0001:00069180       ??4XPathException@@QAEAAV0@ABV0@@Z 1206a180 f i AbstractNumericFacetValidator.obj
 0001:00069180       ??4NullPointerException@@QAEAAV0@ABV0@@Z 1206a180 f i AbstractNumericFacetValidator.obj
 0001:00069180       ??4InvalidDatatypeValueException@@QAEAAV0@ABV0@@Z 1206a180 f i AbstractNumericFacetValidator.obj
 0001:00069180       ??4NumberFormatException@@QAEAAV0@ABV0@@Z 1206a180 f i AbstractNumericFacetValidator.obj
 0001:00069180       ??4NoSuchElementException@@QAEAAV0@ABV0@@Z 1206a180 f i AbstractNumericFacetValidator.obj
 0001:00069180       ??4UTFDataFormatException@@QAEAAV0@ABV0@@Z 1206a180 f i AbstractNumericFacetValidator.obj
 0001:00069180       ??4EmptyStackException@@QAEAAV0@ABV0@@Z 1206a180 f i AbstractNumericFacetValidator.obj
 0001:00069180       ??4SchemaDateTimeException@@QAEAAV0@ABV0@@Z 1206a180 f i AbstractNumericFacetValidator.obj
 0001:00069180       ??4InvalidCastException@@QAEAAV0@ABV0@@Z 1206a180 f i AbstractNumericFacetValidator.obj
 0001:00069180       ??4UnsupportedEncodingException@@QAEAAV0@ABV0@@Z 1206a180 f i AbstractNumericFacetValidator.obj
 0001:00069180       ??4ParseException@@QAEAAV0@ABV0@@Z 1206a180 f i AbstractNumericFacetValidator.obj
 0001:00069180       ??4IOException@@QAEAAV0@ABV0@@Z 1206a180 f i AbstractNumericFacetValidator.obj
 0001:00069180       ??4InvalidDatatypeFacetException@@QAEAAV0@ABV0@@Z 1206a180 f i AbstractNumericFacetValidator.obj
 0001:00069180       ??4ArrayIndexOutOfBoundsException@@QAEAAV0@ABV0@@Z 1206a180 f i AbstractNumericFacetValidator.obj
 0001:00069180       ??4UnexpectedEOFException@@QAEAAV0@ABV0@@Z 1206a180 f i AbstractNumericFacetValidator.obj
 0001:00069180       ??4XMLPlatformUtilsException@@QAEAAV0@ABV0@@Z 1206a180 f i AbstractNumericFacetValidator.obj
 0001:00069180       ??4NetAccessorException@@QAEAAV0@ABV0@@Z 1206a180 f i AbstractNumericFacetValidator.obj
 0001:00069180       ??4IllegalArgumentException@@QAEAAV0@ABV0@@Z 1206a180 f i AbstractNumericFacetValidator.obj
 0001:00069180       ??4RuntimeException@@QAEAAV0@ABV0@@Z 1206a180 f i AbstractNumericFacetValidator.obj
 0001:00069180       ??4MalformedURLException@@QAEAAV0@ABV0@@Z 1206a180 f i AbstractNumericFacetValidator.obj
 0001:000691a0       ?duplicate@InvalidDatatypeFacetException@@UBEPAVXMLException@@XZ 1206a1a0 f i AbstractNumericFacetValidator.obj
 0001:00069200       ?getType@InvalidDatatypeFacetException@@UBEPBGXZ 1206a200 f i AbstractNumericFacetValidator.obj
 0001:00069210       ??_EInvalidDatatypeFacetException@@UAEPAXI@Z 1206a210 f i AbstractNumericFacetValidator.obj
 0001:00069270       ??1AbstractNumericFacetValidator@@UAE@XZ 1206a270 f   AbstractNumericFacetValidator.obj
 0001:000693a0       ??0AbstractNumericFacetValidator@@IAE@QAVDatatypeValidator@@QAV?$RefHashTableOf@VKVStringPair@@@@HW4ValidatorType@1@@Z 1206a3a0 f   AbstractNumericFacetValidator.obj
 0001:000693f0       ?init@AbstractNumericFacetValidator@@IAEXQAV?$RefVectorOf@G@@@Z 1206a3f0 f   AbstractNumericFacetValidator.obj
 0001:00069430       ?assignFacet@AbstractNumericFacetValidator@@AAEXXZ 1206a430 f   AbstractNumericFacetValidator.obj
 0001:000698e0       ?inspectFacet@AbstractNumericFacetValidator@@AAEXXZ 1206a8e0 f   AbstractNumericFacetValidator.obj
 0001:00069c60       ?inspectFacetBase@AbstractNumericFacetValidator@@AAEXXZ 1206ac60 f   AbstractNumericFacetValidator.obj
 0001:0006aaa0       ?inheritFacet@AbstractNumericFacetValidator@@AAEXXZ 1206baa0 f   AbstractNumericFacetValidator.obj
 0001:0006ab60       ?getEnumString@AbstractNumericFacetValidator@@UBEPBV?$RefVectorOf@G@@XZ 1206bb60 f   AbstractNumericFacetValidator.obj
 0001:0006ab80       ??1?$RefHashTableOfEnumerator@VKVStringPair@@@@QAE@XZ 1206bb80 f i AbstractNumericFacetValidator.obj
 0001:0006ac20       ?nextElement@?$RefHashTableOfEnumerator@VComplexTypeInfo@@@@UAEAAVComplexTypeInfo@@XZ 1206bc20 f i AbstractNumericFacetValidator.obj
 0001:0006ac20       ?nextElement@?$RefHashTableOfEnumerator@VValueStore@@@@UAEAAVValueStore@@XZ 1206bc20 f i AbstractNumericFacetValidator.obj
 0001:0006ac20       ?nextElement@?$RefHashTableOfEnumerator@VDTDAttDef@@@@UAEAAVDTDAttDef@@XZ 1206bc20 f i AbstractNumericFacetValidator.obj
 0001:0006ac20       ?nextElement@?$RefHashTableOfEnumerator@VKVStringPair@@@@UAEAAVKVStringPair@@XZ 1206bc20 f i AbstractNumericFacetValidator.obj
 0001:0006ac20       ?nextElement@?$RefHashTableOfEnumerator@VXMLRefInfo@@@@UAEAAVXMLRefInfo@@XZ 1206bc20 f i AbstractNumericFacetValidator.obj
 0001:0006ac20       ?nextElement@?$RefHashTableOfEnumerator@VGrammar@@@@UAEAAVGrammar@@XZ 1206bc20 f i AbstractNumericFacetValidator.obj
 0001:0006aca0       ?findNext@?$RefHashTableOfEnumerator@VGrammar@@@@AAEXXZ 1206bca0 f i AbstractNumericFacetValidator.obj
 0001:0006aca0       ?findNext@?$RefHashTableOfEnumerator@VXMLRefInfo@@@@AAEXXZ 1206bca0 f i AbstractNumericFacetValidator.obj
 0001:0006aca0       ?findNext@?$RefHashTableOfEnumerator@VKVStringPair@@@@AAEXXZ 1206bca0 f i AbstractNumericFacetValidator.obj
 0001:0006aca0       ?findNext@?$RefHash2KeysTableOfEnumerator@VSchemaAttDef@@@@AAEXXZ 1206bca0 f i AbstractNumericFacetValidator.obj
 0001:0006aca0       ?findNext@?$RefHashTableOfEnumerator@VDTDAttDef@@@@AAEXXZ 1206bca0 f i AbstractNumericFacetValidator.obj
 0001:0006aca0       ?findNext@?$RefHashTableOfEnumerator@VValueStore@@@@AAEXXZ 1206bca0 f i AbstractNumericFacetValidator.obj
 0001:0006aca0       ?findNext@?$RefHashTableOfEnumerator@VComplexTypeInfo@@@@AAEXXZ 1206bca0 f i AbstractNumericFacetValidator.obj
 0001:0006acf0       ??0AbstractNumericValidator@@QAE@ABV0@@Z 1206bcf0 f i AbstractNumericValidator.obj
 0001:0006ad80       ??_EAbstractNumericValidator@@UAEPAXI@Z 1206bd80 f i AbstractNumericValidator.obj
 0001:0006ade0       ?init@AbstractNumericValidator@@IAEXQAV?$RefVectorOf@G@@@Z 1206bde0 f i AbstractNumericValidator.obj
 0001:0006adf0       ??0InvalidDatatypeValueException@@QAE@QBDIW4Codes@XMLExcepts@@@Z 1206bdf0 f i AbstractNumericValidator.obj
 0001:0006ae50       ??0InvalidDatatypeValueException@@QAE@ABV0@@Z 1206be50 f i AbstractNumericValidator.obj
 0001:0006ae70       ??0InvalidDatatypeValueException@@QAE@QBDIW4Codes@XMLExcepts@@QBG222@Z 1206be70 f i AbstractNumericValidator.obj
 0001:0006aee0       ??0InvalidDatatypeValueException@@QAE@QBDIW4Codes@XMLExcepts@@0000@Z 1206bee0 f i AbstractNumericValidator.obj
 0001:0006af50       ??1InvalidDatatypeValueException@@UAE@XZ 1206bf50 f i AbstractNumericValidator.obj
 0001:0006af60       ?duplicate@InvalidDatatypeValueException@@UBEPAVXMLException@@XZ 1206bf60 f i AbstractNumericValidator.obj
 0001:0006afc0       ?getType@InvalidDatatypeValueException@@UBEPBGXZ 1206bfc0 f i AbstractNumericValidator.obj
 0001:0006afd0       ??_EInvalidDatatypeValueException@@UAEPAXI@Z 1206bfd0 f i AbstractNumericValidator.obj
 0001:0006b030       ??1AbstractNumericValidator@@UAE@XZ 1206c030 f   AbstractNumericValidator.obj
 0001:0006b040       ??0AbstractNumericValidator@@IAE@QAVDatatypeValidator@@QAV?$RefHashTableOf@VKVStringPair@@@@HW4ValidatorType@1@@Z 1206c040 f   AbstractNumericValidator.obj
 0001:0006b070       ?boundsCheck@AbstractNumericValidator@@IAEXQBVXMLNumber@@@Z 1206c070 f   AbstractNumericValidator.obj
 0001:0006b2f0       ??1AbstractStringValidator@@UAE@XZ 1206c2f0 f   AbstractStringValidator.obj
 0001:0006b390       ??0AbstractStringValidator@@IAE@QAVDatatypeValidator@@QAV?$RefHashTableOf@VKVStringPair@@@@HW4ValidatorType@1@@Z 1206c390 f   AbstractStringValidator.obj
 0001:0006b3e0       ?init@AbstractStringValidator@@IAEXQAV?$RefVectorOf@G@@@Z 1206c3e0 f   AbstractStringValidator.obj
 0001:0006b470       ?assignFacet@AbstractStringValidator@@AAEXXZ 1206c470 f   AbstractStringValidator.obj
 0001:0006b980       ?inspectFacet@AbstractStringValidator@@AAEXXZ 1206c980 f   AbstractStringValidator.obj
 0001:0006ba60       ?inspectFacetBase@AbstractStringValidator@@MAEXXZ 1206ca60 f   AbstractStringValidator.obj
 0001:0006bef0       ?inheritFacet@AbstractStringValidator@@MAEXXZ 1206cef0 f   AbstractStringValidator.obj
 0001:0006bfa0       ?compare@AbstractStringValidator@@UAEHQBG0@Z 1206cfa0 f   AbstractStringValidator.obj
 0001:0006bfc0       ?validate@AbstractStringValidator@@UAEXQBG@Z 1206cfc0 f   AbstractStringValidator.obj
 0001:0006bfd0       ?checkContent@AbstractStringValidator@@MAEXQBG_N@Z 1206cfd0 f   AbstractStringValidator.obj
 0001:0006c3a0       ??1?$RefVectorOf@G@@QAE@XZ 1206d3a0 f i AbstractStringValidator.obj
 0001:0006c3e0       ??0AnySimpleTypeDatatypeValidator@@QAE@ABV0@@Z 1206d3e0 f i AnySimpleTypeDatatypeValidator.obj
 0001:0006c420       ??_EAnySimpleTypeDatatypeValidator@@UAEPAXI@Z 1206d420 f i AnySimpleTypeDatatypeValidator.obj
 0001:0006c480       ?compare@AnySimpleTypeDatatypeValidator@@UAEHQBG0@Z 1206d480 f i AnySimpleTypeDatatypeValidator.obj
 0001:0006c490       ??0AnySimpleTypeDatatypeValidator@@QAE@XZ 1206d490 f   AnySimpleTypeDatatypeValidator.obj
 0001:0006c4b0       ??1AnySimpleTypeDatatypeValidator@@UAE@XZ 1206d4b0 f   AnySimpleTypeDatatypeValidator.obj
 0001:0006c4c0       ?newInstance@AnySimpleTypeDatatypeValidator@@UAEPAVDatatypeValidator@@QAV?$RefHashTableOf@VKVStringPair@@@@QAV?$RefVectorOf@G@@H@Z 1206d4c0 f   AnySimpleTypeDatatypeValidator.obj
 0001:0006c5b0       ??0AnyURIDatatypeValidator@@QAE@ABV0@@Z 1206d5b0 f i AnyURIDatatypeValidator.obj
 0001:0006c620       ??_EAnyURIDatatypeValidator@@UAEPAXI@Z 1206d620 f i AnyURIDatatypeValidator.obj
 0001:0006c680       ?cleanUp@AnyURIDatatypeValidator@@AAEXXZ 1206d680 f i AnyURIDatatypeValidator.obj
 0001:0006c6a0       ??0AnyURIDatatypeValidator@@QAE@XZ 1206d6a0 f   AnyURIDatatypeValidator.obj
 0001:0006c6d0       ??1AnyURIDatatypeValidator@@UAE@XZ 1206d6d0 f   AnyURIDatatypeValidator.obj
 0001:0006c730       ??0AnyURIDatatypeValidator@@QAE@QAVDatatypeValidator@@QAV?$RefHashTableOf@VKVStringPair@@@@QAV?$RefVectorOf@G@@H@Z 1206d730 f   AnyURIDatatypeValidator.obj
 0001:0006c7c0       ?newInstance@AnyURIDatatypeValidator@@UAEPAVDatatypeValidator@@QAV?$RefHashTableOf@VKVStringPair@@@@QAV?$RefVectorOf@G@@H@Z 1206d7c0 f   AnyURIDatatypeValidator.obj
 0001:0006c830       ?assignAdditionalFacet@AnyURIDatatypeValidator@@MAEXQBG0@Z 1206d830 f   AnyURIDatatypeValidator.obj
 0001:0006c870       ?checkValueSpace@AnyURIDatatypeValidator@@MAEXQBG@Z 1206d870 f   AnyURIDatatypeValidator.obj
 0001:0006c9a0       ??0Base64BinaryDatatypeValidator@@QAE@ABV0@@Z 1206d9a0 f i Base64BinaryDatatypeValidator.obj
 0001:0006ca10       ??_EBase64BinaryDatatypeValidator@@UAEPAXI@Z 1206da10 f i Base64BinaryDatatypeValidator.obj
 0001:0006ca70       ??0Base64BinaryDatatypeValidator@@QAE@XZ 1206da70 f   Base64BinaryDatatypeValidator.obj
 0001:0006ca90       ??1Base64BinaryDatatypeValidator@@UAE@XZ 1206da90 f   Base64BinaryDatatypeValidator.obj
 0001:0006caa0       ??0Base64BinaryDatatypeValidator@@QAE@QAVDatatypeValidator@@QAV?$RefHashTableOf@VKVStringPair@@@@QAV?$RefVectorOf@G@@H@Z 1206daa0 f   Base64BinaryDatatypeValidator.obj
 0001:0006cb10       ?newInstance@Base64BinaryDatatypeValidator@@UAEPAVDatatypeValidator@@QAV?$RefHashTableOf@VKVStringPair@@@@QAV?$RefVectorOf@G@@H@Z 1206db10 f   Base64BinaryDatatypeValidator.obj
 0001:0006cb90       ?assignAdditionalFacet@Base64BinaryDatatypeValidator@@MAEXQBG0@Z 1206db90 f   Base64BinaryDatatypeValidator.obj
 0001:0006cbd0       ?checkValueSpace@Base64BinaryDatatypeValidator@@MAEXQBG@Z 1206dbd0 f   Base64BinaryDatatypeValidator.obj
 0001:0006cc20       ?getLength@Base64BinaryDatatypeValidator@@MBEHQBG@Z 1206dc20 f   Base64BinaryDatatypeValidator.obj
 0001:0006cc30       ??0BooleanDatatypeValidator@@QAE@ABV0@@Z 1206dc30 f i BooleanDatatypeValidator.obj
 0001:0006cc70       ??_EBooleanDatatypeValidator@@UAEPAXI@Z 1206dc70 f i BooleanDatatypeValidator.obj
 0001:0006ccd0       ??0BooleanDatatypeValidator@@QAE@XZ 1206dcd0 f i BooleanDatatypeValidator.obj
 0001:0006ccf0       ??1BooleanDatatypeValidator@@UAE@XZ 1206dcf0 f i BooleanDatatypeValidator.obj
 0001:0006cd00       ?newInstance@BooleanDatatypeValidator@@UAEPAVDatatypeValidator@@QAV?$RefHashTableOf@VKVStringPair@@@@QAV?$RefVectorOf@G@@H@Z 1206dd00 f i BooleanDatatypeValidator.obj
 0001:0006cd70       ?validate@BooleanDatatypeValidator@@UAEXQBG@Z 1206dd70 f i BooleanDatatypeValidator.obj
 0001:0006cd80       ??0BooleanDatatypeValidator@@QAE@QAVDatatypeValidator@@QAV?$RefHashTableOf@VKVStringPair@@@@QAV?$RefVectorOf@G@@H@Z 1206dd80 f   BooleanDatatypeValidator.obj
 0001:0006cff0       ?checkContent@BooleanDatatypeValidator@@AAEXQBG_N@Z 1206dff0 f   BooleanDatatypeValidator.obj
 0001:0006d1a0       ?compare@BooleanDatatypeValidator@@UAEHQBG0@Z 1206e1a0 f   BooleanDatatypeValidator.obj
 0001:0006d250       ?removeAll@?$RefHashTableOf@VKVStringPair@@@@QAEXXZ 1206e250 f i BooleanDatatypeValidator.obj
 0001:0006d2c0       ??0DatatypeValidator@@IAE@QAV0@QAV?$RefHashTableOf@VKVStringPair@@@@HW4ValidatorType@0@@Z 1206e2c0 f   DatatypeValidator.obj
 0001:0006d300       ??1DatatypeValidator@@UAE@XZ 1206e300 f   DatatypeValidator.obj
 0001:0006d3d0       ?getWSstring@DatatypeValidator@@IBEPBGF@Z 1206e3d0 f   DatatypeValidator.obj
 0001:0006d400       ??0DecimalDatatypeValidator@@QAE@ABV0@@Z 1206e400 f i DatatypeValidatorFactory.obj
 0001:0006d4a0       ??4DecimalDatatypeValidator@@QAEAAV0@ABV0@@Z 1206e4a0 f i DatatypeValidatorFactory.obj
 0001:0006d530       ??_EDecimalDatatypeValidator@@UAEPAXI@Z 1206e530 f i DatatypeValidatorFactory.obj
 0001:0006d590       ?setFractionDigits@DecimalDatatypeValidator@@AAEXI@Z 1206e590 f i DatatypeValidatorFactory.obj
 0001:0006d5a0       ??0HexBinaryDatatypeValidator@@QAE@ABV0@@Z 1206e5a0 f i DatatypeValidatorFactory.obj
 0001:0006d610       ??_EHexBinaryDatatypeValidator@@UAEPAXI@Z 1206e610 f i DatatypeValidatorFactory.obj
 0001:0006d670       ??0IDREFDatatypeValidator@@QAE@ABV0@@Z 1206e670 f i DatatypeValidatorFactory.obj
 0001:0006d6f0       ??_EIDREFDatatypeValidator@@UAEPAXI@Z 1206e6f0 f i DatatypeValidatorFactory.obj
 0001:0006d750       ??0NOTATIONDatatypeValidator@@QAE@ABV0@@Z 1206e750 f i DatatypeValidatorFactory.obj
 0001:0006d7c0       ??_ENOTATIONDatatypeValidator@@UAEPAXI@Z 1206e7c0 f i DatatypeValidatorFactory.obj
 0001:0006d820       ??0ENTITYDatatypeValidator@@QAE@ABV0@@Z 1206e820 f i DatatypeValidatorFactory.obj
 0001:0006d8a0       ??_EENTITYDatatypeValidator@@UAEPAXI@Z 1206e8a0 f i DatatypeValidatorFactory.obj
 0001:0006d900       ??0QNameDatatypeValidator@@QAE@ABV0@@Z 1206e900 f i DatatypeValidatorFactory.obj
 0001:0006d970       ??_EQNameDatatypeValidator@@UAEPAXI@Z 1206e970 f i DatatypeValidatorFactory.obj
 0001:0006d9d0       ??0NameDatatypeValidator@@QAE@ABV0@@Z 1206e9d0 f i DatatypeValidatorFactory.obj
 0001:0006da50       ??_ENameDatatypeValidator@@UAEPAXI@Z 1206ea50 f i DatatypeValidatorFactory.obj
 0001:0006dab0       ??0NCNameDatatypeValidator@@QAE@ABV0@@Z 1206eab0 f i DatatypeValidatorFactory.obj
 0001:0006db30       ??4StringDatatypeValidator@@QAEAAV0@ABV0@@Z 1206eb30 f i DatatypeValidatorFactory.obj
 0001:0006db30       ??4NCNameDatatypeValidator@@QAEAAV0@ABV0@@Z 1206eb30 f i DatatypeValidatorFactory.obj
 0001:0006db30       ??4NameDatatypeValidator@@QAEAAV0@ABV0@@Z 1206eb30 f i DatatypeValidatorFactory.obj
 0001:0006db90       ??_ENCNameDatatypeValidator@@UAEPAXI@Z 1206eb90 f i DatatypeValidatorFactory.obj
 0001:0006dbf0       ??0ListDatatypeValidator@@QAE@ABV0@@Z 1206ebf0 f i DatatypeValidatorFactory.obj
 0001:0006dc60       ??4ListDatatypeValidator@@QAEAAV0@ABV0@@Z 1206ec60 f i DatatypeValidatorFactory.obj
 0001:0006dc60       ??4AnyURIDatatypeValidator@@QAEAAV0@ABV0@@Z 1206ec60 f i DatatypeValidatorFactory.obj
 0001:0006dcc0       ??_EListDatatypeValidator@@UAEPAXI@Z 1206ecc0 f i DatatypeValidatorFactory.obj
 0001:0006dd20       ?setContent@ListDatatypeValidator@@AAEXQBG@Z 1206ed20 f i DatatypeValidatorFactory.obj
 0001:0006dd30       ??0UnionDatatypeValidator@@QAE@ABV0@@Z 1206ed30 f i DatatypeValidatorFactory.obj
 0001:0006dd90       ??4UnionDatatypeValidator@@QAEAAV0@ABV0@@Z 1206ed90 f i DatatypeValidatorFactory.obj
 0001:0006dde0       ??_EUnionDatatypeValidator@@UAEPAXI@Z 1206ede0 f i DatatypeValidatorFactory.obj
 0001:0006de40       ?newInstance@UnionDatatypeValidator@@UAEPAVDatatypeValidator@@QAV?$RefHashTableOf@VKVStringPair@@@@QAV?$RefVectorOf@G@@H@Z 1206ee40 f i DatatypeValidatorFactory.obj
 0001:0006deb0       ?validate@UnionDatatypeValidator@@UAEXQBG@Z 1206eeb0 f i DatatypeValidatorFactory.obj
 0001:0006dec0       ?cleanUp@UnionDatatypeValidator@@AAEXXZ 1206eec0 f i DatatypeValidatorFactory.obj
 0001:0006df50       ?setEnumeration@UnionDatatypeValidator@@AAEXPAV?$RefVectorOf@G@@_N@Z 1206ef50 f i DatatypeValidatorFactory.obj
 0001:0006dfc0       ?getMemberTypeValidators@UnionDatatypeValidator@@QBEPAV?$RefVectorOf@VDatatypeValidator@@@@XZ 1206efc0 f i DatatypeValidatorFactory.obj
 0001:0006dfe0       ?isAtomic@UnionDatatypeValidator@@UBE_NXZ 1206efe0 f i DatatypeValidatorFactory.obj
 0001:0006e060       ?isSubstitutableBy@UnionDatatypeValidator@@UAE_NQBVDatatypeValidator@@@Z 1206f060 f i DatatypeValidatorFactory.obj
 0001:0006e0e0       ??0DoubleDatatypeValidator@@QAE@ABV0@@Z 1206f0e0 f i DatatypeValidatorFactory.obj
 0001:0006e170       ??4FloatDatatypeValidator@@QAEAAV0@ABV0@@Z 1206f170 f i DatatypeValidatorFactory.obj
 0001:0006e170       ??4DoubleDatatypeValidator@@QAEAAV0@ABV0@@Z 1206f170 f i DatatypeValidatorFactory.obj
 0001:0006e170       ??4DayDatatypeValidator@@QAEAAV0@ABV0@@Z 1206f170 f i DatatypeValidatorFactory.obj
 0001:0006e170       ??4YearMonthDatatypeValidator@@QAEAAV0@ABV0@@Z 1206f170 f i DatatypeValidatorFactory.obj
 0001:0006e170       ??4TimeDatatypeValidator@@QAEAAV0@ABV0@@Z 1206f170 f i DatatypeValidatorFactory.obj
 0001:0006e170       ??4MonthDatatypeValidator@@QAEAAV0@ABV0@@Z 1206f170 f i DatatypeValidatorFactory.obj
 0001:0006e170       ??4DateTimeValidator@@QAEAAV0@ABV0@@Z 1206f170 f i DatatypeValidatorFactory.obj
 0001:0006e170       ??4DateDatatypeValidator@@QAEAAV0@ABV0@@Z 1206f170 f i DatatypeValidatorFactory.obj
 0001:0006e170       ??4AbstractNumericFacetValidator@@QAEAAV0@ABV0@@Z 1206f170 f i DatatypeValidatorFactory.obj
 0001:0006e170       ??4DurationDatatypeValidator@@QAEAAV0@ABV0@@Z 1206f170 f i DatatypeValidatorFactory.obj
 0001:0006e170       ??4DateTimeDatatypeValidator@@QAEAAV0@ABV0@@Z 1206f170 f i DatatypeValidatorFactory.obj
 0001:0006e170       ??4AbstractNumericValidator@@QAEAAV0@ABV0@@Z 1206f170 f i DatatypeValidatorFactory.obj
 0001:0006e170       ??4MonthDayDatatypeValidator@@QAEAAV0@ABV0@@Z 1206f170 f i DatatypeValidatorFactory.obj
 0001:0006e170       ??4YearDatatypeValidator@@QAEAAV0@ABV0@@Z 1206f170 f i DatatypeValidatorFactory.obj
 0001:0006e1f0       ??_EDoubleDatatypeValidator@@UAEPAXI@Z 1206f1f0 f i DatatypeValidatorFactory.obj
 0001:0006e250       ??0FloatDatatypeValidator@@QAE@ABV0@@Z 1206f250 f i DatatypeValidatorFactory.obj
 0001:0006e2e0       ??_EFloatDatatypeValidator@@UAEPAXI@Z 1206f2e0 f i DatatypeValidatorFactory.obj
 0001:0006e340       ??0DateTimeValidator@@QAE@ABV0@@Z 1206f340 f i DatatypeValidatorFactory.obj
 0001:0006e3d0       ??_EDateTimeValidator@@UAEPAXI@Z 1206f3d0 f i DatatypeValidatorFactory.obj
 0001:0006e430       ??0DateTimeDatatypeValidator@@QAE@ABV0@@Z 1206f430 f i DatatypeValidatorFactory.obj
 0001:0006e4c0       ??_EDateTimeDatatypeValidator@@UAEPAXI@Z 1206f4c0 f i DatatypeValidatorFactory.obj
 0001:0006e520       ??0DateDatatypeValidator@@QAE@ABV0@@Z 1206f520 f i DatatypeValidatorFactory.obj
 0001:0006e5b0       ??_EDateDatatypeValidator@@UAEPAXI@Z 1206f5b0 f i DatatypeValidatorFactory.obj
 0001:0006e610       ??0TimeDatatypeValidator@@QAE@ABV0@@Z 1206f610 f i DatatypeValidatorFactory.obj
 0001:0006e6a0       ??_ETimeDatatypeValidator@@UAEPAXI@Z 1206f6a0 f i DatatypeValidatorFactory.obj
 0001:0006e700       ??0DayDatatypeValidator@@QAE@ABV0@@Z 1206f700 f i DatatypeValidatorFactory.obj
 0001:0006e790       ??_EDayDatatypeValidator@@UAEPAXI@Z 1206f790 f i DatatypeValidatorFactory.obj
 0001:0006e7f0       ??0MonthDatatypeValidator@@QAE@ABV0@@Z 1206f7f0 f i DatatypeValidatorFactory.obj
 0001:0006e880       ??_EMonthDatatypeValidator@@UAEPAXI@Z 1206f880 f i DatatypeValidatorFactory.obj
 0001:0006e8e0       ??0MonthDayDatatypeValidator@@QAE@ABV0@@Z 1206f8e0 f i DatatypeValidatorFactory.obj
 0001:0006e970       ??_EMonthDayDatatypeValidator@@UAEPAXI@Z 1206f970 f i DatatypeValidatorFactory.obj
 0001:0006e9d0       ??0YearDatatypeValidator@@QAE@ABV0@@Z 1206f9d0 f i DatatypeValidatorFactory.obj
 0001:0006ea60       ??_EYearDatatypeValidator@@UAEPAXI@Z 1206fa60 f i DatatypeValidatorFactory.obj
 0001:0006eac0       ??0YearMonthDatatypeValidator@@QAE@ABV0@@Z 1206fac0 f i DatatypeValidatorFactory.obj
 0001:0006eb50       ??_EYearMonthDatatypeValidator@@UAEPAXI@Z 1206fb50 f i DatatypeValidatorFactory.obj
 0001:0006ebb0       ??0DurationDatatypeValidator@@QAE@ABV0@@Z 1206fbb0 f i DatatypeValidatorFactory.obj
 0001:0006ec40       ??_EDurationDatatypeValidator@@UAEPAXI@Z 1206fc40 f i DatatypeValidatorFactory.obj
 0001:0006eca0       ??1DatatypeValidatorFactory@@QAE@XZ 1206fca0 f   DatatypeValidatorFactory.obj
 0001:0006ed20       ?resetRegistry@DatatypeValidatorFactory@@QAEXXZ 1206fd20 f   DatatypeValidatorFactory.obj
 0001:0006ed80       ?reinitRegistry@DatatypeValidatorFactory@@SAXXZ 1206fd80 f   DatatypeValidatorFactory.obj
 0001:0006ee10       ?expandRegistryToFullSchemaSet@DatatypeValidatorFactory@@QAEXXZ 1206fe10 f   DatatypeValidatorFactory.obj
 0001:00071010       ?createDatatypeValidator@DatatypeValidatorFactory@@QAEPAVDatatypeValidator@@QBGQAV2@QAV?$RefHashTableOf@VKVStringPair@@@@QAV?$RefVectorOf@G@@_NH4@Z 12072010 f   DatatypeValidatorFactory.obj
 0001:000712b0       ?createDatatypeValidator@DatatypeValidatorFactory@@QAEPAVDatatypeValidator@@QBGQAV?$RefVectorOf@VDatatypeValidator@@@@H_N@Z 120722b0 f   DatatypeValidatorFactory.obj
 0001:00071550       ??0?$RefHashTableOf@VKVStringPair@@@@QAE@I@Z 12072550 f i DatatypeValidatorFactory.obj
 0001:00071630       ??1?$RefHashTableOf@VKVStringPair@@@@QAE@XZ 12072630 f i DatatypeValidatorFactory.obj
 0001:000716c0       ?put@?$RefHashTableOf@VKVStringPair@@@@QAEXPAXQAVKVStringPair@@@Z 120726c0 f i DatatypeValidatorFactory.obj
 0001:000717d0       ??0?$RefHashTableOf@VDatatypeValidator@@@@QAE@I@Z 120727d0 f i DatatypeValidatorFactory.obj
 0001:000718b0       ?removeAll@?$RefHashTableOf@VXMLAttDef@@@@QAEXXZ 120728b0 f i DatatypeValidatorFactory.obj
 0001:000718b0       ?removeAll@?$RefHash2KeysTableOf@VSchemaAttDef@@@@QAEXXZ 120728b0 f i DatatypeValidatorFactory.obj
 0001:000718b0       ?removeAll@?$RefHashTableOf@VDatatypeValidator@@@@QAEXXZ 120728b0 f i DatatypeValidatorFactory.obj
 0001:00071910       ?put@?$RefHashTableOf@VDatatypeValidator@@@@QAEXPAXQAVDatatypeValidator@@@Z 12072910 f i DatatypeValidatorFactory.obj
 0001:00071a10       ??_GKVStringPair@@QAEPAXI@Z 12072a10 f i DatatypeValidatorFactory.obj
 0001:00071a30       ?removeBucketElem@?$RefHashTableOf@VKVStringPair@@@@AAEXQBXAAI@Z 12072a30 f i DatatypeValidatorFactory.obj
 0001:00071b10       ?initialize@?$RefHashTableOf@VENameMap@@@@AAEXI@Z 12072b10 f i DatatypeValidatorFactory.obj
 0001:00071b10       ?initialize@?$RefHashTableOf@VKVStringPair@@@@AAEXI@Z 12072b10 f i DatatypeValidatorFactory.obj
 0001:00071b10       ?initialize@?$RefHashTableOf@VXMLAttDef@@@@AAEXI@Z 12072b10 f i DatatypeValidatorFactory.obj
 0001:00071b10       ?initialize@?$RefHashTableOf@VDTDAttDef@@@@AAEXI@Z 12072b10 f i DatatypeValidatorFactory.obj
 0001:00071b10       ?initialize@?$RefHashTableOf@VComplexTypeInfo@@@@AAEXI@Z 12072b10 f i DatatypeValidatorFactory.obj
 0001:00071b10       ?initialize@?$RefHashTableOf@VCPMapEntry@@@@AAEXI@Z 12072b10 f i DatatypeValidatorFactory.obj
 0001:00071b10       ?initialize@?$RefHashTableOf@VXercesGroupInfo@@@@AAEXI@Z 12072b10 f i DatatypeValidatorFactory.obj
 0001:00071b10       ?initialize@?$RefHashTableOf@VXMLRefInfo@@@@AAEXI@Z 12072b10 f i DatatypeValidatorFactory.obj
 0001:00071b10       ?initialize@?$RefHashTableOf@VXercesAttGroupInfo@@@@AAEXI@Z 12072b10 f i DatatypeValidatorFactory.obj
 0001:00071b10       ?initialize@?$RefHashTableOf@VDatatypeValidator@@@@AAEXI@Z 12072b10 f i DatatypeValidatorFactory.obj
 0001:00071b80       ?findBucketElem@?$RefHashTableOf@VSchemaInfo@@@@ABEPBU?$RefHashTableBucketElem@VSchemaInfo@@@@QBXAAI@Z 12072b80 f i DatatypeValidatorFactory.obj
 0001:00071b80       ?findBucketElem@?$RefHashTableOf@VDatatypeValidator@@@@ABEPBU?$RefHashTableBucketElem@VDatatypeValidator@@@@QBXAAI@Z 12072b80 f i DatatypeValidatorFactory.obj
 0001:00071b80       ?findBucketElem@?$RefHashTableOf@VXercesGroupInfo@@@@ABEPBU?$RefHashTableBucketElem@VXercesGroupInfo@@@@QBXAAI@Z 12072b80 f i DatatypeValidatorFactory.obj
 0001:00071b80       ?findBucketElem@?$RefHashTableOf@VKVStringPair@@@@ABEPBU?$RefHashTableBucketElem@VKVStringPair@@@@QBXAAI@Z 12072b80 f i DatatypeValidatorFactory.obj
 0001:00071b80       ?findBucketElem@?$RefHashTableOf@VXMLAttDef@@@@ABEPBU?$RefHashTableBucketElem@VXMLAttDef@@@@QBXAAI@Z 12072b80 f i DatatypeValidatorFactory.obj
 0001:00071b80       ?findBucketElem@?$RefHashTableOf@VRangeTokenElemMap@@@@ABEPBU?$RefHashTableBucketElem@VRangeTokenElemMap@@@@QBXAAI@Z 12072b80 f i DatatypeValidatorFactory.obj
 0001:00071b80       ?findBucketElem@?$RefHashTableOf@V?$ValueVectorOf@PAVSchemaElementDecl@@@@@@ABEPBU?$RefHashTableBucketElem@V?$ValueVectorOf@PAVSchemaElementDecl@@@@@@QBXAAI@Z 12072b80 f i DatatypeValidatorFactory.obj
 0001:00071b80       ?findBucketElem@?$RefHashTableOf@VXercesAttGroupInfo@@@@ABEPBU?$RefHashTableBucketElem@VXercesAttGroupInfo@@@@QBXAAI@Z 12072b80 f i DatatypeValidatorFactory.obj
 0001:00071b80       ?findBucketElem@?$RefHashTableOf@VComplexTypeInfo@@@@ABEPBU?$RefHashTableBucketElem@VComplexTypeInfo@@@@QBXAAI@Z 12072b80 f i DatatypeValidatorFactory.obj
 0001:00071c00       ?findBucketElem@?$RefHashTableOf@VValueStore@@@@AAEPAU?$RefHashTableBucketElem@VValueStore@@@@QBXAAI@Z 12072c00 f i DatatypeValidatorFactory.obj
 0001:00071c00       ?findBucketElem@?$RefHashTableOf@VXMLAttDef@@@@AAEPAU?$RefHashTableBucketElem@VXMLAttDef@@@@QBXAAI@Z 12072c00 f i DatatypeValidatorFactory.obj
 0001:00071c00       ?findBucketElem@?$RefHashTableOf@V?$ValueVectorOf@PAVIDOM_Element@@@@@@AAEPAU?$RefHashTableBucketElem@V?$ValueVectorOf@PAVIDOM_Element@@@@@@QBXAAI@Z 12072c00 f i DatatypeValidatorFactory.obj
 0001:00071c00       ?findBucketElem@?$RefHashTableOf@VXercesAttGroupInfo@@@@AAEPAU?$RefHashTableBucketElem@VXercesAttGroupInfo@@@@QBXAAI@Z 12072c00 f i DatatypeValidatorFactory.obj
 0001:00071c00       ?findBucketElem@?$RefHashTableOf@VKVStringPair@@@@AAEPAU?$RefHashTableBucketElem@VKVStringPair@@@@QBXAAI@Z 12072c00 f i DatatypeValidatorFactory.obj
 0001:00071c00       ?findBucketElem@?$RefHashTableOf@VComplexTypeInfo@@@@AAEPAU?$RefHashTableBucketElem@VComplexTypeInfo@@@@QBXAAI@Z 12072c00 f i DatatypeValidatorFactory.obj
 0001:00071c00       ?findBucketElem@?$RefHashTableOf@VXMLRefInfo@@@@AAEPAU?$RefHashTableBucketElem@VXMLRefInfo@@@@QBXAAI@Z 12072c00 f i DatatypeValidatorFactory.obj
 0001:00071c00       ?findBucketElem@?$RefHashTableOf@VENameMap@@@@AAEPAU?$RefHashTableBucketElem@VENameMap@@@@QBXAAI@Z 12072c00 f i DatatypeValidatorFactory.obj
 0001:00071c00       ?findBucketElem@?$RefHashTableOf@V?$ValueVectorOf@I@@@@AAEPAU?$RefHashTableBucketElem@V?$ValueVectorOf@I@@@@QBXAAI@Z 12072c00 f i DatatypeValidatorFactory.obj
 0001:00071c00       ?findBucketElem@?$RefHashTableOf@VRangeTokenElemMap@@@@AAEPAU?$RefHashTableBucketElem@VRangeTokenElemMap@@@@QBXAAI@Z 12072c00 f i DatatypeValidatorFactory.obj
 0001:00071c00       ?findBucketElem@?$RefHashTableOf@V?$ValueVectorOf@PAVSchemaElementDecl@@@@@@AAEPAU?$RefHashTableBucketElem@V?$ValueVectorOf@PAVSchemaElementDecl@@@@@@QBXAAI@Z 12072c00 f i DatatypeValidatorFactory.obj
 0001:00071c00       ?findBucketElem@?$RefHashTableOf@VSchemaInfo@@@@AAEPAU?$RefHashTableBucketElem@VSchemaInfo@@@@QBXAAI@Z 12072c00 f i DatatypeValidatorFactory.obj
 0001:00071c00       ?findBucketElem@?$RefHashTableOf@VCPMapEntry@@@@AAEPAU?$RefHashTableBucketElem@VCPMapEntry@@@@QBXAAI@Z 12072c00 f i DatatypeValidatorFactory.obj
 0001:00071c00       ?findBucketElem@?$RefHashTableOf@VDatatypeValidator@@@@AAEPAU?$RefHashTableBucketElem@VDatatypeValidator@@@@QBXAAI@Z 12072c00 f i DatatypeValidatorFactory.obj
 0001:00071c00       ?findBucketElem@?$RefHashTableOf@VXercesGroupInfo@@@@AAEPAU?$RefHashTableBucketElem@VXercesGroupInfo@@@@QBXAAI@Z 12072c00 f i DatatypeValidatorFactory.obj
 0001:00071c80       ??0DateDatatypeValidator@@QAE@XZ 12072c80 f   DateDatatypeValidator.obj
 0001:00071ca0       ??0DateDatatypeValidator@@QAE@QAVDatatypeValidator@@QAV?$RefHashTableOf@VKVStringPair@@@@QAV?$RefVectorOf@G@@H@Z 12072ca0 f   DateDatatypeValidator.obj
 0001:00071d10       ??1DateDatatypeValidator@@UAE@XZ 12072d10 f   DateDatatypeValidator.obj
 0001:00071d20       ?newInstance@DateDatatypeValidator@@UAEPAVDatatypeValidator@@QAV?$RefHashTableOf@VKVStringPair@@@@QAV?$RefVectorOf@G@@H@Z 12072d20 f   DateDatatypeValidator.obj
 0001:00071da0       ?parse@DateDatatypeValidator@@MAEPAVXMLDateTime@@QBG@Z 12072da0 f   DateDatatypeValidator.obj
 0001:00071e30       ??0DateTimeDatatypeValidator@@QAE@XZ 12072e30 f   DateTimeDatatypeValidator.obj
 0001:00071e50       ??0DateTimeDatatypeValidator@@QAE@QAVDatatypeValidator@@QAV?$RefHashTableOf@VKVStringPair@@@@QAV?$RefVectorOf@G@@H@Z 12072e50 f   DateTimeDatatypeValidator.obj
 0001:00071ec0       ??1DateTimeDatatypeValidator@@UAE@XZ 12072ec0 f   DateTimeDatatypeValidator.obj
 0001:00071ed0       ?newInstance@DateTimeDatatypeValidator@@UAEPAVDatatypeValidator@@QAV?$RefHashTableOf@VKVStringPair@@@@QAV?$RefVectorOf@G@@H@Z 12072ed0 f   DateTimeDatatypeValidator.obj
 0001:00071f50       ?parse@DateTimeDatatypeValidator@@MAEPAVXMLDateTime@@QBG@Z 12072f50 f   DateTimeDatatypeValidator.obj
 0001:00071fe0       ??1DateTimeValidator@@UAE@XZ 12072fe0 f   DateTimeValidator.obj
 0001:00071ff0       ??0DateTimeValidator@@IAE@QAVDatatypeValidator@@QAV?$RefHashTableOf@VKVStringPair@@@@HW4ValidatorType@1@@Z 12072ff0 f   DateTimeValidator.obj
 0001:00072020       ?compare@DateTimeValidator@@UAEHQBG0@Z 12073020 f   DateTimeValidator.obj
 0001:000720e0       ?assignAdditionalFacet@DateTimeValidator@@MAEXQBG0@Z 120730e0 f   DateTimeValidator.obj
 0001:00072120       ?checkContent@DateTimeValidator@@MAEXQBG_N@Z 12073120 f   DateTimeValidator.obj
 0001:000725e0       ?compareValues@DateTimeValidator@@MAEHQBVXMLNumber@@0@Z 120735e0 f   DateTimeValidator.obj
 0001:00072600       ?compareDates@DateTimeValidator@@MAEHQBVXMLDateTime@@0_N@Z 12073600 f   DateTimeValidator.obj
 0001:00072620       ?setMaxInclusive@DateTimeValidator@@MAEXQBG@Z 12073620 f   DateTimeValidator.obj
 0001:00072640       ?setMaxExclusive@DateTimeValidator@@MAEXQBG@Z 12073640 f   DateTimeValidator.obj
 0001:00072660       ?setMinInclusive@DateTimeValidator@@MAEXQBG@Z 12073660 f   DateTimeValidator.obj
 0001:00072680       ?setMinExclusive@DateTimeValidator@@MAEXQBG@Z 12073680 f   DateTimeValidator.obj
 0001:000726a0       ?setEnumeration@DateTimeValidator@@MAEXXZ 120736a0 f   DateTimeValidator.obj
 0001:000728c0       ??0DayDatatypeValidator@@QAE@XZ 120738c0 f   DayDatatypeValidator.obj
 0001:000728e0       ??0DayDatatypeValidator@@QAE@QAVDatatypeValidator@@QAV?$RefHashTableOf@VKVStringPair@@@@QAV?$RefVectorOf@G@@H@Z 120738e0 f   DayDatatypeValidator.obj
 0001:00072950       ??1DayDatatypeValidator@@UAE@XZ 12073950 f   DayDatatypeValidator.obj
 0001:00072960       ?newInstance@DayDatatypeValidator@@UAEPAVDatatypeValidator@@QAV?$RefHashTableOf@VKVStringPair@@@@QAV?$RefVectorOf@G@@H@Z 12073960 f   DayDatatypeValidator.obj
 0001:000729e0       ?parse@DayDatatypeValidator@@MAEPAVXMLDateTime@@QBG@Z 120739e0 f   DayDatatypeValidator.obj
 0001:00072a70       ??0DecimalDatatypeValidator@@QAE@XZ 12073a70 f   DecimalDatatypeValidator.obj
 0001:00072aa0       ??0DecimalDatatypeValidator@@QAE@QAVDatatypeValidator@@QAV?$RefHashTableOf@VKVStringPair@@@@QAV?$RefVectorOf@G@@H@Z 12073aa0 f   DecimalDatatypeValidator.obj
 0001:00072b10       ??1DecimalDatatypeValidator@@UAE@XZ 12073b10 f   DecimalDatatypeValidator.obj
 0001:00072b20       ?compare@DecimalDatatypeValidator@@UAEHQBG0@Z 12073b20 f   DecimalDatatypeValidator.obj
 0001:00072bf0       ?newInstance@DecimalDatatypeValidator@@UAEPAVDatatypeValidator@@QAV?$RefHashTableOf@VKVStringPair@@@@QAV?$RefVectorOf@G@@H@Z 12073bf0 f   DecimalDatatypeValidator.obj
 0001:00072c90       ??0DecimalDatatypeValidator@@IAE@QAVDatatypeValidator@@QAV?$RefHashTableOf@VKVStringPair@@@@HW4ValidatorType@1@@Z 12073c90 f   DecimalDatatypeValidator.obj
 0001:00072cd0       ?assignAdditionalFacet@DecimalDatatypeValidator@@MAEXQBG0@Z 12073cd0 f   DecimalDatatypeValidator.obj
 0001:00072ef0       ?inheritAdditionalFacet@DecimalDatatypeValidator@@MAEXXZ 12073ef0 f   DecimalDatatypeValidator.obj
 0001:00072f40       ?checkAdditionalFacetConstraints@DecimalDatatypeValidator@@MBEXXZ 12073f40 f   DecimalDatatypeValidator.obj
 0001:00072fc0       ?checkAdditionalFacetConstraintsBase@DecimalDatatypeValidator@@MBEXXZ 12073fc0 f   DecimalDatatypeValidator.obj
 0001:00073210       ?compareValues@DecimalDatatypeValidator@@MAEHQBVXMLNumber@@0@Z 12074210 f   DecimalDatatypeValidator.obj
 0001:00073230       ?setMaxInclusive@DecimalDatatypeValidator@@MAEXQBG@Z 12074230 f   DecimalDatatypeValidator.obj
 0001:00073290       ?setMaxExclusive@DecimalDatatypeValidator@@MAEXQBG@Z 12074290 f   DecimalDatatypeValidator.obj
 0001:000732f0       ?setMinInclusive@DecimalDatatypeValidator@@MAEXQBG@Z 120742f0 f   DecimalDatatypeValidator.obj
 0001:00073350       ?setMinExclusive@DecimalDatatypeValidator@@MAEXQBG@Z 12074350 f   DecimalDatatypeValidator.obj
 0001:000733b0       ?setEnumeration@DecimalDatatypeValidator@@MAEXXZ 120743b0 f   DecimalDatatypeValidator.obj
 0001:000736e0       ?checkContent@DecimalDatatypeValidator@@MAEXQBG_N@Z 120746e0 f   DecimalDatatypeValidator.obj
 0001:00073b30       ??0DoubleDatatypeValidator@@QAE@XZ 12074b30 f   DoubleDatatypeValidator.obj
 0001:00073b50       ??0DoubleDatatypeValidator@@QAE@QAVDatatypeValidator@@QAV?$RefHashTableOf@VKVStringPair@@@@QAV?$RefVectorOf@G@@H@Z 12074b50 f   DoubleDatatypeValidator.obj
 0001:00073bc0       ??1DoubleDatatypeValidator@@UAE@XZ 12074bc0 f   DoubleDatatypeValidator.obj
 0001:00073bd0       ?compare@DoubleDatatypeValidator@@UAEHQBG0@Z 12074bd0 f   DoubleDatatypeValidator.obj
 0001:00073ca0       ?newInstance@DoubleDatatypeValidator@@UAEPAVDatatypeValidator@@QAV?$RefHashTableOf@VKVStringPair@@@@QAV?$RefVectorOf@G@@H@Z 12074ca0 f   DoubleDatatypeValidator.obj
 0001:00073d20       ??0DoubleDatatypeValidator@@IAE@QAVDatatypeValidator@@QAV?$RefHashTableOf@VKVStringPair@@@@HW4ValidatorType@1@@Z 12074d20 f   DoubleDatatypeValidator.obj
 0001:00073d50       ?assignAdditionalFacet@DoubleDatatypeValidator@@MAEXQBG0@Z 12074d50 f   DoubleDatatypeValidator.obj
 0001:00073d90       ?compareValues@DoubleDatatypeValidator@@MAEHQBVXMLNumber@@0@Z 12074d90 f   DoubleDatatypeValidator.obj
 0001:00073d90       ?compareValues@FloatDatatypeValidator@@MAEHQBVXMLNumber@@0@Z 12074d90 f   DoubleDatatypeValidator.obj
 0001:00073db0       ?setMaxInclusive@DoubleDatatypeValidator@@MAEXQBG@Z 12074db0 f   DoubleDatatypeValidator.obj
 0001:00073e10       ?setMaxExclusive@DoubleDatatypeValidator@@MAEXQBG@Z 12074e10 f   DoubleDatatypeValidator.obj
 0001:00073e70       ?setMinInclusive@DoubleDatatypeValidator@@MAEXQBG@Z 12074e70 f   DoubleDatatypeValidator.obj
 0001:00073ed0       ?setMinExclusive@DoubleDatatypeValidator@@MAEXQBG@Z 12074ed0 f   DoubleDatatypeValidator.obj
 0001:00073f30       ?setEnumeration@DoubleDatatypeValidator@@MAEXXZ 12074f30 f   DoubleDatatypeValidator.obj
 0001:00074260       ?checkContent@DoubleDatatypeValidator@@MAEXQBG_N@Z 12075260 f   DoubleDatatypeValidator.obj
 0001:000744f0       ??0DurationDatatypeValidator@@QAE@XZ 120754f0 f   DurationDatatypeValidator.obj
 0001:00074510       ??0DurationDatatypeValidator@@QAE@QAVDatatypeValidator@@QAV?$RefHashTableOf@VKVStringPair@@@@QAV?$RefVectorOf@G@@H@Z 12075510 f   DurationDatatypeValidator.obj
 0001:00074580       ??1DurationDatatypeValidator@@UAE@XZ 12075580 f   DurationDatatypeValidator.obj
 0001:00074590       ?newInstance@DurationDatatypeValidator@@UAEPAVDatatypeValidator@@QAV?$RefHashTableOf@VKVStringPair@@@@QAV?$RefVectorOf@G@@H@Z 12075590 f   DurationDatatypeValidator.obj
 0001:00074610       ?parse@DurationDatatypeValidator@@MAEPAVXMLDateTime@@QBG@Z 12075610 f   DurationDatatypeValidator.obj
 0001:000746a0       ?compareDates@DurationDatatypeValidator@@MAEHQBVXMLDateTime@@0_N@Z 120756a0 f   DurationDatatypeValidator.obj
 0001:000746c0       ??0ENTITYDatatypeValidator@@QAE@XZ 120756c0 f   ENTITYDatatypeValidator.obj
 0001:000746f0       ??0ENTITYDatatypeValidator@@QAE@QAVDatatypeValidator@@QAV?$RefHashTableOf@VKVStringPair@@@@QAV?$RefVectorOf@G@@H@Z 120756f0 f   ENTITYDatatypeValidator.obj
 0001:00074760       ??1ENTITYDatatypeValidator@@UAE@XZ 12075760 f   ENTITYDatatypeValidator.obj
 0001:00074770       ?newInstance@ENTITYDatatypeValidator@@UAEPAVDatatypeValidator@@QAV?$RefHashTableOf@VKVStringPair@@@@QAV?$RefVectorOf@G@@H@Z 12075770 f   ENTITYDatatypeValidator.obj
 0001:00074810       ?validate@ENTITYDatatypeValidator@@UAEXQBG@Z 12075810 f   ENTITYDatatypeValidator.obj
 0001:000748d0       ?checkValueSpace@ENTITYDatatypeValidator@@MAEXQBG@Z 120758d0 f   ENTITYDatatypeValidator.obj
 0001:00074920       ??0FloatDatatypeValidator@@QAE@XZ 12075920 f   FloatDatatypeValidator.obj
 0001:00074940       ??0FloatDatatypeValidator@@QAE@QAVDatatypeValidator@@QAV?$RefHashTableOf@VKVStringPair@@@@QAV?$RefVectorOf@G@@H@Z 12075940 f   FloatDatatypeValidator.obj
 0001:000749b0       ??1FloatDatatypeValidator@@UAE@XZ 120759b0 f   FloatDatatypeValidator.obj
 0001:000749c0       ?compare@FloatDatatypeValidator@@UAEHQBG0@Z 120759c0 f   FloatDatatypeValidator.obj
 0001:00074a90       ?newInstance@FloatDatatypeValidator@@UAEPAVDatatypeValidator@@QAV?$RefHashTableOf@VKVStringPair@@@@QAV?$RefVectorOf@G@@H@Z 12075a90 f   FloatDatatypeValidator.obj
 0001:00074b10       ??0FloatDatatypeValidator@@IAE@QAVDatatypeValidator@@QAV?$RefHashTableOf@VKVStringPair@@@@HW4ValidatorType@1@@Z 12075b10 f   FloatDatatypeValidator.obj
 0001:00074b40       ?assignAdditionalFacet@FloatDatatypeValidator@@MAEXQBG0@Z 12075b40 f   FloatDatatypeValidator.obj
 0001:00074b80       ?setMaxInclusive@FloatDatatypeValidator@@MAEXQBG@Z 12075b80 f   FloatDatatypeValidator.obj
 0001:00074be0       ?setMaxExclusive@FloatDatatypeValidator@@MAEXQBG@Z 12075be0 f   FloatDatatypeValidator.obj
 0001:00074c40       ?setMinInclusive@FloatDatatypeValidator@@MAEXQBG@Z 12075c40 f   FloatDatatypeValidator.obj
 0001:00074ca0       ?setMinExclusive@FloatDatatypeValidator@@MAEXQBG@Z 12075ca0 f   FloatDatatypeValidator.obj
 0001:00074d00       ?setEnumeration@FloatDatatypeValidator@@MAEXXZ 12075d00 f   FloatDatatypeValidator.obj
 0001:00075030       ?checkContent@FloatDatatypeValidator@@MAEXQBG_N@Z 12076030 f   FloatDatatypeValidator.obj
 0001:000752c0       ??0HexBinaryDatatypeValidator@@QAE@XZ 120762c0 f   HexBinaryDatatypeValidator.obj
 0001:000752e0       ??1HexBinaryDatatypeValidator@@UAE@XZ 120762e0 f   HexBinaryDatatypeValidator.obj
 0001:000752f0       ??0HexBinaryDatatypeValidator@@QAE@QAVDatatypeValidator@@QAV?$RefHashTableOf@VKVStringPair@@@@QAV?$RefVectorOf@G@@H@Z 120762f0 f   HexBinaryDatatypeValidator.obj
 0001:00075360       ?newInstance@HexBinaryDatatypeValidator@@UAEPAVDatatypeValidator@@QAV?$RefHashTableOf@VKVStringPair@@@@QAV?$RefVectorOf@G@@H@Z 12076360 f   HexBinaryDatatypeValidator.obj
 0001:000753e0       ?assignAdditionalFacet@HexBinaryDatatypeValidator@@MAEXQBG0@Z 120763e0 f   HexBinaryDatatypeValidator.obj
 0001:00075420       ?checkValueSpace@HexBinaryDatatypeValidator@@MAEXQBG@Z 12076420 f   HexBinaryDatatypeValidator.obj
 0001:00075470       ?getLength@HexBinaryDatatypeValidator@@MBEHQBG@Z 12076470 f   HexBinaryDatatypeValidator.obj
 0001:00075480       ??0IDDatatypeValidator@@QAE@XZ 12076480 f   IDDatatypeValidator.obj
 0001:000754b0       ??0IDDatatypeValidator@@QAE@QAVDatatypeValidator@@QAV?$RefHashTableOf@VKVStringPair@@@@QAV?$RefVectorOf@G@@H@Z 120764b0 f   IDDatatypeValidator.obj
 0001:00075520       ??1IDDatatypeValidator@@UAE@XZ 12076520 f   IDDatatypeValidator.obj
 0001:00075530       ?newInstance@IDDatatypeValidator@@UAEPAVDatatypeValidator@@QAV?$RefHashTableOf@VKVStringPair@@@@QAV?$RefVectorOf@G@@H@Z 12076530 f   IDDatatypeValidator.obj
 0001:000755d0       ??0IDDatatypeValidator@@IAE@QAVDatatypeValidator@@QAV?$RefHashTableOf@VKVStringPair@@@@HW4ValidatorType@1@@Z 120765d0 f   IDDatatypeValidator.obj
 0001:00075610       ?validate@IDDatatypeValidator@@UAEXQBG@Z 12076610 f   IDDatatypeValidator.obj
 0001:00075640       ?addId@IDDatatypeValidator@@AAEXQBG@Z 12076640 f   IDDatatypeValidator.obj
 0001:00075840       ?checkValueSpace@IDDatatypeValidator@@MAEXQBG@Z 12076840 f   IDDatatypeValidator.obj
 0001:00075890       ??0?$RefHashTableBucketElem@VDatatypeValidator@@@@QAE@PAXQAVDatatypeValidator@@PAU0@@Z 12076890 f i IDDatatypeValidator.obj
 0001:00075890       ??0?$RefHashTableBucketElem@G@@QAE@PAXQAGPAU0@@Z 12076890 f i IDDatatypeValidator.obj
 0001:00075890       ??0?$RefHashTableBucketElem@VValueStore@@@@QAE@PAXQAVValueStore@@PAU0@@Z 12076890 f i IDDatatypeValidator.obj
 0001:00075890       ??0?$RefHashTableBucketElem@VENameMap@@@@QAE@PAXQAVENameMap@@PAU0@@Z 12076890 f i IDDatatypeValidator.obj
 0001:00075890       ??0?$RefHashTableBucketElem@VSchemaInfo@@@@QAE@PAXQAVSchemaInfo@@PAU0@@Z 12076890 f i IDDatatypeValidator.obj
 0001:00075890       ??0?$RefHashTableBucketElem@VComplexTypeInfo@@@@QAE@PAXQAVComplexTypeInfo@@PAU0@@Z 12076890 f i IDDatatypeValidator.obj
 0001:00075890       ??0?$RefHashTableBucketElem@VKVStringPair@@@@QAE@PAXQAVKVStringPair@@PAU0@@Z 12076890 f i IDDatatypeValidator.obj
 0001:00075890       ??0?$RefHashTableBucketElem@VXMLRefInfo@@@@QAE@PAXQAVXMLRefInfo@@PAU0@@Z 12076890 f i IDDatatypeValidator.obj
 0001:00075890       ??0?$RefHashTableBucketElem@VXercesAttGroupInfo@@@@QAE@PAXQAVXercesAttGroupInfo@@PAU0@@Z 12076890 f i IDDatatypeValidator.obj
 0001:00075890       ??0?$RefHashTableBucketElem@VXercesGroupInfo@@@@QAE@PAXQAVXercesGroupInfo@@PAU0@@Z 12076890 f i IDDatatypeValidator.obj
 0001:000758b0       ??0IDREFDatatypeValidator@@QAE@XZ 120768b0 f   IDREFDatatypeValidator.obj
 0001:000758e0       ??0IDREFDatatypeValidator@@QAE@QAVDatatypeValidator@@QAV?$RefHashTableOf@VKVStringPair@@@@QAV?$RefVectorOf@G@@H@Z 120768e0 f   IDREFDatatypeValidator.obj
 0001:00075950       ??1IDREFDatatypeValidator@@UAE@XZ 12076950 f   IDREFDatatypeValidator.obj
 0001:00075960       ?newInstance@IDREFDatatypeValidator@@UAEPAVDatatypeValidator@@QAV?$RefHashTableOf@VKVStringPair@@@@QAV?$RefVectorOf@G@@H@Z 12076960 f   IDREFDatatypeValidator.obj
 0001:00075a00       ??0IDREFDatatypeValidator@@IAE@QAVDatatypeValidator@@QAV?$RefHashTableOf@VKVStringPair@@@@HW4ValidatorType@1@@Z 12076a00 f   IDREFDatatypeValidator.obj
 0001:00075a40       ?validate@IDREFDatatypeValidator@@UAEXQBG@Z 12076a40 f   IDREFDatatypeValidator.obj
 0001:00075a70       ?addIdRef@IDREFDatatypeValidator@@AAEXQBG@Z 12076a70 f   IDREFDatatypeValidator.obj
 0001:00075c50       ?checkValueSpace@IDREFDatatypeValidator@@MAEXQBG@Z 12076c50 f   IDREFDatatypeValidator.obj
 0001:00075ca0       ??_GXMLRefInfo@@QAEPAXI@Z  12076ca0 f i IDREFDatatypeValidator.obj
 0001:00075cd0       ??0ListDatatypeValidator@@QAE@XZ 12076cd0 f   ListDatatypeValidator.obj
 0001:00075d00       ??0ListDatatypeValidator@@QAE@QAVDatatypeValidator@@QAV?$RefHashTableOf@VKVStringPair@@@@QAV?$RefVectorOf@G@@H@Z 12076d00 f   ListDatatypeValidator.obj
 0001:00075dc0       ??1ListDatatypeValidator@@UAE@XZ 12076dc0 f   ListDatatypeValidator.obj
 0001:00075dd0       ?newInstance@ListDatatypeValidator@@UAEPAVDatatypeValidator@@QAV?$RefHashTableOf@VKVStringPair@@@@QAV?$RefVectorOf@G@@H@Z 12076dd0 f   ListDatatypeValidator.obj
 0001:00075eb0       ?compare@ListDatatypeValidator@@UAEHQBG0@Z 12076eb0 f   ListDatatypeValidator.obj
 0001:000760a0       ?validate@ListDatatypeValidator@@UAEXQBG@Z 120770a0 f   ListDatatypeValidator.obj
 0001:00076140       ?checkContent@ListDatatypeValidator@@MAEXQBG_N@Z 12077140 f   ListDatatypeValidator.obj
 0001:000761e0       ?checkContent@ListDatatypeValidator@@AAEXPAV?$RefVectorOf@G@@_N@Z 120771e0 f   ListDatatypeValidator.obj
 0001:00076700       ?valueSpaceCheck@ListDatatypeValidator@@ABE_NPAV?$RefVectorOf@G@@QBG@Z 12077700 f   ListDatatypeValidator.obj
 0001:00076900       ?getItemTypeDTV@ListDatatypeValidator@@QBEPAVDatatypeValidator@@XZ 12077900 f   ListDatatypeValidator.obj
 0001:00076920       ?assignAdditionalFacet@ListDatatypeValidator@@MAEXQBG0@Z 12077920 f   ListDatatypeValidator.obj
 0001:00076960       ?getLength@ListDatatypeValidator@@MBEHQBG@Z 12077960 f   ListDatatypeValidator.obj
 0001:000769c0       ?inspectFacetBase@ListDatatypeValidator@@MAEXXZ 120779c0 f   ListDatatypeValidator.obj
 0001:00076c40       ?inheritFacet@ListDatatypeValidator@@MAEXXZ 12077c40 f   ListDatatypeValidator.obj
 0001:00076c50       ??1?$Janitor@V?$RefVectorOf@G@@@@QAE@XZ 12077c50 f i ListDatatypeValidator.obj
 0001:00076cb0       ??0MonthDatatypeValidator@@QAE@XZ 12077cb0 f   MonthDatatypeValidator.obj
 0001:00076cd0       ??0MonthDatatypeValidator@@QAE@QAVDatatypeValidator@@QAV?$RefHashTableOf@VKVStringPair@@@@QAV?$RefVectorOf@G@@H@Z 12077cd0 f   MonthDatatypeValidator.obj
 0001:00076d40       ??1MonthDatatypeValidator@@UAE@XZ 12077d40 f   MonthDatatypeValidator.obj
 0001:00076d50       ?newInstance@MonthDatatypeValidator@@UAEPAVDatatypeValidator@@QAV?$RefHashTableOf@VKVStringPair@@@@QAV?$RefVectorOf@G@@H@Z 12077d50 f   MonthDatatypeValidator.obj
 0001:00076dd0       ?parse@MonthDatatypeValidator@@MAEPAVXMLDateTime@@QBG@Z 12077dd0 f   MonthDatatypeValidator.obj
 0001:00076e60       ??0MonthDayDatatypeValidator@@QAE@XZ 12077e60 f   MonthDayDatatypeValidator.obj
 0001:00076e80       ??0MonthDayDatatypeValidator@@QAE@QAVDatatypeValidator@@QAV?$RefHashTableOf@VKVStringPair@@@@QAV?$RefVectorOf@G@@H@Z 12077e80 f   MonthDayDatatypeValidator.obj
 0001:00076ef0       ??1MonthDayDatatypeValidator@@UAE@XZ 12077ef0 f   MonthDayDatatypeValidator.obj
 0001:00076f00       ?newInstance@MonthDayDatatypeValidator@@UAEPAVDatatypeValidator@@QAV?$RefHashTableOf@VKVStringPair@@@@QAV?$RefVectorOf@G@@H@Z 12077f00 f   MonthDayDatatypeValidator.obj
 0001:00076f80       ?parse@MonthDayDatatypeValidator@@MAEPAVXMLDateTime@@QBG@Z 12077f80 f   MonthDayDatatypeValidator.obj
 0001:00077010       ??0NameDatatypeValidator@@QAE@XZ 12078010 f   NameDatatypeValidator.obj
 0001:00077030       ??1NameDatatypeValidator@@UAE@XZ 12078030 f   NameDatatypeValidator.obj
 0001:00077040       ??0NameDatatypeValidator@@QAE@QAVDatatypeValidator@@QAV?$RefHashTableOf@VKVStringPair@@@@QAV?$RefVectorOf@G@@H@Z 12078040 f   NameDatatypeValidator.obj
 0001:000770b0       ?newInstance@NameDatatypeValidator@@UAEPAVDatatypeValidator@@QAV?$RefHashTableOf@VKVStringPair@@@@QAV?$RefVectorOf@G@@H@Z 120780b0 f   NameDatatypeValidator.obj
 0001:00077130       ??0NameDatatypeValidator@@IAE@QAVDatatypeValidator@@QAV?$RefHashTableOf@VKVStringPair@@@@HW4ValidatorType@1@@Z 12078130 f   NameDatatypeValidator.obj
 0001:00077160       ?validate@NameDatatypeValidator@@UAEXQBG@Z 12078160 f   NameDatatypeValidator.obj
 0001:00077160       ?validate@NCNameDatatypeValidator@@UAEXQBG@Z 12078160 f   NameDatatypeValidator.obj
 0001:00077170       ?checkValueSpace@NameDatatypeValidator@@MAEXQBG@Z 12078170 f   NameDatatypeValidator.obj
 0001:000771c0       ??0NCNameDatatypeValidator@@QAE@XZ 120781c0 f   NCNameDatatypeValidator.obj
 0001:000771e0       ??1NCNameDatatypeValidator@@UAE@XZ 120781e0 f   NCNameDatatypeValidator.obj
 0001:000771f0       ??0NCNameDatatypeValidator@@QAE@QAVDatatypeValidator@@QAV?$RefHashTableOf@VKVStringPair@@@@QAV?$RefVectorOf@G@@H@Z 120781f0 f   NCNameDatatypeValidator.obj
 0001:00077260       ?newInstance@NCNameDatatypeValidator@@UAEPAVDatatypeValidator@@QAV?$RefHashTableOf@VKVStringPair@@@@QAV?$RefVectorOf@G@@H@Z 12078260 f   NCNameDatatypeValidator.obj
 0001:000772e0       ??0NCNameDatatypeValidator@@IAE@QAVDatatypeValidator@@QAV?$RefHashTableOf@VKVStringPair@@@@HW4ValidatorType@1@@Z 120782e0 f   NCNameDatatypeValidator.obj
 0001:00077310       ?compare@ENTITYDatatypeValidator@@UAEHQBG0@Z 12078310 f   NCNameDatatypeValidator.obj
 0001:00077310       ?compare@NameDatatypeValidator@@UAEHQBG0@Z 12078310 f   NCNameDatatypeValidator.obj
 0001:00077310       ?compare@NCNameDatatypeValidator@@UAEHQBG0@Z 12078310 f   NCNameDatatypeValidator.obj
 0001:00077330       ?checkValueSpace@NCNameDatatypeValidator@@MAEXQBG@Z 12078330 f   NCNameDatatypeValidator.obj
 0001:00077380       ??0NOTATIONDatatypeValidator@@QAE@XZ 12078380 f   NOTATIONDatatypeValidator.obj
 0001:000773a0       ??1NOTATIONDatatypeValidator@@UAE@XZ 120783a0 f   NOTATIONDatatypeValidator.obj
 0001:000773b0       ??0NOTATIONDatatypeValidator@@QAE@QAVDatatypeValidator@@QAV?$RefHashTableOf@VKVStringPair@@@@QAV?$RefVectorOf@G@@H@Z 120783b0 f   NOTATIONDatatypeValidator.obj
 0001:00077420       ?newInstance@NOTATIONDatatypeValidator@@UAEPAVDatatypeValidator@@QAV?$RefHashTableOf@VKVStringPair@@@@QAV?$RefVectorOf@G@@H@Z 12078420 f   NOTATIONDatatypeValidator.obj
 0001:000774a0       ?assignAdditionalFacet@NOTATIONDatatypeValidator@@MAEXQBG0@Z 120784a0 f   NOTATIONDatatypeValidator.obj
 0001:000774e0       ?checkValueSpace@NOTATIONDatatypeValidator@@MAEXQBG@Z 120784e0 f   NOTATIONDatatypeValidator.obj
 0001:000776f0       ?getLength@QNameDatatypeValidator@@MBEHQBG@Z 120786f0 f   NOTATIONDatatypeValidator.obj
 0001:000776f0       ?getLength@AnyURIDatatypeValidator@@MBEHQBG@Z 120786f0 f   NOTATIONDatatypeValidator.obj
 0001:000776f0       ?getLength@NOTATIONDatatypeValidator@@MBEHQBG@Z 120786f0 f   NOTATIONDatatypeValidator.obj
 0001:000776f0       ?getLength@StringDatatypeValidator@@MBEHQBG@Z 120786f0 f   NOTATIONDatatypeValidator.obj
 0001:00077720       ??0QNameDatatypeValidator@@QAE@XZ 12078720 f   QNameDatatypeValidator.obj
 0001:00077740       ??1QNameDatatypeValidator@@UAE@XZ 12078740 f   QNameDatatypeValidator.obj
 0001:00077750       ??0QNameDatatypeValidator@@QAE@QAVDatatypeValidator@@QAV?$RefHashTableOf@VKVStringPair@@@@QAV?$RefVectorOf@G@@H@Z 12078750 f   QNameDatatypeValidator.obj
 0001:000777c0       ?newInstance@QNameDatatypeValidator@@UAEPAVDatatypeValidator@@QAV?$RefHashTableOf@VKVStringPair@@@@QAV?$RefVectorOf@G@@H@Z 120787c0 f   QNameDatatypeValidator.obj
 0001:00077840       ?assignAdditionalFacet@QNameDatatypeValidator@@MAEXQBG0@Z 12078840 f   QNameDatatypeValidator.obj
 0001:00077880       ?checkAdditionalFacetConstraintsBase@DoubleDatatypeValidator@@MBEXXZ 12078880 f   QNameDatatypeValidator.obj
 0001:00077880       ?inheritAdditionalFacet@DateTimeValidator@@MAEXXZ 12078880 f   QNameDatatypeValidator.obj
 0001:00077880       ?checkAdditionalFacetConstraints@AnyURIDatatypeValidator@@MBEXXZ 12078880 f   QNameDatatypeValidator.obj
 0001:00077880       ?normalize@NodeImpl@@UAEXXZ 12078880 f   QNameDatatypeValidator.obj
 0001:00077880       ?startExtSubset@IDOMParser@@UAEXXZ 12078880 f   QNameDatatypeValidator.obj
 0001:00077880       ?resetErrors@IDOMParser@@UAEXXZ 12078880 f   QNameDatatypeValidator.obj
 0001:00077880       ?checkAdditionalFacetConstraints@Base64BinaryDatatypeValidator@@MBEXXZ 12078880 f   QNameDatatypeValidator.obj
 0001:00077880       ?checkAdditionalFacetConstraints@DoubleDatatypeValidator@@MBEXXZ 12078880 f   QNameDatatypeValidator.obj
 0001:00077880       ?checkAdditionalFacetConstraintsBase@DateTimeValidator@@MBEXXZ 12078880 f   QNameDatatypeValidator.obj
 0001:00077880       ?checkAdditionalFacetConstraintsBase@FloatDatatypeValidator@@MBEXXZ 12078880 f   QNameDatatypeValidator.obj
 0001:00077880       ?inheritAdditionalFacet@AnyURIDatatypeValidator@@MAEXXZ 12078880 f   QNameDatatypeValidator.obj
 0001:00077880       ?checkAdditionalFacetConstraints@NOTATIONDatatypeValidator@@MBEXXZ 12078880 f   QNameDatatypeValidator.obj
 0001:00077880       ?resetErrors@DOMParser@@UAEXXZ 12078880 f   QNameDatatypeValidator.obj
 0001:00077880       ?endExtSubset@IDOMParser@@UAEXXZ 12078880 f   QNameDatatypeValidator.obj
 0001:00077880       ?checkAdditionalFacetConstraints@FloatDatatypeValidator@@MBEXXZ 12078880 f   QNameDatatypeValidator.obj
 0001:00077880       ?checkAdditionalFacetConstraints@ListDatatypeValidator@@MBEXXZ 12078880 f   QNameDatatypeValidator.obj
 0001:00077880       ??1IDNodeImpl@@QAE@XZ      12078880 f   QNameDatatypeValidator.obj
 0001:00077880       ?postParseValidation@DTDValidator@@UAEXXZ 12078880 f   QNameDatatypeValidator.obj
 0001:00077880       ??1IDCharacterDataImpl@@QAE@XZ 12078880 f   QNameDatatypeValidator.obj
 0001:00077880       ?checkAdditionalFacetConstraints@QNameDatatypeValidator@@MBEXXZ 12078880 f   QNameDatatypeValidator.obj
 0001:00077880       ?inheritAdditionalFacet@Base64BinaryDatatypeValidator@@MAEXXZ 12078880 f   QNameDatatypeValidator.obj
 0001:00077880       ??1DOM_DOMImplementation@@QAE@XZ 12078880 f   QNameDatatypeValidator.obj
 0001:00077880       ?endIntSubset@SAXParser@@UAEXXZ 12078880 f   QNameDatatypeValidator.obj
 0001:00077880       ?inheritAdditionalFacet@QNameDatatypeValidator@@MAEXXZ 12078880 f   QNameDatatypeValidator.obj
 0001:00077880       ?startIntSubset@SAX2XMLReaderImpl@@UAEXXZ 12078880 f   QNameDatatypeValidator.obj
 0001:00077880       ?checkAdditionalFacetConstraints@HexBinaryDatatypeValidator@@MBEXXZ 12078880 f   QNameDatatypeValidator.obj
 0001:00077880       ?referenced@RefCountedImpl@@UAEXXZ 12078880 f   QNameDatatypeValidator.obj
 0001:00077880       ?startExtSubset@DOMParser@@UAEXXZ 12078880 f   QNameDatatypeValidator.obj
 0001:00077880       ?startIntSubset@SAXParser@@UAEXXZ 12078880 f   QNameDatatypeValidator.obj
 0001:00077880       ?checkAdditionalFacetConstraints@DateTimeValidator@@MBEXXZ 12078880 f   QNameDatatypeValidator.obj
 0001:00077880       ?postParseValidation@SchemaValidator@@UAEXXZ 12078880 f   QNameDatatypeValidator.obj
 0001:00077880       ?reset@DTDValidator@@UAEXXZ 12078880 f   QNameDatatypeValidator.obj
 0001:00077880       ?inheritAdditionalFacet@ListDatatypeValidator@@MAEXXZ 12078880 f   QNameDatatypeValidator.obj
 0001:00077880       ?normalize@IDNodeImpl@@QAEXXZ 12078880 f   QNameDatatypeValidator.obj
 0001:00077880       ?lowerCase@XMLString@@SAXQAG@Z 12078880 f   QNameDatatypeValidator.obj
 0001:00077880       ?startExtSubset@SAXParser@@UAEXXZ 12078880 f   QNameDatatypeValidator.obj
 0001:00077880       ?endExtSubset@DOMParser@@UAEXXZ 12078880 f   QNameDatatypeValidator.obj
 0001:00077880       ?endExtSubset@SAXParser@@UAEXXZ 12078880 f   QNameDatatypeValidator.obj
 0001:00077880       ?unreferenced@RefCountedImpl@@UAEXXZ 12078880 f   QNameDatatypeValidator.obj
 0001:00077880       ?inheritAdditionalFacet@HexBinaryDatatypeValidator@@MAEXXZ 12078880 f   QNameDatatypeValidator.obj
 0001:00077880       ?resetEntities@SAX2XMLReaderImpl@@UAEXXZ 12078880 f   QNameDatatypeValidator.obj
 0001:00077880       ?inheritAdditionalFacet@FloatDatatypeValidator@@MAEXXZ 12078880 f   QNameDatatypeValidator.obj
 0001:00077880       ?resetEntities@SAXParser@@UAEXXZ 12078880 f   QNameDatatypeValidator.obj
 0001:00077880       ?referenced@DocumentImpl@@UAEXXZ 12078880 f   QNameDatatypeValidator.obj
 0001:00077880       ??1FieldActivator@@QAE@XZ  12078880 f   QNameDatatypeValidator.obj
 0001:00077880       ?platformTerm@XMLPlatformUtils@@CAXXZ 12078880 f   QNameDatatypeValidator.obj
 0001:00077880       ??1RangeTokenElemMap@@QAE@XZ 12078880 f   QNameDatatypeValidator.obj
 0001:00077880       ?inheritAdditionalFacet@NOTATIONDatatypeValidator@@MAEXXZ 12078880 f   QNameDatatypeValidator.obj
 0001:00077880       ??1DomMemDebug@@QAE@XZ     12078880 f   QNameDatatypeValidator.obj
 0001:00077880       ??1IDChildNode@@QAE@XZ     12078880 f   QNameDatatypeValidator.obj
 0001:00077880       ?inheritAdditionalFacet@DoubleDatatypeValidator@@MAEXXZ 12078880 f   QNameDatatypeValidator.obj
 0001:00077890       ?startAttList@SAXParser@@UAEXABVDTDElementDecl@@@Z 12078890 f   QNameDatatypeValidator.obj
 0001:00077890       ?endInputSource@SAXParser@@UAEXABVInputSource@@@Z 12078890 f   QNameDatatypeValidator.obj
 0001:00077890       ?checkAdditionalFacet@ListDatatypeValidator@@MBEXQBG@Z 12078890 f   QNameDatatypeValidator.obj
 0001:00077890       ?doctypeComment@SAXParser@@UAEXQBG@Z 12078890 f   QNameDatatypeValidator.obj
 0001:00077890       ?startAttList@IDOMParser@@UAEXABVDTDElementDecl@@@Z 12078890 f   QNameDatatypeValidator.obj
 0001:00077890       ?checkValueSpace@ListDatatypeValidator@@MAEXQBG@Z 12078890 f   QNameDatatypeValidator.obj
 0001:00077890       ?checkBlockSize@XMLTranscoder@@IAEXI@Z 12078890 f   QNameDatatypeValidator.obj
 0001:00077890       ?startInputSource@SAX2XMLReaderImpl@@UAEXABVInputSource@@@Z 12078890 f   QNameDatatypeValidator.obj
 0001:00077890       ?checkAdditionalFacet@QNameDatatypeValidator@@MBEXQBG@Z 12078890 f   QNameDatatypeValidator.obj
 0001:00077890       ?startInputSource@SAXParser@@UAEXABVInputSource@@@Z 12078890 f   QNameDatatypeValidator.obj
 0001:00077890       ?checkAdditionalFacet@AnyURIDatatypeValidator@@MBEXQBG@Z 12078890 f   QNameDatatypeValidator.obj
 0001:00077890       ?startAttList@DOMParser@@UAEXABVDTDElementDecl@@@Z 12078890 f   QNameDatatypeValidator.obj
 0001:00077890       ?endAttList@SAX2XMLReaderImpl@@UAEXABVDTDElementDecl@@@Z 12078890 f   QNameDatatypeValidator.obj
 0001:00077890       ?endInputSource@SAX2XMLReaderImpl@@UAEXABVInputSource@@@Z 12078890 f   QNameDatatypeValidator.obj
 0001:00077890       ?checkAdditionalFacet@HexBinaryDatatypeValidator@@MBEXQBG@Z 12078890 f   QNameDatatypeValidator.obj
 0001:00077890       ?endAttList@SAXParser@@UAEXABVDTDElementDecl@@@Z 12078890 f   QNameDatatypeValidator.obj
 0001:00077890       ?startAttList@SAX2XMLReaderImpl@@UAEXABVDTDElementDecl@@@Z 12078890 f   QNameDatatypeValidator.obj
 0001:00077890       ?checkAdditionalFacet@NOTATIONDatatypeValidator@@MBEXQBG@Z 12078890 f   QNameDatatypeValidator.obj
 0001:00077890       ?checkValueSpace@StringDatatypeValidator@@MAEXQBG@Z 12078890 f   QNameDatatypeValidator.obj
 0001:00077890       ?checkAdditionalFacet@Base64BinaryDatatypeValidator@@MBEXQBG@Z 12078890 f   QNameDatatypeValidator.obj
 0001:000778a0       ?checkValueSpace@QNameDatatypeValidator@@MAEXQBG@Z 120788a0 f   QNameDatatypeValidator.obj
 0001:000778f0       ??0StringDatatypeValidator@@QAE@XZ 120788f0 f   StringDatatypeValidator.obj
 0001:00077910       ??0StringDatatypeValidator@@QAE@QAVDatatypeValidator@@QAV?$RefHashTableOf@VKVStringPair@@@@QAV?$RefVectorOf@G@@H@Z 12078910 f   StringDatatypeValidator.obj
 0001:00077980       ??1StringDatatypeValidator@@UAE@XZ 12078980 f   StringDatatypeValidator.obj
 0001:00077990       ?newInstance@StringDatatypeValidator@@UAEPAVDatatypeValidator@@QAV?$RefHashTableOf@VKVStringPair@@@@QAV?$RefVectorOf@G@@H@Z 12078990 f   StringDatatypeValidator.obj
 0001:00077a30       ??0StringDatatypeValidator@@IAE@QAVDatatypeValidator@@QAV?$RefHashTableOf@VKVStringPair@@@@HW4ValidatorType@1@@Z 12078a30 f   StringDatatypeValidator.obj
 0001:00077a60       ?getWSFacet@StringDatatypeValidator@@UBEFXZ 12078a60 f   StringDatatypeValidator.obj
 0001:00077a70       ?assignAdditionalFacet@StringDatatypeValidator@@MAEXQBG0@Z 12078a70 f   StringDatatypeValidator.obj
 0001:00077b70       ?inheritAdditionalFacet@StringDatatypeValidator@@MAEXXZ 12078b70 f   StringDatatypeValidator.obj
 0001:00077ba0       ?checkAdditionalFacetConstraints@StringDatatypeValidator@@MBEXXZ 12078ba0 f   StringDatatypeValidator.obj
 0001:00077ca0       ?checkAdditionalFacet@StringDatatypeValidator@@MBEXQBG@Z 12078ca0 f   StringDatatypeValidator.obj
 0001:00077d50       ??0TimeDatatypeValidator@@QAE@XZ 12078d50 f   TimeDatatypeValidator.obj
 0001:00077d70       ??0TimeDatatypeValidator@@QAE@QAVDatatypeValidator@@QAV?$RefHashTableOf@VKVStringPair@@@@QAV?$RefVectorOf@G@@H@Z 12078d70 f   TimeDatatypeValidator.obj
 0001:00077de0       ??1TimeDatatypeValidator@@UAE@XZ 12078de0 f   TimeDatatypeValidator.obj
 0001:00077df0       ?newInstance@TimeDatatypeValidator@@UAEPAVDatatypeValidator@@QAV?$RefHashTableOf@VKVStringPair@@@@QAV?$RefVectorOf@G@@H@Z 12078df0 f   TimeDatatypeValidator.obj
 0001:00077e70       ?parse@TimeDatatypeValidator@@MAEPAVXMLDateTime@@QBG@Z 12078e70 f   TimeDatatypeValidator.obj
 0001:00077f00       ??0UnionDatatypeValidator@@QAE@XZ 12078f00 f   UnionDatatypeValidator.obj
 0001:00077f30       ??1UnionDatatypeValidator@@UAE@XZ 12078f30 f   UnionDatatypeValidator.obj
 0001:00078010       ??0UnionDatatypeValidator@@QAE@QAV?$RefVectorOf@VDatatypeValidator@@@@H@Z 12079010 f   UnionDatatypeValidator.obj
 0001:000780c0       ??0UnionDatatypeValidator@@QAE@QAVDatatypeValidator@@QAV?$RefHashTableOf@VKVStringPair@@@@QAV?$RefVectorOf@G@@H@Z 120790c0 f   UnionDatatypeValidator.obj
 0001:00078270       ?init@UnionDatatypeValidator@@AAEXQAVDatatypeValidator@@QAV?$RefHashTableOf@VKVStringPair@@@@QAV?$RefVectorOf@G@@@Z 12079270 f   UnionDatatypeValidator.obj
 0001:00078560       ??_G?$RefHashTableOf@VKVStringPair@@@@QAEPAXI@Z 12079560 f i UnionDatatypeValidator.obj
 0001:00078600       ?checkContent@UnionDatatypeValidator@@AAEXQBG_N@Z 12079600 f   UnionDatatypeValidator.obj
 0001:000789c0       ?compare@UnionDatatypeValidator@@UAEHQBG0@Z 120799c0 f   UnionDatatypeValidator.obj
 0001:00078a50       ?getPrefix@IDAttrNSImpl@@UBEPBGXZ 12079a50 f   UnionDatatypeValidator.obj
 0001:00078a50       ?getNotationName@IDEntityImpl@@UBEPBGXZ 12079a50 f   UnionDatatypeValidator.obj
 0001:00078a50       ?getEnumString@UnionDatatypeValidator@@UBEPBV?$RefVectorOf@G@@XZ 12079a50 f   UnionDatatypeValidator.obj
 0001:00078a50       ?getTagName@IDElementImpl@@UBEPBGXZ 12079a50 f   UnionDatatypeValidator.obj
 0001:00078a50       ?getEntities@IDDocumentTypeImpl@@UBEPAVIDOM_NamedNodeMap@@XZ 12079a50 f   UnionDatatypeValidator.obj
 0001:00078a50       ?getNodeName@IDElementImpl@@UBEPBGXZ 12079a50 f   UnionDatatypeValidator.obj
 0001:00078a60       ??0YearDatatypeValidator@@QAE@XZ 12079a60 f   YearDatatypeValidator.obj
 0001:00078a80       ??0YearDatatypeValidator@@QAE@QAVDatatypeValidator@@QAV?$RefHashTableOf@VKVStringPair@@@@QAV?$RefVectorOf@G@@H@Z 12079a80 f   YearDatatypeValidator.obj
 0001:00078af0       ??1YearDatatypeValidator@@UAE@XZ 12079af0 f   YearDatatypeValidator.obj
 0001:00078b00       ?newInstance@YearDatatypeValidator@@UAEPAVDatatypeValidator@@QAV?$RefHashTableOf@VKVStringPair@@@@QAV?$RefVectorOf@G@@H@Z 12079b00 f   YearDatatypeValidator.obj
 0001:00078b80       ?parse@YearDatatypeValidator@@MAEPAVXMLDateTime@@QBG@Z 12079b80 f   YearDatatypeValidator.obj
 0001:00078c10       ??0YearMonthDatatypeValidator@@QAE@XZ 12079c10 f   YearMonthDatatypeValidator.obj
 0001:00078c30       ??0YearMonthDatatypeValidator@@QAE@QAVDatatypeValidator@@QAV?$RefHashTableOf@VKVStringPair@@@@QAV?$RefVectorOf@G@@H@Z 12079c30 f   YearMonthDatatypeValidator.obj
 0001:00078ca0       ??1YearMonthDatatypeValidator@@UAE@XZ 12079ca0 f   YearMonthDatatypeValidator.obj
 0001:00078cb0       ?newInstance@YearMonthDatatypeValidator@@UAEPAVDatatypeValidator@@QAV?$RefHashTableOf@VKVStringPair@@@@QAV?$RefVectorOf@G@@H@Z 12079cb0 f   YearMonthDatatypeValidator.obj
 0001:00078d30       ?parse@YearMonthDatatypeValidator@@MAEPAVXMLDateTime@@QBG@Z 12079d30 f   YearMonthDatatypeValidator.obj
 0001:00078dc0       ??0DTDAttDef@@QAE@XZ       12079dc0 f   DTDAttDef.obj
 0001:00078df0       ??_EDTDAttDef@@UAEPAXI@Z   12079df0 f i DTDAttDef.obj
 0001:00078e50       ??0DTDAttDef@@QAE@QBGW4AttTypes@XMLAttDef@@W4DefAttTypes@2@@Z 12079e50 f   DTDAttDef.obj
 0001:00078f20       ??0DTDAttDef@@QAE@QBG0W4AttTypes@XMLAttDef@@W4DefAttTypes@2@0@Z 12079f20 f   DTDAttDef.obj
 0001:00078ff0       ??1DTDAttDef@@UAE@XZ       12079ff0 f   DTDAttDef.obj
 0001:00079050       ?setName@DTDAttDef@@QAEXQBG@Z 1207a050 f   DTDAttDef.obj
 0001:000790c0       ??0DTDAttDefList@@QAE@QAV?$RefHashTableOf@VDTDAttDef@@@@@Z 1207a0c0 f   DTDAttDefList.obj
 0001:000791c0       ??_EDTDAttDefList@@UAEPAXI@Z 1207a1c0 f i DTDAttDefList.obj
 0001:000791c0       ??_GDTDAttDefList@@UAEPAXI@Z 1207a1c0 f i DTDAttDefList.obj
 0001:000791e0       ??1DTDAttDefList@@UAE@XZ   1207a1e0 f   DTDAttDefList.obj
 0001:000792e0       ?findAttDef@DTDAttDefList@@UAEPAVXMLAttDef@@QBG0@Z 1207a2e0 f   DTDAttDefList.obj
 0001:000792e0       ?findAttDef@DTDAttDefList@@UBEPBVXMLAttDef@@KQBG@Z 1207a2e0 f   DTDAttDefList.obj
 0001:000792e0       ?findAttDef@DTDAttDefList@@UBEPBVXMLAttDef@@QBG0@Z 1207a2e0 f   DTDAttDefList.obj
 0001:000792e0       ?findAttDef@DTDAttDefList@@UAEPAVXMLAttDef@@KQBG@Z 1207a2e0 f   DTDAttDefList.obj
 0001:00079370       ?Reset@DTDAttDefList@@UAEXXZ 1207a370 f   DTDAttDefList.obj
 0001:00079370       ?getSign@XMLAbstractDoubleFloat@@UBEHXZ 1207a370 f   DTDAttDefList.obj
 0001:00079370       ?Reset@SchemaAttDefList@@UAEXXZ 1207a370 f   DTDAttDefList.obj
 0001:00079380       ??0DTDElementDecl@@QAE@XZ  1207a380 f   DTDElementDecl.obj
 0001:000793b0       ??_EDTDElementDecl@@UAEPAXI@Z 1207a3b0 f i DTDElementDecl.obj
 0001:00079410       ??0DTDElementDecl@@QAE@QBGIW4ModelTypes@0@@Z 1207a410 f   DTDElementDecl.obj
 0001:00079480       ??0DTDElementDecl@@QAE@QAVQName@@W4ModelTypes@0@@Z 1207a480 f   DTDElementDecl.obj
 0001:000794f0       ??1DTDElementDecl@@UAE@XZ  1207a4f0 f   DTDElementDecl.obj
 0001:00079620       ??_GContentSpecNode@@QAEPAXI@Z 1207a620 f i DTDElementDecl.obj
 0001:00079680       ?findAttr@DTDElementDecl@@UBEPAVXMLAttDef@@QBGI00W4LookupOpts@XMLElementDecl@@AA_N@Z 1207a680 f   DTDElementDecl.obj
 0001:000798f0       ?getAttDefList@DTDElementDecl@@UBEAAVXMLAttDefList@@XZ 1207a8f0 f   DTDElementDecl.obj
 0001:00079a00       ?getCharDataOpts@DTDElementDecl@@UBE?AW4CharDataOpts@XMLElementDecl@@XZ 1207aa00 f   DTDElementDecl.obj
 0001:00079a20       ?hasAttDefs@DTDElementDecl@@UBE_NXZ 1207aa20 f   DTDElementDecl.obj
 0001:00079a60       ?resetDefs@DTDElementDecl@@UAE_NXZ 1207aa60 f   DTDElementDecl.obj
 0001:00079c10       ?setContentSpec@DTDElementDecl@@UAEXPAVContentSpecNode@@@Z 1207ac10 f   DTDElementDecl.obj
 0001:00079c80       ?getFormattedContentModel@DTDElementDecl@@UBEPBGXZ 1207ac80 f   DTDElementDecl.obj
 0001:00079ca0       ?getAttDef@DTDElementDecl@@QAEPAVDTDAttDef@@QBG@Z 1207aca0 f   DTDElementDecl.obj
 0001:00079ca0       ?getAttDef@DTDElementDecl@@QBEPBVDTDAttDef@@QBG@Z 1207aca0 f   DTDElementDecl.obj
 0001:00079d40       ?addAttDef@DTDElementDecl@@QAEXQAVDTDAttDef@@@Z 1207ad40 f   DTDElementDecl.obj
 0001:00079d70       ?formatContentModel@DTDElementDecl@@ABEPAGXZ 1207ad70 f   DTDElementDecl.obj
 0001:00079f50       ?makeContentModel@DTDElementDecl@@AAEPAVXMLContentModel@@XZ 1207af50 f   DTDElementDecl.obj
 0001:0007a020       ?createChildModel@DTDElementDecl@@AAEPAVXMLContentModel@@XZ 1207b020 f   DTDElementDecl.obj
 0001:0007a4c0       ??_GSimpleContentModel@@UAEPAXI@Z 1207b4c0 f i DTDElementDecl.obj
 0001:0007a4c0       ??_ESimpleContentModel@@UAEPAXI@Z 1207b4c0 f i DTDElementDecl.obj
 0001:0007a4e0       ??1SimpleContentModel@@UAE@XZ 1207b4e0 f i DTDElementDecl.obj
 0001:0007a560       ?faultInAttDefList@DTDElementDecl@@ABEXXZ 1207b560 f   DTDElementDecl.obj
 0001:0007a640       ?put@?$RefHashTableOf@VDTDAttDef@@@@QAEXPAXQAVDTDAttDef@@@Z 1207b640 f i DTDElementDecl.obj
 0001:0007a740       ??1?$RefHashTableOfEnumerator@VDTDAttDef@@@@QAE@XZ 1207b740 f i DTDElementDecl.obj
 0001:0007a7c0       ??0DTDGrammar@@QAE@XZ      1207b7c0 f   DTDGrammar.obj
 0001:0007a9d0       ??1DTDGrammar@@UAE@XZ      1207b9d0 f   DTDGrammar.obj
 0001:0007ab20       ?findOrAddElemDecl@DTDGrammar@@UAEPAVXMLElementDecl@@IQBG00IAA_N@Z 1207bb20 f   DTDGrammar.obj
 0001:0007ad90       ?putElemDecl@DTDGrammar@@UAEPAVXMLElementDecl@@IQBG00I@Z 1207bd90 f   DTDGrammar.obj
 0001:0007af80       ?reset@DTDGrammar@@UAEXXZ  1207bf80 f   DTDGrammar.obj
 0001:0007b050       ??0DTDScanner@@QAE@PAVDTDGrammar@@PAV?$NameIdPool@VDTDEntityDecl@@@@QAVDocTypeHandler@@@Z 1207c050 f   DTDScanner.obj
 0001:0007b140       ??1DTDScanner@@UAE@XZ      1207c140 f   DTDScanner.obj
 0001:0007b1f0       ?checkForPERef@DTDScanner@@AAE_N_N000@Z 1207c1f0 f   DTDScanner.obj
 0001:0007b280       ?expandPERef@DTDScanner@@AAE_N_N000@Z 1207c280 f   DTDScanner.obj
 0001:0007b620       ?getQuotedString@DTDScanner@@AAE_NAAVXMLBuffer@@@Z 1207c620 f   DTDScanner.obj
 0001:0007b690       ?scanAttDef@DTDScanner@@AAEPAVXMLAttDef@@AAVDTDElementDecl@@AAVXMLBuffer@@@Z 1207c690 f   DTDScanner.obj
 0001:0007bf00       ?scanAttListDecl@DTDScanner@@AAEXXZ 1207cf00 f   DTDScanner.obj
 0001:0007c210       ?scanAttValue@DTDScanner@@AAE_NQBGAAVXMLBuffer@@W4AttTypes@XMLAttDef@@@Z 1207d210 f   DTDScanner.obj
 0001:0007c500       ?scanCharRef@DTDScanner@@AAE_NAAG0@Z 1207d500 f   DTDScanner.obj
 0001:0007c6c0       ?scanChildren@DTDScanner@@AAEPAVContentSpecNode@@ABVDTDElementDecl@@AAVXMLBuffer@@@Z 1207d6c0 f   DTDScanner.obj
 0001:0007ceb0       ??_GQName@@QAEPAXI@Z       1207deb0 f i DTDScanner.obj
 0001:0007ced0       ??1ContentSpecNode@@QAE@XZ 1207ded0 f i DTDScanner.obj
 0001:0007cff0       ?scanComment@DTDScanner@@AAEXXZ 1207dff0 f   DTDScanner.obj
 0001:0007d230       ?scanContentSpec@DTDScanner@@AAE_NAAVDTDElementDecl@@@Z 1207e230 f   DTDScanner.obj
 0001:0007d410       ?scanDefaultDecl@DTDScanner@@AAEXAAVDTDAttDef@@@Z 1207e410 f   DTDScanner.obj
 0001:0007d5c0       ?scanDocTypeDecl@DTDScanner@@QAEX_N@Z 1207e5c0 f   DTDScanner.obj
 0001:0007de40       ?scanElementDecl@DTDScanner@@AAEXXZ 1207ee40 f   DTDScanner.obj
 0001:0007e0f0       ?scanEntityDecl@DTDScanner@@AAEXXZ 1207f0f0 f   DTDScanner.obj
 0001:0007e630       ?scanEntityRef@DTDScanner@@AAE?AW4EntityExpRes@1@AAG0AA_N@Z 1207f630 f   DTDScanner.obj
 0001:0007ea00       ?scanEntityLiteral@DTDScanner@@AAE_NAAVXMLBuffer@@_N@Z 1207fa00 f   DTDScanner.obj
 0001:0007ed60       ?scanEntityDef@DTDScanner@@AAE_NAAVDTDEntityDecl@@_N@Z 1207fd60 f   DTDScanner.obj
 0001:0007f0b0       ?scanEnumeration@DTDScanner@@AAE_NABVDTDAttDef@@AAVXMLBuffer@@_N@Z 120800b0 f   DTDScanner.obj
 0001:0007f240       ?scanEq@DTDScanner@@AAE_NXZ 12080240 f   DTDScanner.obj
 0001:0007f270       ?scanExtSubsetDecl@DTDScanner@@AAEX_N@Z 12080270 f   DTDScanner.obj
 0001:0007f5c0       ?scanId@DTDScanner@@AAE_NAAVXMLBuffer@@0W4IDTypes@1@@Z 120805c0 f   DTDScanner.obj
 0001:0007f860       ?scanIgnoredSection@DTDScanner@@AAEXXZ 12080860 f   DTDScanner.obj
 0001:0007f950       ?scanInternalSubset@DTDScanner@@AAE_NXZ 12080950 f   DTDScanner.obj
 0001:0007fb30       ?scanMarkupDecl@DTDScanner@@AAEX_N@Z 12080b30 f   DTDScanner.obj
 0001:0007fde0       ?scanMixed@DTDScanner@@AAE_NAAVDTDElementDecl@@@Z 12080de0 f   DTDScanner.obj
 0001:000802f0       ?scanNotationDecl@DTDScanner@@AAEXXZ 120812f0 f   DTDScanner.obj
 0001:000805e0       ?scanPI@DTDScanner@@AAEXXZ 120815e0 f   DTDScanner.obj
 0001:00080900       ?scanPublicLiteral@DTDScanner@@AAE_NAAVXMLBuffer@@@Z 12081900 f   DTDScanner.obj
 0001:000809f0       ?scanSystemLiteral@DTDScanner@@AAE_NAAVXMLBuffer@@@Z 120819f0 f   DTDScanner.obj
 0001:00080aa0       ?scanTextDecl@DTDScanner@@AAEXXZ 12081aa0 f   DTDScanner.obj
 0001:00080e40       ??1?$FlagJanitor@_N@@QAE@XZ 12081e40 f i DTDScanner.obj
 0001:00080e50       ??0DTDValidator@@QAE@QAVXMLErrorReporter@@@Z 12081e50 f   DTDValidator.obj
 0001:00080e70       ??_EDTDValidator@@UAEPAXI@Z 12081e70 f i DTDValidator.obj
 0001:00080ed0       ??1DTDValidator@@UAE@XZ    12081ed0 f   DTDValidator.obj
 0001:00080ee0       ?checkContent@DTDValidator@@UAEHQAVXMLElementDecl@@QAPAVQName@@I@Z 12081ee0 f   DTDValidator.obj
 0001:00080f90       ?faultInAttr@DTDValidator@@UBEXAAVXMLAttr@@ABVXMLAttDef@@@Z 12081f90 f   DTDValidator.obj
 0001:000810a0       ?validateAttrValue@DTDValidator@@UAEXPBVXMLAttDef@@QBG@Z 120820a0 f   DTDValidator.obj
 0001:00081640       ?preContentValidation@DTDValidator@@UAEX_N@Z 12082640 f   DTDValidator.obj
 0001:000818c0       ??1?$NameIdPoolEnumerator@VDTDElementDecl@@@@UAE@XZ 120828c0 f i DTDValidator.obj
 0001:000818d0       ??1?$NameIdPoolEnumerator@VDTDEntityDecl@@@@UAE@XZ 120828d0 f i DTDValidator.obj
 0001:000818e0       ??0FieldActivator@@QAE@ABV0@@Z 120828e0 f   FieldActivator.obj
 0001:00081900       ??4FieldActivator@@QAEAAV0@ABV0@@Z 12082900 f   FieldActivator.obj
 0001:00081920       ?activateField@FieldActivator@@QAEPAVXPathMatcher@@QAVIC_Field@@@Z 12082920 f   FieldActivator.obj
 0001:00081aa0       ?startValueScopeFor@FieldActivator@@QAEXQBVIdentityConstraint@@@Z 12082aa0 f   FieldActivator.obj
 0001:00081ba0       ?endValueScopeFor@FieldActivator@@QAEXQBVIdentityConstraint@@@Z 12082ba0 f   FieldActivator.obj
 0001:00081c40       ??0ContentLeafNameTypeVector@@QAE@XZ 12082c40 f   FieldValueMap.obj
 0001:00081c40       ??0FieldValueMap@@QAE@XZ   12082c40 f   FieldValueMap.obj
 0001:00081c50       ??0FieldValueMap@@QAE@ABV0@@Z 12082c50 f   FieldValueMap.obj
 0001:00081f10       ??1FieldValueMap@@QAE@XZ   12082f10 f   FieldValueMap.obj
 0001:00081f90       ?indexOf@FieldValueMap@@QBEHQBVIC_Field@@@Z 12082f90 f   FieldValueMap.obj
 0001:00081ff0       ??1XercesNodeTest@@QAE@XZ  12082ff0 f i IC_Field.obj
 0001:00082010       ??1XercesStep@@QAE@XZ      12083010 f i IC_Field.obj
 0001:00082040       ?getAxisType@XercesStep@@QBEGXZ 12083040 f i IC_Field.obj
 0001:00082040       ?getType@XercesNodeTest@@QBEFXZ 12083040 f i IC_Field.obj
 0001:00082050       ??1XercesLocationPath@@QAE@XZ 12083050 f i IC_Field.obj
 0001:000820d0       ??_EXPathScanner@@UAEPAXI@Z 120830d0 f i IC_Field.obj
 0001:00082130       ??1XPathScanner@@UAE@XZ    12083130 f i IC_Field.obj
 0001:00082130       ??1XPathScannerForSchema@@UAE@XZ 12083130 f i IC_Field.obj
 0001:00082140       ??_EXPathScannerForSchema@@UAEPAXI@Z 12083140 f i IC_Field.obj
 0001:000821a0       ?getStepSize@XercesLocationPath@@QBEIXZ 120831a0 f i IC_Field.obj
 0001:000821b0       ?addStep@XercesLocationPath@@QAEXQAVXercesStep@@@Z 120831b0 f i IC_Field.obj
 0001:000822c0       ?getStep@XercesLocationPath@@QBEPAVXercesStep@@I@Z 120832c0 f i IC_Field.obj
 0001:00082310       ?addToken@XPathScanner@@MAEXQAV?$ValueVectorOf@H@@H@Z 12083310 f i IC_Field.obj
 0001:000823b0       ??0FieldMatcher@@AAE@QAVXercesXPath@@QAVIC_Field@@QAVValueStore@@@Z 120833b0 f   IC_Field.obj
 0001:000823e0       ?matched@FieldMatcher@@UAEXQBGQAVDatatypeValidator@@_N@Z 120833e0 f   IC_Field.obj
 0001:00082420       ??0IC_Field@@QAE@QAVXercesXPath@@QAVIdentityConstraint@@@Z 12083420 f   IC_Field.obj
 0001:00082440       ??1IC_Field@@QAE@XZ        12083440 f   IC_Field.obj
 0001:00082460       ??8IC_Field@@QBE_NABV0@@Z  12083460 f   IC_Field.obj
 0001:00082480       ??9IC_Field@@QBE_NABV0@@Z  12083480 f   IC_Field.obj
 0001:000824a0       ?createMatcher@IC_Field@@QAEPAVXPathMatcher@@QAVValueStore@@@Z 120834a0 f   IC_Field.obj
 0001:00082510       ?getType@IC_Key@@UBEFXZ    12083510 f i IC_Key.obj
 0001:00082520       ??0IC_Key@@QAE@QBG0@Z      12083520 f   IC_Key.obj
 0001:00082540       ??_EIC_Key@@UAEPAXI@Z      12083540 f i IC_Key.obj
 0001:000825a0       ??1IC_Key@@UAE@XZ          120835a0 f   IC_Key.obj
 0001:000825b0       ?getWSFacet@DatatypeValidator@@UBEFXZ 120835b0 f i IC_KeyRef.obj
 0001:000825b0       ?getType@IC_KeyRef@@UBEFXZ 120835b0 f i IC_KeyRef.obj
 0001:000825c0       ??0IC_KeyRef@@QAE@QBG0QAVIdentityConstraint@@@Z 120835c0 f   IC_KeyRef.obj
 0001:000825f0       ??_EIC_KeyRef@@UAEPAXI@Z   120835f0 f i IC_KeyRef.obj
 0001:00082650       ??1IC_KeyRef@@UAE@XZ       12083650 f   IC_KeyRef.obj
 0001:00082660       ??0SelectorMatcher@@AAE@QAVXercesXPath@@QAVIC_Selector@@QAVFieldActivator@@@Z 12083660 f   IC_Selector.obj
 0001:000826a0       ?startDocumentFragment@SelectorMatcher@@UAEXXZ 120836a0 f   IC_Selector.obj
 0001:000826c0       ?startElement@SelectorMatcher@@UAEXABVXMLElementDecl@@IQBGABV?$RefVectorOf@VXMLAttr@@@@I@Z 120836c0 f   IC_Selector.obj
 0001:000827b0       ?endElement@SelectorMatcher@@UAEXABVXMLElementDecl@@@Z 120837b0 f   IC_Selector.obj
 0001:000827f0       ??0IC_Selector@@QAE@QAVXercesXPath@@QAVIdentityConstraint@@@Z 120837f0 f   IC_Selector.obj
 0001:000827f0       ??0FieldActivator@@QAE@QAVValueStoreCache@@QAVXPathMatcherStack@@@Z 120837f0 f   IC_Selector.obj
 0001:00082810       ??1IC_Selector@@QAE@XZ     12083810 f   IC_Selector.obj
 0001:00082830       ??8IC_Selector@@QBE_NABV0@@Z 12083830 f   IC_Selector.obj
 0001:00082850       ??9IC_Selector@@QBE_NABV0@@Z 12083850 f   IC_Selector.obj
 0001:00082870       ?createMatcher@IC_Selector@@QAEPAVXPathMatcher@@QAVFieldActivator@@@Z 12083870 f   IC_Selector.obj
 0001:00082900       ?getType@IC_Unique@@UBEFXZ 12083900 f i IC_Unique.obj
 0001:00082900       ?getWSFacet@AnySimpleTypeDatatypeValidator@@UBEFXZ 12083900 f i IC_Unique.obj
 0001:00082910       ??0IC_Unique@@QAE@QBG0@Z   12083910 f   IC_Unique.obj
 0001:00082930       ??_EIC_Unique@@UAEPAXI@Z   12083930 f i IC_Unique.obj
 0001:00082990       ??1IC_Unique@@UAE@XZ       12083990 f   IC_Unique.obj
 0001:000829a0       ??0IdentityConstraint@@IAE@QBG0@Z 120839a0 f   IdentityConstraint.obj
 0001:00082b20       ??_EIdentityConstraint@@UAEPAXI@Z 12083b20 f i IdentityConstraint.obj
 0001:00082bf0       ??1IdentityConstraint@@UAE@XZ 12083bf0 f   IdentityConstraint.obj
 0001:00082c80       ??8IdentityConstraint@@QBE_NABV0@@Z 12083c80 f   IdentityConstraint.obj
 0001:00082d90       ??9IdentityConstraint@@QBE_NABV0@@Z 12083d90 f   IdentityConstraint.obj
 0001:00082db0       ?setSelector@IdentityConstraint@@QAEXQAVIC_Selector@@@Z 12083db0 f   IdentityConstraint.obj
 0001:00082df0       ?cleanUp@IdentityConstraint@@AAEXXZ 12083df0 f   IdentityConstraint.obj
 0001:00082e70       ??0ValueStore@@QAE@QAVIdentityConstraint@@QAVXMLScanner@@@Z 12083e70 f   ValueStore.obj
 0001:00082ed0       ??1ValueStore@@QAE@XZ      12083ed0 f   ValueStore.obj
 0001:00082f60       ?addValue@ValueStore@@QAEXQAVIC_Field@@QAVDatatypeValidator@@QBG@Z 12083f60 f   ValueStore.obj
 0001:00083290       ?append@ValueStore@@QAEXQBV1@@Z 12084290 f   ValueStore.obj
 0001:00083480       ?startValueScope@ValueStore@@QAEXXZ 12084480 f   ValueStore.obj
 0001:00083500       ?endValueScope@ValueStore@@QAEXXZ 12084500 f   ValueStore.obj
 0001:000835d0       ?contains@ValueStore@@QAE_NQBVFieldValueMap@@@Z 120845d0 f   ValueStore.obj
 0001:000837c0       ?isDuplicateOf@ValueStore@@AAE_NQAVDatatypeValidator@@QBG01@Z 120847c0 f   ValueStore.obj
 0001:000838e0       ?endDcocumentFragment@ValueStore@@QAEXQAVValueStoreCache@@@Z 120848e0 f   ValueStore.obj
 0001:000839d0       ?reportNilError@ValueStore@@QAEXQAVIdentityConstraint@@@Z 120849d0 f   ValueStore.obj
 0001:00083a10       ?duplicateValue@ValueStore@@QAEXXZ 12084a10 f   ValueStore.obj
 0001:00083a70       ?setElementAt@?$ValueVectorOf@PAVDatatypeValidator@@@@QAEXABQAVDatatypeValidator@@I@Z 12084a70 f i ValueStore.obj
 0001:00083ac0       ??0ValueStoreCache@@QAE@XZ 12084ac0 f   ValueStoreCache.obj
 0001:00083c60       ??1ValueStoreCache@@QAE@XZ 12084c60 f   ValueStoreCache.obj
 0001:00083d70       ?startDocument@ValueStoreCache@@QAEXXZ 12084d70 f   ValueStoreCache.obj
 0001:00083f70       ?startElement@ValueStoreCache@@QAEXXZ 12084f70 f   ValueStoreCache.obj
 0001:000840c0       ?endElement@ValueStoreCache@@QAEXXZ 120850c0 f   ValueStoreCache.obj
 0001:00084340       ?cleanUp@ValueStoreCache@@AAEXXZ 12085340 f   ValueStoreCache.obj
 0001:00084490       ?init@ValueStoreCache@@AAEXXZ 12085490 f   ValueStoreCache.obj
 0001:00084690       ?initValueStoresFor@ValueStoreCache@@QAEXQAVSchemaElementDecl@@@Z 12085690 f   ValueStoreCache.obj
 0001:00084960       ?transplant@ValueStoreCache@@QAEXQAVIdentityConstraint@@@Z 12085960 f   ValueStoreCache.obj
 0001:00084b70       ??1?$RefHashTableOf@VValueStore@@@@QAE@XZ 12085b70 f i ValueStoreCache.obj
 0001:00084c00       ?removeAll@?$RefHashTableOf@VValueStore@@@@QAEXXZ 12085c00 f i ValueStoreCache.obj
 0001:00084c70       ?put@?$RefHashTableOf@VValueStore@@@@QAEXPAXQAVValueStore@@@Z 12085c70 f i ValueStoreCache.obj
 0001:00084d80       ??1?$RefStackOf@V?$RefHashTableOf@VValueStore@@@@@@QAE@XZ 12085d80 f i ValueStoreCache.obj
 0001:00084e60       ??1?$RefHashTableOfEnumerator@VValueStore@@@@QAE@XZ 12085e60 f i ValueStoreCache.obj
 0001:00084f00       ?hasMoreElements@?$RefHashTableOfEnumerator@VGrammar@@@@UBE_NXZ 12085f00 f i ValueStoreCache.obj
 0001:00084f00       ?hasMoreElements@?$RefHashTableOfEnumerator@VComplexTypeInfo@@@@UBE_NXZ 12085f00 f i ValueStoreCache.obj
 0001:00084f00       ?hasMoreElements@?$RefHashTableOfEnumerator@VDTDAttDef@@@@UBE_NXZ 12085f00 f i ValueStoreCache.obj
 0001:00084f00       ?hasMoreElements@?$RefHashTableOfEnumerator@VXMLRefInfo@@@@UBE_NXZ 12085f00 f i ValueStoreCache.obj
 0001:00084f00       ?hasMoreElements@?$RefHashTableOfEnumerator@VKVStringPair@@@@UBE_NXZ 12085f00 f i ValueStoreCache.obj
 0001:00084f00       ?hasMoreElements@?$RefHash2KeysTableOfEnumerator@VSchemaAttDef@@@@UBE_NXZ 12085f00 f i ValueStoreCache.obj
 0001:00084f00       ?hasMoreElements@?$RefHashTableOfEnumerator@VValueStore@@@@UBE_NXZ 12085f00 f i ValueStoreCache.obj
 0001:00084f20       ??_GValueStore@@QAEPAXI@Z  12085f20 f i ValueStoreCache.obj
 0001:00084f40       ??0XPathException@@QAE@QBDIW4Codes@XMLExcepts@@@Z 12085f40 f i XercesXPath.obj
 0001:00084fa0       ??0XPathException@@QAE@ABV0@@Z 12085fa0 f i XercesXPath.obj
 0001:00084fc0       ??0XPathException@@QAE@QBDIW4Codes@XMLExcepts@@QBG222@Z 12085fc0 f i XercesXPath.obj
 0001:00085030       ??0XPathException@@QAE@QBDIW4Codes@XMLExcepts@@0000@Z 12086030 f i XercesXPath.obj
 0001:000850a0       ??1XPathException@@UAE@XZ  120860a0 f i XercesXPath.obj
 0001:000850b0       ?duplicate@XPathException@@UBEPAVXMLException@@XZ 120860b0 f i XercesXPath.obj
 0001:00085110       ?getType@XPathException@@UBEPBGXZ 12086110 f i XercesXPath.obj
 0001:00085120       ??_EXPathException@@UAEPAXI@Z 12086120 f i XercesXPath.obj
 0001:00085180       ?getNamespaceForPrefix@NamespaceScope@@QBEIQBG@Z 12086180 f i XercesXPath.obj
 0001:000851a0       ?isEmpty@NamespaceScope@@QBE_NXZ 120861a0 f i XercesXPath.obj
 0001:000851b0       ??0XercesNodeTest@@QAE@F@Z 120861b0 f   XercesXPath.obj
 0001:00085210       ??0XercesNodeTest@@QAE@QBVQName@@@Z 12086210 f   XercesXPath.obj
 0001:00085270       ??0XercesNodeTest@@QAE@QBGI@Z 12086270 f   XercesXPath.obj
 0001:000852f0       ??0XercesNodeTest@@QAE@ABV0@@Z 120862f0 f   XercesXPath.obj
 0001:00085360       ??4XercesNodeTest@@QAEAAV0@ABV0@@Z 12086360 f   XercesXPath.obj
 0001:00085390       ??8XercesNodeTest@@QBE_NABV0@@Z 12086390 f   XercesXPath.obj
 0001:000853c0       ??9XercesNodeTest@@QBE_NABV0@@Z 120863c0 f   XercesXPath.obj
 0001:00085410       ??0XercesStep@@QAE@GQAVXercesNodeTest@@@Z 12086410 f   XercesXPath.obj
 0001:00085430       ??0XercesStep@@QAE@ABV0@@Z 12086430 f   XercesXPath.obj
 0001:000854d0       ??4XercesStep@@QAEAAV0@ABV0@@Z 120864d0 f   XercesXPath.obj
 0001:00085510       ??8XercesStep@@QBE_NABV0@@Z 12086510 f   XercesXPath.obj
 0001:00085570       ??9XercesStep@@QBE_NABV0@@Z 12086570 f   XercesXPath.obj
 0001:00085600       ??0XercesLocationPath@@QAE@QAV?$RefVectorOf@VXercesStep@@@@@Z 12086600 f   XercesXPath.obj
 0001:00085610       ??8XercesLocationPath@@QBE_NABV0@@Z 12086610 f   XercesXPath.obj
 0001:000856f0       ??9XercesLocationPath@@QBE_NABV0@@Z 120866f0 f   XercesXPath.obj
 0001:000857f0       ??0XercesXPath@@QAE@QBGQAVXMLStringPool@@QAVNamespaceScope@@I_N@Z 120867f0 f   XercesXPath.obj
 0001:000859c0       ??1XercesXPath@@QAE@XZ     120869c0 f   XercesXPath.obj
 0001:00085a80       ??8XercesXPath@@QBE_NABV0@@Z 12086a80 f   XercesXPath.obj
 0001:00085c20       ??9XercesXPath@@QBE_NABV0@@Z 12086c20 f   XercesXPath.obj
 0001:00085dd0       ?cleanUp@XercesXPath@@AAEXXZ 12086dd0 f   XercesXPath.obj
 0001:00085ea0       ??_GXercesNodeTest@@QAEPAXI@Z 12086ea0 f i XercesXPath.obj
 0001:00085ee0       ?checkForSelectedAttributes@XercesXPath@@AAEXXZ 12086ee0 f   XercesXPath.obj
 0001:00085fb0       ?parseExpression@XercesXPath@@AAEXQAVXMLStringPool@@QAVNamespaceScope@@@Z 12086fb0 f   XercesXPath.obj
 0001:00087170       ??0XPathScanner@@QAE@QAVXMLStringPool@@@Z 12088170 f   XercesXPath.obj
 0001:000871d0       ?init@XPathScanner@@AAEXXZ 120881d0 f   XercesXPath.obj
 0001:00087330       ?scanExpression@XPathScanner@@QAE_NQBGHHQAV?$ValueVectorOf@H@@@Z 12088330 f   XercesXPath.obj
 0001:00088390       ?scanNCName@XPathScanner@@AAEHQBGHH@Z 12089390 f   XercesXPath.obj
 0001:000883f0       ?scanNumber@XPathScanner@@AAEHQBGHHQAV?$ValueVectorOf@H@@@Z 120893f0 f   XercesXPath.obj
 0001:000885d0       ??0XPathScannerForSchema@@QAE@QAVXMLStringPool@@@Z 120895d0 f   XercesXPath.obj
 0001:000885f0       ?addToken@XPathScannerForSchema@@MAEXQAV?$ValueVectorOf@H@@H@Z 120895f0 f   XercesXPath.obj
 0001:000886f0       ??1?$RefVectorOf@VXercesStep@@@@QAE@XZ 120896f0 f i XercesXPath.obj
 0001:00088770       ?elementAt@?$RefVectorOf@VSchemaAttDef@@@@QAEPAVSchemaAttDef@@I@Z 12089770 f i XercesXPath.obj
 0001:00088770       ?elementAt@?$RefVectorOf@VXercesStep@@@@QAEPAVXercesStep@@I@Z 12089770 f i XercesXPath.obj
 0001:00088770       ?elementAt@?$RefVectorOf@VSchemaInfo@@@@QAEPAVSchemaInfo@@I@Z 12089770 f i XercesXPath.obj
 0001:00088770       ?elementAt@?$RefVectorOf@G@@QAEPAGI@Z 12089770 f i XercesXPath.obj
 0001:00088770       ?elementAt@?$RefVectorOf@VSchemaElementDecl@@@@QAEPAVSchemaElementDecl@@I@Z 12089770 f i XercesXPath.obj
 0001:000887b0       ??1?$Janitor@V?$RefVectorOf@VXercesStep@@@@@@QAE@XZ 120897b0 f i XercesXPath.obj
 0001:00088850       ??0XPathMatcher@@QAE@QAVXercesXPath@@@Z 12089850 f   XPathMatcher.obj
 0001:00088960       ??0XPathMatcher@@QAE@QAVXercesXPath@@_NQAVIdentityConstraint@@@Z 12089960 f   XPathMatcher.obj
 0001:00088a70       ??1XPathMatcher@@UAE@XZ    12089a70 f   XPathMatcher.obj
 0001:00088b30       ?init@XPathMatcher@@AAEXQAVXercesXPath@@@Z 12089b30 f   XPathMatcher.obj
 0001:00088d00       ?clear@XPathMatcher@@AAEXXZ 12089d00 f   XPathMatcher.obj
 0001:00088d00       ?endDocumentFragment@XPathMatcher@@UAEXXZ 12089d00 f   XPathMatcher.obj
 0001:00088d30       ?startDocumentFragment@XPathMatcher@@UAEXXZ 12089d30 f   XPathMatcher.obj
 0001:00088dd0       ?startElement@XPathMatcher@@UAEXABVXMLElementDecl@@IQBGABV?$RefVectorOf@VXMLAttr@@@@I@Z 12089dd0 f   XPathMatcher.obj
 0001:00089350       ?docCharacters@XPathMatcher@@UAEXQBGI@Z 1208a350 f   XPathMatcher.obj
 0001:00089390       ?endElement@XPathMatcher@@UAEXABVXMLElementDecl@@@Z 1208a390 f   XPathMatcher.obj
 0001:00089520       ?isMatched@XPathMatcher@@QAE_NXZ 1208a520 f   XPathMatcher.obj
 0001:00089540       ?matched@XPathMatcher@@MAEXQBGQAVDatatypeValidator@@_N@Z 1208a540 f   XPathMatcher.obj
 0001:00089540       ?attDef@SAXParser@@UAEXABVDTDElementDecl@@ABVDTDAttDef@@_N@Z 1208a540 f   XPathMatcher.obj
 0001:00089550       ?ensureExtraCapacity@?$ValueVectorOf@PAVXercesAttGroupInfo@@@@QAEXI@Z 1208a550 f i XPathMatcher.obj
 0001:00089550       ?ensureExtraCapacity@?$ValueVectorOf@I@@QAEXI@Z 1208a550 f i XPathMatcher.obj
 0001:00089550       ?ensureExtraCapacity@?$ValueVectorOf@H@@QAEXI@Z 1208a550 f i XPathMatcher.obj
 0001:00089550       ?ensureExtraCapacity@?$ValueVectorOf@PAVIC_Field@@@@QAEXI@Z 1208a550 f i XPathMatcher.obj
 0001:00089550       ?ensureExtraCapacity@?$ValueVectorOf@PBG@@QAEXI@Z 1208a550 f i XPathMatcher.obj
 0001:00089550       ?ensureExtraCapacity@?$ValueVectorOf@PAVSchemaElementDecl@@@@QAEXI@Z 1208a550 f i XPathMatcher.obj
 0001:00089550       ?ensureExtraCapacity@?$ValueVectorOf@PAVDatatypeValidator@@@@QAEXI@Z 1208a550 f i XPathMatcher.obj
 0001:00089550       ?ensureExtraCapacity@?$ValueVectorOf@PAVQName@@@@QAEXI@Z 1208a550 f i XPathMatcher.obj
 0001:00089550       ?ensureExtraCapacity@?$ValueVectorOf@PBVIDOM_Element@@@@QAEXI@Z 1208a550 f i XPathMatcher.obj
 0001:000895e0       ??0XPathMatcherStack@@QAE@XZ 1208a5e0 f   XPathMatcherStack.obj
 0001:000896d0       ??1XPathMatcherStack@@QAE@XZ 1208a6d0 f   XPathMatcherStack.obj
 0001:00089730       ?clear@XPathMatcherStack@@QAEXXZ 1208a730 f   XPathMatcherStack.obj
 0001:00089790       ??0ComplexTypeInfo@@QAE@XZ 1208a790 f   ComplexTypeInfo.obj
 0001:000897f0       ??1ComplexTypeInfo@@QAE@XZ 1208a7f0 f   ComplexTypeInfo.obj
 0001:000899d0       ?addAttDef@ComplexTypeInfo@@QAEXQAVSchemaAttDef@@@Z 1208a9d0 f   ComplexTypeInfo.obj
 0001:00089a10       ?setContentSpec@ComplexTypeInfo@@QAEXQAVContentSpecNode@@@Z 1208aa10 f   ComplexTypeInfo.obj
 0001:00089ab0       ?getAttDefList@ComplexTypeInfo@@QBEAAVXMLAttDefList@@XZ 1208aab0 f   ComplexTypeInfo.obj
 0001:00089bc0       ?getFormattedContentModel@ComplexTypeInfo@@QBEPBGXZ 1208abc0 f   ComplexTypeInfo.obj
 0001:00089be0       ?findAttr@ComplexTypeInfo@@QBEPAVXMLAttDef@@QBGI00W4LookupOpts@XMLElementDecl@@AA_N@Z 1208abe0 f   ComplexTypeInfo.obj
 0001:00089e10       ?resetDefs@ComplexTypeInfo@@QAE_NXZ 1208ae10 f   ComplexTypeInfo.obj
 0001:00089fc0       ?checkUniqueParticleAttribution@ComplexTypeInfo@@QAEXQAVSchemaGrammar@@QAVGrammarResolver@@QAVXMLStringPool@@QAVXMLValidator@@@Z 1208afc0 f   ComplexTypeInfo.obj
 0001:0008a0f0       ?faultInAttDefList@ComplexTypeInfo@@ABEXXZ 1208b0f0 f   ComplexTypeInfo.obj
 0001:0008a1d0       ?formatContentModel@ComplexTypeInfo@@ABEPAGXZ 1208b1d0 f   ComplexTypeInfo.obj
 0001:0008a3a0       ?makeContentModel@ComplexTypeInfo@@AAEPAVXMLContentModel@@_NQAVContentSpecNode@@@Z 1208b3a0 f   ComplexTypeInfo.obj
 0001:0008a5d0       ?createChildModel@ComplexTypeInfo@@AAEPAVXMLContentModel@@PAVContentSpecNode@@_N@Z 1208b5d0 f   ComplexTypeInfo.obj
 0001:0008ab10       ?convertContentSpecTree@ComplexTypeInfo@@AAEPAVContentSpecNode@@QAV2@_N@Z 1208bb10 f   ComplexTypeInfo.obj
 0001:0008aca0       ?expandContentModel@ComplexTypeInfo@@AAEPAVContentSpecNode@@QAV2@HH@Z 1208bca0 f   ComplexTypeInfo.obj
 0001:0008aff0       ?resizeContentSpecOrgURI@ComplexTypeInfo@@AAEXXZ 1208bff0 f   ComplexTypeInfo.obj
 0001:0008b050       ?put@?$RefHash2KeysTableOf@VSchemaAttDef@@@@QAEXPAXHQAVSchemaAttDef@@@Z 1208c050 f i ComplexTypeInfo.obj
 0001:0008b170       ?initialize@?$RefHash2KeysTableOf@VSchemaElementDecl@@@@AAEXI@Z 1208c170 f i ComplexTypeInfo.obj
 0001:0008b170       ?initialize@?$RefHash2KeysTableOf@VIdentityConstraint@@@@AAEXI@Z 1208c170 f i ComplexTypeInfo.obj
 0001:0008b170       ?initialize@?$RefHash2KeysTableOf@VSchemaInfo@@@@AAEXI@Z 1208c170 f i ComplexTypeInfo.obj
 0001:0008b170       ?initialize@?$RefHash2KeysTableOf@VSchemaAttDef@@@@AAEXI@Z 1208c170 f i ComplexTypeInfo.obj
 0001:0008b170       ?initialize@?$RefHash2KeysTableOf@V?$RefVectorOf@VAttributeInfo@@@@@@AAEXI@Z 1208c170 f i ComplexTypeInfo.obj
 0001:0008b200       ??0AttributeInfo@@QAE@QBGF0F@Z 1208c200 f   GeneralAttributeCheck.obj
 0001:0008b310       ??0GeneralAttributeCheck@@QAE@XZ 1208c310 f   GeneralAttributeCheck.obj
 0001:0008b360       ??1GeneralAttributeCheck@@QAE@XZ 1208c360 f   GeneralAttributeCheck.obj
 0001:0008b370       ?setUpAttributes@GeneralAttributeCheck@@AAEXXZ 1208c370 f   GeneralAttributeCheck.obj
 0001:0008bf10       ?setUpValidators@GeneralAttributeCheck@@AAEXXZ 1208cf10 f   GeneralAttributeCheck.obj
 0001:0008c1d0       ?mapElements@GeneralAttributeCheck@@AAEXXZ 1208d1d0 f   GeneralAttributeCheck.obj
 0001:0008ec80       ?reinitGeneralAttCheck@GeneralAttributeCheck@@SAXXZ 1208fc80 f   GeneralAttributeCheck.obj
 0001:0008edf0       ?checkAttributes@GeneralAttributeCheck@@QAEXQBVIDOM_Element@@GQAVTraverseSchema@@@Z 1208fdf0 f   GeneralAttributeCheck.obj
 0001:0008f3a0       ?validate@GeneralAttributeCheck@@AAEXQBG0FQAVTraverseSchema@@@Z 120903a0 f   GeneralAttributeCheck.obj
 0001:0008f610       ?put@?$RefHash2KeysTableOf@V?$RefVectorOf@VAttributeInfo@@@@@@QAEXPAXHQAV?$RefVectorOf@VAttributeInfo@@@@@Z 12090610 f i GeneralAttributeCheck.obj
 0001:0008f780       ??1?$RefHash2KeysTableOf@G@@QAE@XZ 12090780 f i GeneralAttributeCheck.obj
 0001:0008f780       ??1?$RefHashTableOf@G@@QAE@XZ 12090780 f i GeneralAttributeCheck.obj
 0001:0008f7f0       ??_G?$RefVectorOf@VAttributeInfo@@@@QAEPAXI@Z 120907f0 f i GeneralAttributeCheck.obj
 0001:0008f860       ?findBucketElem@?$RefHash2KeysTableOf@VIdentityConstraint@@@@AAEPAU?$RefHash2KeysTableBucketElem@VIdentityConstraint@@@@QBXHAAI@Z 12090860 f i GeneralAttributeCheck.obj
 0001:0008f860       ?findBucketElem@?$RefHash2KeysTableOf@V?$RefVectorOf@VAttributeInfo@@@@@@AAEPAU?$RefHash2KeysTableBucketElem@V?$RefVectorOf@VAttributeInfo@@@@@@QBXHAAI@Z 12090860 f i GeneralAttributeCheck.obj
 0001:0008f860       ?findBucketElem@?$RefHash2KeysTableOf@VSchemaAttDef@@@@AAEPAU?$RefHash2KeysTableBucketElem@VSchemaAttDef@@@@QBXHAAI@Z 12090860 f i GeneralAttributeCheck.obj
 0001:0008f860       ?findBucketElem@?$RefHash2KeysTableOf@V?$ValueVectorOf@PAVSchemaElementDecl@@@@@@AAEPAU?$RefHash2KeysTableBucketElem@V?$ValueVectorOf@PAVSchemaElementDecl@@@@@@QBXHAAI@Z 12090860 f i GeneralAttributeCheck.obj
 0001:0008f860       ?findBucketElem@?$RefHash2KeysTableOf@G@@AAEPAU?$RefHash2KeysTableBucketElem@G@@QBXHAAI@Z 12090860 f i GeneralAttributeCheck.obj
 0001:0008f860       ?findBucketElem@?$RefHash2KeysTableOf@VSchemaElementDecl@@@@AAEPAU?$RefHash2KeysTableBucketElem@VSchemaElementDecl@@@@QBXHAAI@Z 12090860 f i GeneralAttributeCheck.obj
 0001:0008f860       ?findBucketElem@?$RefHash2KeysTableOf@VSchemaInfo@@@@AAEPAU?$RefHash2KeysTableBucketElem@VSchemaInfo@@@@QBXHAAI@Z 12090860 f i GeneralAttributeCheck.obj
 0001:0008f8f0       ??0NamespaceScope@@QAE@XZ  120908f0 f   NamespaceScope.obj
 0001:0008f970       ??1NamespaceScope@@QAE@XZ  12090970 f   NamespaceScope.obj
 0001:0008fa00       ?increaseDepth@NamespaceScope@@QAEIXZ 12090a00 f   NamespaceScope.obj
 0001:0008fb00       ?decreaseDepth@NamespaceScope@@QAEIXZ 12090b00 f   NamespaceScope.obj
 0001:0008fb40       ?addPrefix@NamespaceScope@@QAEXQBGI@Z 12090b40 f   NamespaceScope.obj
 0001:0008fc40       ?getNamespaceForPrefix@NamespaceScope@@QBEIQBGH@Z 12090c40 f   NamespaceScope.obj
 0001:0008fcb0       ?reset@NamespaceScope@@QAEXI@Z 12090cb0 f   NamespaceScope.obj
 0001:0008fcd0       ?expandMap@NamespaceScope@@AAEXQAUStackElem@1@@Z 12090cd0 f   NamespaceScope.obj
 0001:0008fd60       ?expandStack@NamespaceScope@@AAEXXZ 12090d60 f   NamespaceScope.obj
 0001:0008fe00       ?getFullName@SchemaAttDef@@UBEPBGXZ 12090e00 f   SchemaAttDef.obj
 0001:0008fe10       ??0SchemaAttDef@@QAE@XZ    12090e10 f   SchemaAttDef.obj
 0001:0008fe50       ??_ESchemaAttDef@@UAEPAXI@Z 12090e50 f i SchemaAttDef.obj
 0001:0008feb0       ??0SchemaAttDef@@QAE@QBG0HW4AttTypes@XMLAttDef@@W4DefAttTypes@2@@Z 12090eb0 f   SchemaAttDef.obj
 0001:0008ff50       ??0SchemaAttDef@@QAE@QBG0H0W4AttTypes@XMLAttDef@@W4DefAttTypes@2@0@Z 12090f50 f   SchemaAttDef.obj
 0001:00090000       ??0SchemaAttDef@@QAE@PBV0@@Z 12091000 f   SchemaAttDef.obj
 0001:00090120       ??1SchemaAttDef@@UAE@XZ    12091120 f   SchemaAttDef.obj
 0001:000901a0       ?setAttName@SchemaAttDef@@QAEXQBG0H@Z 120911a0 f   SchemaAttDef.obj
 0001:000901c0       ??0SchemaAttDefList@@QAE@QAV?$RefHash2KeysTableOf@VSchemaAttDef@@@@@Z 120911c0 f   SchemaAttDefList.obj
 0001:000902c0       ??_GSchemaAttDefList@@UAEPAXI@Z 120912c0 f i SchemaAttDefList.obj
 0001:000902c0       ??_ESchemaAttDefList@@UAEPAXI@Z 120912c0 f i SchemaAttDefList.obj
 0001:000902e0       ??1SchemaAttDefList@@UAE@XZ 120912e0 f   SchemaAttDefList.obj
 0001:00090330       ?hasMoreElements@DTDAttDefList@@UBE_NXZ 12091330 f   SchemaAttDefList.obj
 0001:00090330       ?hasMoreElements@SchemaAttDefList@@UBE_NXZ 12091330 f   SchemaAttDefList.obj
 0001:00090340       ?isEmpty@DTDAttDefList@@UBE_NXZ 12091340 f   SchemaAttDefList.obj
 0001:00090340       ?isEmpty@SchemaAttDefList@@UBE_NXZ 12091340 f   SchemaAttDefList.obj
 0001:00090370       ?findAttDef@SchemaAttDefList@@UAEPAVXMLAttDef@@KQBG@Z 12091370 f   SchemaAttDefList.obj
 0001:00090460       ?findAttDef@SchemaAttDefList@@UBEPBVXMLAttDef@@KQBG@Z 12091460 f   SchemaAttDefList.obj
 0001:00090550       ?findAttDef@SchemaAttDefList@@UAEPAVXMLAttDef@@QBG0@Z 12091550 f   SchemaAttDefList.obj
 0001:00090580       ?findAttDef@SchemaAttDefList@@UBEPBVXMLAttDef@@QBG0@Z 12091580 f   SchemaAttDefList.obj
 0001:000905b0       ?nextElement@DTDAttDefList@@UAEAAVXMLAttDef@@XZ 120915b0 f   SchemaAttDefList.obj
 0001:000905b0       ?nextElement@SchemaAttDefList@@UAEAAVXMLAttDef@@XZ 120915b0 f   SchemaAttDefList.obj
 0001:000905c0       ??0SchemaElementDecl@@QAE@XZ 120915c0 f   SchemaElementDecl.obj
 0001:00090610       ??_ESchemaElementDecl@@UAEPAXI@Z 12091610 f i SchemaElementDecl.obj
 0001:00090670       ??0SchemaElementDecl@@QAE@QBG0HW4ModelTypes@0@H@Z 12091670 f   SchemaElementDecl.obj
 0001:00090700       ??0SchemaElementDecl@@QAE@QBVQName@@W4ModelTypes@0@H@Z 12091700 f   SchemaElementDecl.obj
 0001:00090780       ??1SchemaElementDecl@@UAE@XZ 12091780 f   SchemaElementDecl.obj
 0001:000908b0       ?findAttr@SchemaElementDecl@@UBEPAVXMLAttDef@@QBGI00W4LookupOpts@XMLElementDecl@@AA_N@Z 120918b0 f   SchemaElementDecl.obj
 0001:00090b50       ?getAttDefList@SchemaElementDecl@@UBEAAVXMLAttDefList@@XZ 12091b50 f   SchemaElementDecl.obj
 0001:00090ba0       ?getCharDataOpts@SchemaElementDecl@@UBE?AW4CharDataOpts@XMLElementDecl@@XZ 12091ba0 f   SchemaElementDecl.obj
 0001:00090bd0       ?hasAttDefs@SchemaElementDecl@@UBE_NXZ 12091bd0 f   SchemaElementDecl.obj
 0001:00090c40       ?resetDefs@SchemaElementDecl@@UAE_NXZ 12091c40 f   SchemaElementDecl.obj
 0001:00090cc0       ?getFormattedContentModel@SchemaElementDecl@@UBEPBGXZ 12091cc0 f   SchemaElementDecl.obj
 0001:00090ce0       ?getAttDef@SchemaElementDecl@@QBEPBVSchemaAttDef@@QBGH@Z 12091ce0 f   SchemaElementDecl.obj
 0001:00090ce0       ?getAttDef@SchemaElementDecl@@QAEPAVSchemaAttDef@@QBGH@Z 12091ce0 f   SchemaElementDecl.obj
 0001:00090e30       ?elementCount@XercesGroupInfo@@QBEIXZ 12091e30 f i SchemaGrammar.obj
 0001:00090e40       ?addElement@XercesGroupInfo@@QAEXQAVSchemaElementDecl@@@Z 12091e40 f i SchemaGrammar.obj
 0001:00090ed0       ?containsElement@XercesGroupInfo@@QAE_NQBVSchemaElementDecl@@@Z 12091ed0 f i SchemaGrammar.obj
 0001:00090f40       ?attributeCount@XercesAttGroupInfo@@QBEIXZ 12091f40 f i SchemaGrammar.obj
 0001:00090f50       ?anyAttributeCount@XercesAttGroupInfo@@QBEIXZ 12091f50 f i SchemaGrammar.obj
 0001:00090f60       ?attributeAt@XercesAttGroupInfo@@QBEPBVSchemaAttDef@@I@Z 12091f60 f i SchemaGrammar.obj
 0001:00090f60       ?attributeAt@XercesAttGroupInfo@@QAEPAVSchemaAttDef@@I@Z 12091f60 f i SchemaGrammar.obj
 0001:00090fb0       ?addAttDef@XercesAttGroupInfo@@QAEXQAVSchemaAttDef@@_N@Z 12091fb0 f i SchemaGrammar.obj
 0001:00091170       ?addAnyAttDef@XercesAttGroupInfo@@QAEXQAVSchemaAttDef@@_N@Z 12092170 f i SchemaGrammar.obj
 0001:00091330       ?setCompleteWildCard@XercesAttGroupInfo@@QAEXQAVSchemaAttDef@@@Z 12092330 f i SchemaGrammar.obj
 0001:00091360       ??0SchemaGrammar@@QAE@XZ   12092360 f   SchemaGrammar.obj
 0001:00091630       ??1SchemaGrammar@@UAE@XZ   12092630 f   SchemaGrammar.obj
 0001:000917f0       ?findOrAddElemDecl@SchemaGrammar@@UAEPAVXMLElementDecl@@IQBG00IAA_N@Z 120927f0 f   SchemaGrammar.obj
 0001:00091a90       ?putElemDecl@SchemaGrammar@@UAEPAVXMLElementDecl@@IQBG00I@Z 12092a90 f   SchemaGrammar.obj
 0001:00091c70       ?reset@SchemaGrammar@@UAEXXZ 12092c70 f   SchemaGrammar.obj
 0001:00091da0       ?removeAll@?$RefHash3KeysIdPool@VSchemaElementDecl@@@@QAEXXZ 12092da0 f i SchemaGrammar.obj
 0001:00091e10       ?removeAll@?$NameIdPool@VXMLNotationDecl@@@@QAEXXZ 12092e10 f i SchemaGrammar.obj
 0001:00091e90       ??1?$RefHashTableOf@VXMLRefInfo@@@@QAE@XZ 12092e90 f i SchemaGrammar.obj
 0001:00091f20       ??1?$RefHashTableOf@VXercesGroupInfo@@@@QAE@XZ 12092f20 f i SchemaGrammar.obj
 0001:00091fb0       ?findBucketElem@?$RefHash3KeysIdPool@VSchemaElementDecl@@@@AAEPAU?$RefHash3KeysTableBucketElem@VSchemaElementDecl@@@@QBXHHAAI@Z 12092fb0 f i SchemaGrammar.obj
 0001:00092050       ?removeAll@?$RefHashTableOf@VComplexTypeInfo@@@@QAEXXZ 12093050 f i SchemaGrammar.obj
 0001:000920c0       ?removeAll@?$RefHashTableOf@VXercesAttGroupInfo@@@@QAEXXZ 120930c0 f i SchemaGrammar.obj
 0001:00092130       ??0SchemaInfo@@QAE@GHHHHHIQAGQBGQAVXMLStringPool@@QBVIDOM_Element@@@Z 12093130 f   SchemaInfo.obj
 0001:00092210       ??1SchemaInfo@@QAE@XZ      12093210 f   SchemaInfo.obj
 0001:00092350       ?getTopLevelComponent@SchemaInfo@@QAEPAVIDOM_Element@@QBG0PAPAV1@@Z 12093350 f   SchemaInfo.obj
 0001:00092400       ?getTopLevelComponent@SchemaInfo@@QAEPAVIDOM_Element@@QBG0@Z 12093400 f   SchemaInfo.obj
 0001:00092530       ?updateImportingInfo@SchemaInfo@@QAEXQAV1@@Z 12093530 f   SchemaInfo.obj
 0001:00092690       ??0SchemaValidator@@QAE@QAVXMLErrorReporter@@@Z 12093690 f   SchemaValidator.obj
 0001:00092710       ??_ESchemaValidator@@UAEPAXI@Z 12093710 f i SchemaValidator.obj
 0001:00092770       ??1SchemaValidator@@UAE@XZ 12093770 f   SchemaValidator.obj
 0001:000927e0       ?checkContent@SchemaValidator@@UAEHQAVXMLElementDecl@@QAPAVQName@@I@Z 120937e0 f   SchemaValidator.obj
 0001:00092bf0       ?faultInAttr@SchemaValidator@@UBEXAAVXMLAttr@@ABVXMLAttDef@@@Z 12093bf0 f   SchemaValidator.obj
 0001:00092c30       ?reset@SchemaValidator@@UAEXXZ 12093c30 f   SchemaValidator.obj
 0001:00092c70       ?validateAttrValue@SchemaValidator@@UAEXPBVXMLAttDef@@QBG@Z 12093c70 f   SchemaValidator.obj
 0001:000930b0       ?validateElement@SchemaValidator@@UAEXPBVXMLElementDecl@@@Z 120940b0 f   SchemaValidator.obj
 0001:00093640       ?preContentValidation@SchemaValidator@@UAEX_N@Z 12094640 f   SchemaValidator.obj
 0001:00093b70       ?normalizeWhiteSpace@SchemaValidator@@QAEXPAVDatatypeValidator@@QBGAAVXMLBuffer@@@Z 12094b70 f   SchemaValidator.obj
 0001:00093cf0       ??1?$RefHash3KeysIdPoolEnumerator@VSchemaElementDecl@@@@UAE@XZ 12094cf0 f i SchemaValidator.obj
 0001:00093d90       ??1?$RefHashTableOfEnumerator@VGrammar@@@@QAE@XZ 12094d90 f i SchemaValidator.obj
 0001:00093e10       ??1?$RefHashTableOfEnumerator@VComplexTypeInfo@@@@QAE@XZ 12094e10 f i SchemaValidator.obj
 0001:00093eb0       ?isEquivalentTo@SubstitutionGroupComparator@@QAE_NQAVQName@@0@Z 12094eb0 f   SubstitutionGroupComparator.obj
 0001:000941b0       ?isAllowedByWildcard@SubstitutionGroupComparator@@QAE_NQAVSchemaGrammar@@QAVQName@@I_N@Z 120951b0 f   SubstitutionGroupComparator.obj
 0001:00094310       ??0TraverseSchema@@QAE@QAVIDOM_Element@@QAVXMLStringPool@@QAVSchemaGrammar@@QAVGrammarResolver@@QAVXMLScanner@@QAVXMLValidator@@QBGQAVEntityResolver@@QAVErrorHandler@@@Z 12095310 f   TraverseSchema.obj
 0001:000944b0       ??1TraverseSchema@@QAE@XZ  120954b0 f   TraverseSchema.obj
 0001:00094510       ?doTraverseSchema@TraverseSchema@@AAEXQBVIDOM_Element@@@Z 12095510 f   TraverseSchema.obj
 0001:00094800       ?preprocessSchema@TraverseSchema@@AAEXQAVIDOM_Element@@QBG@Z 12095800 f   TraverseSchema.obj
 0001:00094e80       ?addSchemaInfo@SchemaInfo@@QAEXQAV1@W4ListType@1@@Z 12095e80 f i TraverseSchema.obj
 0001:000950f0       ?addImportedNS@SchemaInfo@@QAEXH@Z 120960f0 f i TraverseSchema.obj
 0001:00095220       ?traverseSchemaHeader@TraverseSchema@@AAEXQBVIDOM_Element@@@Z 12096220 f   TraverseSchema.obj
 0001:000952f0       ?traverseAnnotationDecl@TraverseSchema@@AAEXQBVIDOM_Element@@@Z 120962f0 f   TraverseSchema.obj
 0001:00095480       ?preprocessInclude@TraverseSchema@@AAEXQBVIDOM_Element@@@Z 12096480 f   TraverseSchema.obj
 0001:00095ad0       ?traverseInclude@TraverseSchema@@AAEXQBVIDOM_Element@@@Z 12096ad0 f   TraverseSchema.obj
 0001:00095b80       ?preprocessImport@TraverseSchema@@AAEXQBVIDOM_Element@@@Z 12096b80 f   TraverseSchema.obj
 0001:000961d0       ?traverseImport@TraverseSchema@@AAEXQBVIDOM_Element@@@Z 120971d0 f   TraverseSchema.obj
 0001:00096310       ?preprocessRedefine@TraverseSchema@@AAEXQBVIDOM_Element@@@Z 12097310 f   TraverseSchema.obj
 0001:00096530       ?traverseRedefine@TraverseSchema@@AAEXQBVIDOM_Element@@@Z 12097530 f   TraverseSchema.obj
 0001:000965f0       ?traverseChoiceSequence@TraverseSchema@@AAEPAVContentSpecNode@@QBVIDOM_Element@@H@Z 120975f0 f   TraverseSchema.obj
 0001:00096a50       ?traverseSimpleTypeDecl@TraverseSchema@@AAEHQBVIDOM_Element@@H@Z 12097a50 f   TraverseSchema.obj
 0001:00097010       ?traverseComplexTypeDecl@TraverseSchema@@AAEHQBVIDOM_Element@@QBG@Z 12098010 f   TraverseSchema.obj
 0001:00097840       ?traverseGroupDecl@TraverseSchema@@AAEPAVXercesGroupInfo@@QBVIDOM_Element@@_N@Z 12098840 f   TraverseSchema.obj
 0001:000980c0       ?traverseAttributeGroupDecl@TraverseSchema@@AAEPAVXercesAttGroupInfo@@QBVIDOM_Element@@QAVComplexTypeInfo@@@Z 120990c0 f   TraverseSchema.obj
 0001:000987a0       ?traverseAttributeGroupDeclNS@TraverseSchema@@AAEPAVXercesAttGroupInfo@@QBG0@Z 120997a0 f i TraverseSchema.obj
 0001:000988d0       ?traverseAny@TraverseSchema@@AAEPAVContentSpecNode@@QBVIDOM_Element@@@Z 120998d0 f   TraverseSchema.obj
 0001:00098e00       ?traverseAll@TraverseSchema@@AAEPAVContentSpecNode@@QBVIDOM_Element@@@Z 12099e00 f   TraverseSchema.obj
 0001:000990c0       ?traverseAttributeDecl@TraverseSchema@@AAEXQBVIDOM_Element@@QAVComplexTypeInfo@@@Z 1209a0c0 f   TraverseSchema.obj
 0001:0009a380       ?traverseElementDecl@TraverseSchema@@AAEPAVQName@@QBVIDOM_Element@@AA_N@Z 1209b380 f   TraverseSchema.obj
 0001:0009c0a0       ?getImportingListEnumerator@SchemaInfo@@QBE?AV?$RefVectorEnumerator@VSchemaInfo@@@@XZ 1209d0a0 f i TraverseSchema.obj
 0001:0009c0d0       ?traverseNotationDecl@TraverseSchema@@AAEPBGQBVIDOM_Element@@@Z 1209d0d0 f   TraverseSchema.obj
 0001:0009c2b0       ?traverseNotationDecl@TraverseSchema@@AAEPBGQBG0@Z 1209d2b0 f   TraverseSchema.obj
 0001:0009c5e0       ?traverseByList@TraverseSchema@@AAEHQBVIDOM_Element@@0HH@Z 1209d5e0 f   TraverseSchema.obj
 0001:0009ca30       ?traverseByRestriction@TraverseSchema@@AAEHQBVIDOM_Element@@0HH@Z 1209da30 f   TraverseSchema.obj
 0001:0009d630       ?traverseByUnion@TraverseSchema@@AAEHQBVIDOM_Element@@0HHH@Z 1209e630 f   TraverseSchema.obj
 0001:0009dc60       ?traverseSimpleContentDecl@TraverseSchema@@AAEXQBGQBVIDOM_Element@@QAVComplexTypeInfo@@@Z 1209ec60 f   TraverseSchema.obj
 0001:0009ece0       ?traverseComplexContentDecl@TraverseSchema@@AAEXQBGQBVIDOM_Element@@QAVComplexTypeInfo@@_N@Z 1209fce0 f   TraverseSchema.obj
 0001:0009f160       ?traverseAnyAttribute@TraverseSchema@@AAEPAVSchemaAttDef@@QBVIDOM_Element@@@Z 120a0160 f   TraverseSchema.obj
 0001:0009f4e0       ?traverseKey@TraverseSchema@@AAEXQBVIDOM_Element@@QAVSchemaElementDecl@@@Z 120a04e0 f   TraverseSchema.obj
 0001:0009f880       ?traverseUnique@TraverseSchema@@AAEXQBVIDOM_Element@@QAVSchemaElementDecl@@@Z 120a0880 f   TraverseSchema.obj
 0001:0009fc20       ?traverseKeyRef@TraverseSchema@@AAEXQBVIDOM_Element@@QAVSchemaElementDecl@@I@Z 120a0c20 f   TraverseSchema.obj
 0001:000a00b0       ?traverseIdentityConstraint@TraverseSchema@@AAE_NQAVIdentityConstraint@@QBVIDOM_Element@@@Z 120a10b0 f   TraverseSchema.obj
 0001:000a09b0       ?retrieveNamespaceMapping@TraverseSchema@@AAEXQBVIDOM_Element@@@Z 120a19b0 f   TraverseSchema.obj
 0001:000a0b20       ?processChildren@TraverseSchema@@AAEXQBVIDOM_Element@@@Z 120a1b20 f   TraverseSchema.obj
 0001:000a16a0       ?preprocessChildren@TraverseSchema@@AAEXQBVIDOM_Element@@@Z 120a26a0 f   TraverseSchema.obj
 0001:000a1740       ?checkContent@TraverseSchema@@AAEPAVIDOM_Element@@QBV2@QAV2@_N@Z 120a2740 f   TraverseSchema.obj
 0001:000a1a20       ?getDatatypeValidator@TraverseSchema@@AAEPAVDatatypeValidator@@QBG0@Z 120a2a20 f   TraverseSchema.obj
 0001:000a1c60       ?getQualifiedName@TraverseSchema@@AAEPAGH@Z 120a2c60 f   TraverseSchema.obj
 0001:000a1cd0       ?checkForSimpleTypeValidator@TraverseSchema@@AAEPAVDatatypeValidator@@QBVIDOM_Element@@H@Z 120a2cd0 f   TraverseSchema.obj
 0001:000a1e80       ?checkForComplexTypeInfo@TraverseSchema@@AAEPAVComplexTypeInfo@@QBVIDOM_Element@@@Z 120a2e80 f   TraverseSchema.obj
 0001:000a1fc0       ?findDTValidator@TraverseSchema@@AAEPAVDatatypeValidator@@QBVIDOM_Element@@QBGH@Z 120a2fc0 f   TraverseSchema.obj
 0001:000a2260       ?resolvePrefixToURI@TraverseSchema@@AAEPBGQBG@Z 120a3260 f   TraverseSchema.obj
 0001:000a2350       ?resolvePrefixToURI@TraverseSchema@@AAEPBGQBGI@Z 120a3350 f   TraverseSchema.obj
 0001:000a2440       ?processElementDeclRef@TraverseSchema@@AAEPAVQName@@QBVIDOM_Element@@QBGAA_N@Z 120a3440 f   TraverseSchema.obj
 0001:000a2780       ?parseBlockSet@TraverseSchema@@AAEHQBGH@Z 120a3780 f   TraverseSchema.obj
 0001:000a2ab0       ?parseFinalSet@TraverseSchema@@AAEHQBGH@Z 120a3ab0 f   TraverseSchema.obj
 0001:000a2e90       ?checkIdentityConstraintContent@TraverseSchema@@AAEPBVIDOM_Element@@QBV2@@Z 120a3e90 f   TraverseSchema.obj
 0001:000a2ef0       ?isIdentityConstraintName@TraverseSchema@@AAE_NQBG@Z 120a3ef0 f   TraverseSchema.obj
 0001:000a2f40       ?checkTypeFromAnotherSchema@TraverseSchema@@AAEPBGQBG@Z 120a3f40 f   TraverseSchema.obj
 0001:000a30d0       ?getElementTypeValidator@TraverseSchema@@AAEPAVDatatypeValidator@@QBGAA_N0@Z 120a40d0 f   TraverseSchema.obj
 0001:000a3470       ?getElementComplexTypeInfo@TraverseSchema@@AAEPAVComplexTypeInfo@@QBGAA_N0@Z 120a4470 f   TraverseSchema.obj
 0001:000a38e0       ?getSubstituteGroupElemDecl@TraverseSchema@@AAEPAVSchemaElementDecl@@QBGAA_N@Z 120a48e0 f   TraverseSchema.obj
 0001:000a3db0       ?isSubstitutionGroupValid@TraverseSchema@@AAE_NQBVSchemaElementDecl@@QBVComplexTypeInfo@@QBVDatatypeValidator@@QBG_N@Z 120a4db0 f   TraverseSchema.obj
 0001:000a3fa0       ?createSchemaElementDecl@TraverseSchema@@AAEPAVSchemaElementDecl@@QBVIDOM_Element@@_NGAA_N1@Z 120a4fa0 f   TraverseSchema.obj
 0001:000a4240       ?processAttributeDeclRef@TraverseSchema@@AAEXQBVIDOM_Element@@QAVComplexTypeInfo@@QBG222@Z 120a5240 f   TraverseSchema.obj
 0001:000a4df0       ?checkMinMax@TraverseSchema@@AAEXQAVContentSpecNode@@QBVIDOM_Element@@H@Z 120a5df0 f   TraverseSchema.obj
 0001:000a5270       ?processComplexContent@TraverseSchema@@AAEXQBGQBVIDOM_Element@@QAVComplexTypeInfo@@000_N3@Z 120a6270 f   TraverseSchema.obj
 0001:000a5d30       ?processBaseTypeInfo@TraverseSchema@@AAEXQBG00QAVComplexTypeInfo@@@Z 120a6d30 f   TraverseSchema.obj
 0001:000a6380       ?getTypeInfoFromNS@TraverseSchema@@AAEPAVComplexTypeInfo@@QBG0@Z 120a7380 f   TraverseSchema.obj
 0001:000a64f0       ?isValidFacet@TraverseSchema@@AAE_NQBG0@Z 120a74f0 f   TraverseSchema.obj
 0001:000a6610       ?processAttributes@TraverseSchema@@AAEXQBVIDOM_Element@@QBG11QAVComplexTypeInfo@@_N@Z 120a7610 f   TraverseSchema.obj
 0001:000a6eb0       ?defaultComplexTypeInfo@TraverseSchema@@AAEXQAVComplexTypeInfo@@@Z 120a7eb0 f   TraverseSchema.obj
 0001:000a6ee0       ?resolveSchemaLocation@TraverseSchema@@AAEPAVInputSource@@QBG@Z 120a7ee0 f   TraverseSchema.obj
 0001:000a7020       ?restoreSchemaInfo@TraverseSchema@@AAEXQAVSchemaInfo@@W4ListType@2@@Z 120a8020 f   TraverseSchema.obj
 0001:000a7150       ?emptiableParticle@TraverseSchema@@AAE_NQBVContentSpecNode@@@Z 120a8150 f   TraverseSchema.obj
 0001:000a7170       ?getMinTotalRange@TraverseSchema@@AAEHQBVContentSpecNode@@@Z 120a8170 f   TraverseSchema.obj
 0001:000a7200       ?getMaxTotalRange@TraverseSchema@@AAEHQBVContentSpecNode@@@Z 120a8200 f   TraverseSchema.obj
 0001:000a72b0       ?checkFixedFacet@TraverseSchema@@AAEXQBVIDOM_Element@@QBGQBVDatatypeValidator@@AAI@Z 120a82b0 f   TraverseSchema.obj
 0001:000a7450       ?checkRefElementConsistency@TraverseSchema@@AAEXXZ 120a8450 f   TraverseSchema.obj
 0001:000a7760       ?buildValidSubstitutionListB@TraverseSchema@@AAEXQAVSchemaElementDecl@@0@Z 120a8760 f   TraverseSchema.obj
 0001:000a7a50       ?buildValidSubstitutionListF@TraverseSchema@@AAEXQAVSchemaElementDecl@@0@Z 120a8a50 f   TraverseSchema.obj
 0001:000a7d30       ?checkEnumerationRequiredNotation@TraverseSchema@@AAEXQBG0@Z 120a8d30 f   TraverseSchema.obj
 0001:000a7e40       ?processGroupRef@TraverseSchema@@AAEPAVXercesGroupInfo@@QBVIDOM_Element@@QBG_N@Z 120a8e40 f   TraverseSchema.obj
 0001:000a85c0       ?processAttributeGroupRef@TraverseSchema@@AAEPAVXercesAttGroupInfo@@QBVIDOM_Element@@QBGQAVComplexTypeInfo@@@Z 120a95c0 f   TraverseSchema.obj
 0001:000a8af0       ?hasAllContent@TraverseSchema@@AAE_NQBVContentSpecNode@@@Z 120a9af0 f   TraverseSchema.obj
 0001:000a8b20       ?processElements@TraverseSchema@@AAEXQAVComplexTypeInfo@@0@Z 120a9b20 f   TraverseSchema.obj
 0001:000a8d20       ?copyGroupElements@TraverseSchema@@AAEXQAVXercesGroupInfo@@0QAVComplexTypeInfo@@@Z 120a9d20 f   TraverseSchema.obj
 0001:000a8fa0       ?copyAttGroupAttributes@TraverseSchema@@AAEXQAVXercesAttGroupInfo@@0QAVComplexTypeInfo@@@Z 120a9fa0 f   TraverseSchema.obj
 0001:000a9360       ?attWildCardIntersection@TraverseSchema@@AAEXQAVSchemaAttDef@@QBV2@@Z 120aa360 f   TraverseSchema.obj
 0001:000a9700       ?attWildCardUnion@TraverseSchema@@AAEXQAVSchemaAttDef@@QBV2@@Z 120aa700 f   TraverseSchema.obj
 0001:000a9a20       ?checkAttDerivationOK@TraverseSchema@@AAEXQBVComplexTypeInfo@@0@Z 120aaa20 f   TraverseSchema.obj
 0001:000a9dc0       ?checkAttDerivationOK@TraverseSchema@@AAEXQBVXercesAttGroupInfo@@0@Z 120aadc0 f   TraverseSchema.obj
 0001:000aa1e0       ?wildcardAllowsNamespace@TraverseSchema@@AAE_NQBVSchemaAttDef@@I@Z 120ab1e0 f   TraverseSchema.obj
 0001:000aa240       ?isWildCardSubset@TraverseSchema@@AAE_NQBVSchemaAttDef@@0@Z 120ab240 f   TraverseSchema.obj
 0001:000aa360       ?openRedefinedSchema@TraverseSchema@@AAE_NQBVIDOM_Element@@@Z 120ab360 f   TraverseSchema.obj
 0001:000aaa00       ?renameRedefinedComponents@TraverseSchema@@AAEXQBVIDOM_Element@@QAVSchemaInfo@@1@Z 120aba00 f   TraverseSchema.obj
 0001:000aabb0       ?addFailedRedefine@SchemaInfo@@QAEXQBVIDOM_Element@@@Z 120abbb0 f i TraverseSchema.obj
 0001:000aacc0       ?validateRedefineNameChange@TraverseSchema@@AAE_NQBVIDOM_Element@@QBG1HQAVSchemaInfo@@@Z 120abcc0 f   TraverseSchema.obj
 0001:000ab660       ?changeRedefineGroup@TraverseSchema@@AAEHQBVIDOM_Element@@QBG1H@Z 120ac660 f   TraverseSchema.obj
 0001:000ab9a0       ?fixRedefinedSchema@TraverseSchema@@AAEXQAVSchemaInfo@@QBG1H@Z 120ac9a0 f   TraverseSchema.obj
 0001:000abd80       ?checkParticleDerivation@TraverseSchema@@AAEXXZ 120acd80 f   TraverseSchema.obj
 0001:000abfb0       ?checkParticleDerivationOk@TraverseSchema@@AAEXQAVContentSpecNode@@H0HQBVComplexTypeInfo@@@Z 120acfb0 f   TraverseSchema.obj
 0001:000ac8b0       ??0ContentSpecNode@@QAE@W4NodeTypes@0@QAV0@1_N2@Z 120ad8b0 f i TraverseSchema.obj
 0001:000ac8f0       ?checkForPointlessOccurrences@TraverseSchema@@AAEPAVContentSpecNode@@QAV2@W4NodeTypes@2@QAV?$ValueVectorOf@PAVContentSpecNode@@@@@Z 120ad8f0 f   TraverseSchema.obj
 0001:000ac970       ?gatherChildren@TraverseSchema@@AAEXW4NodeTypes@ContentSpecNode@@QAV3@QAV?$ValueVectorOf@PAVContentSpecNode@@@@@Z 120ad970 f   TraverseSchema.obj
 0001:000acb80       ?checkNSCompat@TraverseSchema@@AAEXQBVContentSpecNode@@0@Z 120adb80 f   TraverseSchema.obj
 0001:000acc40       ?wildcardEltAllowsNamespace@TraverseSchema@@AAE_NQBVContentSpecNode@@I@Z 120adc40 f   TraverseSchema.obj
 0001:000acc80       ?checkNameAndTypeOK@TraverseSchema@@AAEXQBVContentSpecNode@@H0HQBVComplexTypeInfo@@@Z 120adc80 f   TraverseSchema.obj
 0001:000acf00       ?findElement@TraverseSchema@@AAEPAVSchemaElementDecl@@HIQBGQAVSchemaGrammar@@QBVComplexTypeInfo@@@Z 120adf00 f   TraverseSchema.obj
 0001:000acf60       ?checkICRestriction@TraverseSchema@@AAEXQBVSchemaElementDecl@@0QBG1@Z 120adf60 f   TraverseSchema.obj
 0001:000ad0c0       ?checkTypesOK@TraverseSchema@@AAEXQBVSchemaElementDecl@@0QBG@Z 120ae0c0 f   TraverseSchema.obj
 0001:000ad230       ?checkRecurseAsIfGroup@TraverseSchema@@AAEXQAVContentSpecNode@@HQBV2@HQAV?$ValueVectorOf@PAVContentSpecNode@@@@QBVComplexTypeInfo@@@Z 120ae230 f   TraverseSchema.obj
 0001:000ad400       ?checkRecurse@TraverseSchema@@AAEXQBVContentSpecNode@@HQAV?$ValueVectorOf@PAVContentSpecNode@@@@0H1QBVComplexTypeInfo@@_N@Z 120ae400 f   TraverseSchema.obj
 0001:000ad6e0       ?checkNSSubset@TraverseSchema@@AAEXQBVContentSpecNode@@0@Z 120ae6e0 f   TraverseSchema.obj
 0001:000ad770       ?isWildCardEltSubset@TraverseSchema@@AAE_NQBVContentSpecNode@@0@Z 120ae770 f   TraverseSchema.obj
 0001:000ad7e0       ?checkNSRecurseCheckCardinality@TraverseSchema@@AAEXQBVContentSpecNode@@QAV?$ValueVectorOf@PAVContentSpecNode@@@@HQAV2@@Z 120ae7e0 f   TraverseSchema.obj
 0001:000ad8a0       ?checkRecurseUnordered@TraverseSchema@@AAEXQBVContentSpecNode@@QAV?$ValueVectorOf@PAVContentSpecNode@@@@HQAV2@1HQBVComplexTypeInfo@@@Z 120ae8a0 f   TraverseSchema.obj
 0001:000adb80       ?checkMapAndSum@TraverseSchema@@AAEXQBVContentSpecNode@@QAV?$ValueVectorOf@PAVContentSpecNode@@@@HQAV2@1HQBVComplexTypeInfo@@@Z 120aeb80 f   TraverseSchema.obj
 0001:000adda0       ?reportSchemaError@TraverseSchema@@AAEXQBGH@Z 120aeda0 f   TraverseSchema.obj
 0001:000ade10       ?reportSchemaError@TraverseSchema@@AAEXQBGH0000@Z 120aee10 f   TraverseSchema.obj
 0001:000adeb0       ?init@TraverseSchema@@AAEXXZ 120aeeb0 f   TraverseSchema.obj
 0001:000ae200       ?cleanUp@TraverseSchema@@AAEXXZ 120af200 f   TraverseSchema.obj
 0001:000ae3f0       ??0?$ValueVectorOf@I@@QAE@ABV0@@Z 120af3f0 f i TraverseSchema.obj
 0001:000ae440       ??0?$ValueVectorOf@PAVDatatypeValidator@@@@QAE@I@Z 120af440 f i TraverseSchema.obj
 0001:000ae440       ??0?$ValueVectorOf@PAVContentSpecNode@@@@QAE@I@Z 120af440 f i TraverseSchema.obj
 0001:000ae440       ??0?$ValueVectorOf@I@@QAE@I@Z 120af440 f i TraverseSchema.obj
 0001:000ae440       ??0?$ValueVectorOf@PAVSchemaElementDecl@@@@QAE@I@Z 120af440 f i TraverseSchema.obj
 0001:000ae440       ??0?$ValueVectorOf@PAVIDOM_Element@@@@QAE@I@Z 120af440 f i TraverseSchema.obj
 0001:000ae440       ??0?$ValueVectorOf@H@@QAE@I@Z 120af440 f i TraverseSchema.obj
 0001:000ae470       ??4?$ValueVectorOf@I@@QAEAAV0@ABV0@@Z 120af470 f i TraverseSchema.obj
 0001:000ae4d0       ?addElement@?$ValueVectorOf@PAVDatatypeValidator@@@@QAEXABQAVDatatypeValidator@@@Z 120af4d0 f i TraverseSchema.obj
 0001:000ae4d0       ?addElement@?$ValueVectorOf@PAVContentSpecNode@@@@QAEXABQAVContentSpecNode@@@Z 120af4d0 f i TraverseSchema.obj
 0001:000ae4d0       ?addElement@?$ValueVectorOf@H@@QAEXABH@Z 120af4d0 f i TraverseSchema.obj
 0001:000ae4d0       ?addElement@?$ValueVectorOf@PAVIC_Field@@@@QAEXABQAVIC_Field@@@Z 120af4d0 f i TraverseSchema.obj
 0001:000ae4d0       ?addElement@?$ValueVectorOf@I@@QAEXABI@Z 120af4d0 f i TraverseSchema.obj
 0001:000ae4d0       ?addElement@?$ValueVectorOf@PAVSchemaElementDecl@@@@QAEXABQAVSchemaElementDecl@@@Z 120af4d0 f i TraverseSchema.obj
 0001:000ae4d0       ?addElement@?$ValueVectorOf@PAVIDOM_Element@@@@QAEXABQAVIDOM_Element@@@Z 120af4d0 f i TraverseSchema.obj
 0001:000ae570       ??1?$RefVectorEnumerator@VSchemaInfo@@@@QAE@XZ 120af570 f i TraverseSchema.obj
 0001:000ae5d0       ?hasMoreElements@?$RefVectorEnumerator@VSchemaInfo@@@@UBE_NXZ 120af5d0 f i TraverseSchema.obj
 0001:000ae5e0       ?nextElement@?$RefVectorEnumerator@VSchemaInfo@@@@UAEAAVSchemaInfo@@XZ 120af5e0 f i TraverseSchema.obj
 0001:000ae630       ?Reset@?$RefVectorEnumerator@VSchemaInfo@@@@UAEXXZ 120af630 f i TraverseSchema.obj
 0001:000ae630       ?Reset@?$RefHash3KeysIdPoolEnumerator@VSchemaElementDecl@@@@UAEXXZ 120af630 f i TraverseSchema.obj
 0001:000ae640       ??0?$RefVectorOf@VAttributeInfo@@@@QAE@I_N@Z 120af640 f i TraverseSchema.obj
 0001:000ae640       ??0?$RefVectorOf@VSchemaAttDef@@@@QAE@I_N@Z 120af640 f i TraverseSchema.obj
 0001:000ae640       ??0?$RefVectorOf@VIdentityConstraint@@@@QAE@I_N@Z 120af640 f i TraverseSchema.obj
 0001:000ae640       ??0?$RefVectorOf@VIC_Field@@@@QAE@I_N@Z 120af640 f i TraverseSchema.obj
 0001:000ae640       ??0?$RefVectorOf@VSchemaElementDecl@@@@QAE@I_N@Z 120af640 f i TraverseSchema.obj
 0001:000ae640       ??0?$RefVectorOf@VSchemaInfo@@@@QAE@I_N@Z 120af640 f i TraverseSchema.obj
 0001:000ae640       ??0?$RefVectorOf@G@@QAE@I_N@Z 120af640 f i TraverseSchema.obj
 0001:000ae690       ?containsElement@?$RefVectorOf@VSchemaInfo@@@@QAE_NQBVSchemaInfo@@@Z 120af690 f i TraverseSchema.obj
 0001:000ae6c0       ?containsElement@?$ValueVectorOf@I@@QAE_NABII@Z 120af6c0 f i TraverseSchema.obj
 0001:000ae6c0       ?containsElement@?$ValueVectorOf@H@@QAE_NABHI@Z 120af6c0 f i TraverseSchema.obj
 0001:000ae6f0       ?addElement@?$RefVectorOf@VAttributeInfo@@@@QAEXQAVAttributeInfo@@@Z 120af6f0 f i TraverseSchema.obj
 0001:000ae6f0       ?addElement@?$RefVectorOf@G@@QAEXQAG@Z 120af6f0 f i TraverseSchema.obj
 0001:000ae6f0       ?addElement@?$RefVectorOf@VIdentityConstraint@@@@QAEXQAVIdentityConstraint@@@Z 120af6f0 f i TraverseSchema.obj
 0001:000ae6f0       ?addElement@?$RefVectorOf@VSchemaElementDecl@@@@QAEXQAVSchemaElementDecl@@@Z 120af6f0 f i TraverseSchema.obj
 0001:000ae6f0       ?addElement@?$RefVectorOf@VSchemaInfo@@@@QAEXQAVSchemaInfo@@@Z 120af6f0 f i TraverseSchema.obj
 0001:000ae6f0       ?addElement@?$RefVectorOf@VXMLNumber@@@@QAEXQAVXMLNumber@@@Z 120af6f0 f i TraverseSchema.obj
 0001:000ae6f0       ?addElement@?$RefVectorOf@VSchemaAttDef@@@@QAEXQAVSchemaAttDef@@@Z 120af6f0 f i TraverseSchema.obj
 0001:000ae770       ??1?$RefVectorOf@VQName@@@@QAE@XZ 120af770 f i TraverseSchema.obj
 0001:000ae7c0       ??0?$RefHashTableOf@V?$ValueVectorOf@PAVSchemaElementDecl@@@@@@QAE@I@Z 120af7c0 f i TraverseSchema.obj
 0001:000ae8a0       ?get@?$RefHashTableOf@V?$ValueVectorOf@PAVSchemaElementDecl@@@@@@QAEPAV?$ValueVectorOf@PAVSchemaElementDecl@@@@QBX@Z 120af8a0 f i TraverseSchema.obj
 0001:000ae8a0       ?get@?$RefHashTableOf@VComplexTypeInfo@@@@QAEPAVComplexTypeInfo@@QBX@Z 120af8a0 f i TraverseSchema.obj
 0001:000ae8a0       ?get@?$RefHashTableOf@VXercesAttGroupInfo@@@@QAEPAVXercesAttGroupInfo@@QBX@Z 120af8a0 f i TraverseSchema.obj
 0001:000ae8a0       ?get@?$RefHashTableOf@VDatatypeValidator@@@@QAEPAVDatatypeValidator@@QBX@Z 120af8a0 f i TraverseSchema.obj
 0001:000ae8a0       ?get@?$RefHashTableOf@V?$ValueVectorOf@I@@@@QAEPAV?$ValueVectorOf@I@@QBX@Z 120af8a0 f i TraverseSchema.obj
 0001:000ae930       ?put@?$RefHashTableOf@V?$ValueVectorOf@PAVSchemaElementDecl@@@@@@QAEXPAXQAV?$ValueVectorOf@PAVSchemaElementDecl@@@@@Z 120af930 f i TraverseSchema.obj
 0001:000aea40       ??0?$RefHashTableOf@V?$ValueVectorOf@I@@@@QAE@I@Z 120afa40 f i TraverseSchema.obj
 0001:000aeb20       ?put@?$RefHashTableOf@V?$ValueVectorOf@I@@@@QAEXPAXQAV?$ValueVectorOf@I@@@Z 120afb20 f i TraverseSchema.obj
 0001:000aec30       ??0?$RefHashTableOf@V?$ValueVectorOf@PAVIDOM_Element@@@@@@QAE@I_NPAVHashBase@@@Z 120afc30 f i TraverseSchema.obj
 0001:000aecb0       ??1?$RefHashTableOf@V?$ValueVectorOf@I@@@@QAE@XZ 120afcb0 f i TraverseSchema.obj
 0001:000aecb0       ??1?$RefHash2KeysTableOf@V?$ValueVectorOf@PAVSchemaElementDecl@@@@@@QAE@XZ 120afcb0 f i TraverseSchema.obj
 0001:000aecb0       ??1?$RefHashTableOf@V?$ValueVectorOf@PAVIDOM_Element@@@@@@QAE@XZ 120afcb0 f i TraverseSchema.obj
 0001:000aed40       ?put@?$RefHashTableOf@V?$ValueVectorOf@PAVIDOM_Element@@@@@@QAEXPAXQAV?$ValueVectorOf@PAVIDOM_Element@@@@@Z 120afd40 f i TraverseSchema.obj
 0001:000aee50       ?put@?$RefHashTableOf@VXMLAttDef@@@@QAEXPAXQAVXMLAttDef@@@Z 120afe50 f i TraverseSchema.obj
 0001:000aef50       ??1?$RefHash2KeysTableOf@VSchemaInfo@@@@QAE@XZ 120aff50 f i TraverseSchema.obj
 0001:000aef50       ??1?$RefHashTableOf@VSchemaInfo@@@@QAE@XZ 120aff50 f i TraverseSchema.obj
 0001:000aefe0       ?put@?$RefHashTableOf@VSchemaInfo@@@@QAEXPAXQAVSchemaInfo@@@Z 120affe0 f i TraverseSchema.obj
 0001:000af0f0       ??1?$Janitor@V?$RefVectorOf@VQName@@@@@@QAE@XZ 120b00f0 f i TraverseSchema.obj
 0001:000af160       ??1?$Janitor@V?$ValueVectorOf@H@@@@QAE@XZ 120b0160 f i TraverseSchema.obj
 0001:000af190       ?get@?$RefHash2KeysTableOf@G@@QAEPAGQBXH@Z 120b0190 f i TraverseSchema.obj
 0001:000af190       ?get@?$RefHash2KeysTableOf@VSchemaAttDef@@@@QAEPAVSchemaAttDef@@QBXH@Z 120b0190 f i TraverseSchema.obj
 0001:000af230       ?put@?$RefHash2KeysTableOf@G@@QAEXPAXHQAG@Z 120b0230 f i TraverseSchema.obj
 0001:000af350       ??1?$Janitor@VQName@@@@QAE@XZ 120b0350 f i TraverseSchema.obj
 0001:000af380       ?removeElementAt@?$ValueVectorOf@I@@QAEXI@Z 120b0380 f i TraverseSchema.obj
 0001:000af380       ?removeElementAt@?$ValueVectorOf@H@@QAEXI@Z 120b0380 f i TraverseSchema.obj
 0001:000af380       ?removeElementAt@?$ValueVectorOf@PBG@@QAEXI@Z 120b0380 f i TraverseSchema.obj
 0001:000af3e0       ??1?$Janitor@V?$RefVectorOf@VDatatypeValidator@@@@@@QAE@XZ 120b03e0 f i TraverseSchema.obj
 0001:000af440       ??1?$RefHash2KeysTableOf@VSchemaElementDecl@@@@QAE@XZ 120b0440 f i TraverseSchema.obj
 0001:000af440       ??1?$RefHash2KeysTableOf@VIdentityConstraint@@@@QAE@XZ 120b0440 f i TraverseSchema.obj
 0001:000af4b0       ?containsKey@?$RefHash2KeysTableOf@VIdentityConstraint@@@@QBE_NQBXH@Z 120b04b0 f i TraverseSchema.obj
 0001:000af530       ?put@?$RefHash2KeysTableOf@VIdentityConstraint@@@@QAEXPAXHQAVIdentityConstraint@@@Z 120b0530 f i TraverseSchema.obj
 0001:000af650       ??1?$Janitor@VRegxParser@@@@QAE@XZ 120b0650 f i TraverseSchema.obj
 0001:000af650       ??1?$Janitor@VInputSource@@@@QAE@XZ 120b0650 f i TraverseSchema.obj
 0001:000af650       ??1?$Janitor@VDTDEntityDecl@@@@QAE@XZ 120b0650 f i TraverseSchema.obj
 0001:000af650       ??1?$Janitor@VXMLDateTime@@@@QAE@XZ 120b0650 f i TraverseSchema.obj
 0001:000af650       ??1?$Janitor@VIC_KeyRef@@@@QAE@XZ 120b0650 f i TraverseSchema.obj
 0001:000af650       ??1?$Janitor@VXMLBigDecimal@@@@QAE@XZ 120b0650 f i TraverseSchema.obj
 0001:000af650       ??1?$Janitor@VIC_Unique@@@@QAE@XZ 120b0650 f i TraverseSchema.obj
 0001:000af650       ??1?$Janitor@VSchemaAttDef@@@@QAE@XZ 120b0650 f i TraverseSchema.obj
 0001:000af650       ??1?$Janitor@VXMLDouble@@@@QAE@XZ 120b0650 f i TraverseSchema.obj
 0001:000af650       ??1?$Janitor@VDTDElementDecl@@@@QAE@XZ 120b0650 f i TraverseSchema.obj
 0001:000af650       ??1?$Janitor@VIC_Key@@@@QAE@XZ 120b0650 f i TraverseSchema.obj
 0001:000af650       ??1?$Janitor@VXMLFloat@@@@QAE@XZ 120b0650 f i TraverseSchema.obj
 0001:000af670       ??1?$ValueStackOf@H@@QAE@XZ 120b0670 f i TraverseSchema.obj
 0001:000af670       ??1?$ValueVectorOf@I@@QAE@XZ 120b0670 f i TraverseSchema.obj
 0001:000af670       ??1?$ValueVectorOf@PAVContentSpecNode@@@@QAE@XZ 120b0670 f i TraverseSchema.obj
 0001:000af670       ??1?$ValueVectorOf@_N@@QAE@XZ 120b0670 f i TraverseSchema.obj
 0001:000af670       ??1?$ValueVectorOf@PAVQName@@@@QAE@XZ 120b0670 f i TraverseSchema.obj
 0001:000af670       ??1?$ValueVectorOf@W4NodeTypes@ContentSpecNode@@@@QAE@XZ 120b0670 f i TraverseSchema.obj
 0001:000af670       ??1?$ValueVectorOf@H@@QAE@XZ 120b0670 f i TraverseSchema.obj
 0001:000af670       ??1?$ValueVectorOf@PAVXercesAttGroupInfo@@@@QAE@XZ 120b0670 f i TraverseSchema.obj
 0001:000af680       ??1?$ArrayJanitor@G@@QAE@XZ 120b0680 f i TraverseSchema.obj
 0001:000af680       ??1?$ArrayJanitor@_N@@QAE@XZ 120b0680 f i TraverseSchema.obj
 0001:000af680       ??1?$ArrayJanitor@E@@QAE@XZ 120b0680 f i TraverseSchema.obj
 0001:000af680       ??1?$ArrayJanitor@D@@QAE@XZ 120b0680 f i TraverseSchema.obj
 0001:000af6a0       ??_G?$RefVectorOf@VSchemaInfo@@@@QAEPAXI@Z 120b06a0 f i TraverseSchema.obj
 0001:000af700       ??_G?$ValueVectorOf@PAVSchemaElementDecl@@@@QAEPAXI@Z 120b0700 f i TraverseSchema.obj
 0001:000af730       ??_GXercesGroupInfo@@QAEPAXI@Z 120b0730 f i TraverseSchema.obj
 0001:000af750       ??_GXercesAttGroupInfo@@QAEPAXI@Z 120b0750 f i TraverseSchema.obj
 0001:000af770       ??_GSchemaInfo@@QAEPAXI@Z  120b0770 f i TraverseSchema.obj
 0001:000af790       ??0?$RefHash2KeysTableBucketElem@V?$ValueVectorOf@PAVSchemaElementDecl@@@@@@QAE@PAXHQAV?$ValueVectorOf@PAVSchemaElementDecl@@@@PAU0@@Z 120b0790 f i TraverseSchema.obj
 0001:000af790       ??0?$RefHash2KeysTableBucketElem@VSchemaElementDecl@@@@QAE@PAXHQAVSchemaElementDecl@@PAU0@@Z 120b0790 f i TraverseSchema.obj
 0001:000af790       ??0?$RefHash2KeysTableBucketElem@V?$RefVectorOf@VAttributeInfo@@@@@@QAE@PAXHQAV?$RefVectorOf@VAttributeInfo@@@@PAU0@@Z 120b0790 f i TraverseSchema.obj
 0001:000af790       ??0?$RefHash2KeysTableBucketElem@VSchemaInfo@@@@QAE@PAXHQAVSchemaInfo@@PAU0@@Z 120b0790 f i TraverseSchema.obj
 0001:000af790       ??0?$RefHash2KeysTableBucketElem@VIdentityConstraint@@@@QAE@PAXHQAVIdentityConstraint@@PAU0@@Z 120b0790 f i TraverseSchema.obj
 0001:000af7b0       ?removeAll@?$RefHashTableOf@V?$ValueVectorOf@PAVSchemaElementDecl@@@@@@QAEXXZ 120b07b0 f i TraverseSchema.obj
 0001:000af820       ?findBucketElem@?$RefHash2KeysTableOf@G@@ABEPBU?$RefHash2KeysTableBucketElem@G@@QBXHAAI@Z 120b0820 f i TraverseSchema.obj
 0001:000af820       ?findBucketElem@?$RefHash2KeysTableOf@VIdentityConstraint@@@@ABEPBU?$RefHash2KeysTableBucketElem@VIdentityConstraint@@@@QBXHAAI@Z 120b0820 f i TraverseSchema.obj
 0001:000af8b0       ?reset@?$Janitor@V?$RefVectorOf@VDatatypeValidator@@@@@@QAEXPAV?$RefVectorOf@VDatatypeValidator@@@@@Z 120b08b0 f i TraverseSchema.obj
 0001:000af910       ?reset@?$Janitor@VIC_Unique@@@@QAEXPAVIC_Unique@@@Z 120b0910 f i TraverseSchema.obj
 0001:000af910       ?reset@?$Janitor@VIC_Key@@@@QAEXPAVIC_Key@@@Z 120b0910 f i TraverseSchema.obj
 0001:000af910       ?reset@?$Janitor@VInputSource@@@@QAEXPAVInputSource@@@Z 120b0910 f i TraverseSchema.obj
 0001:000af910       ?reset@?$Janitor@VIC_KeyRef@@@@QAEXPAVIC_KeyRef@@@Z 120b0910 f i TraverseSchema.obj
 0001:000af940       ??0XercesAttGroupInfo@@QAE@XZ 120b0940 f   XercesAttGroupInfo.obj
 0001:000af950       ??1XercesAttGroupInfo@@QAE@XZ 120b0950 f   XercesAttGroupInfo.obj
 0001:000af9f0       ?containsAttribute@XercesAttGroupInfo@@QAE_NQBGI@Z 120b09f0 f   XercesAttGroupInfo.obj
 0001:000afa80       ?getAttDef@XercesAttGroupInfo@@QBEPBVSchemaAttDef@@QBGH@Z 120b0a80 f   XercesAttGroupInfo.obj
 0001:000afb10       ?conflict@XercesElementWildcard@@SA_NQAVSchemaGrammar@@W4NodeTypes@ContentSpecNode@@PAVQName@@12PAVSubstitutionGroupComparator@@@Z 120b0b10 f   XercesElementWildcard.obj
 0001:000afc60       ?uriInWildcard@XercesElementWildcard@@CA_NQAVSchemaGrammar@@PAVQName@@IW4NodeTypes@ContentSpecNode@@PAVSubstitutionGroupComparator@@@Z 120b0c60 f   XercesElementWildcard.obj
 0001:000afca0       ?wildcardIntersect@XercesElementWildcard@@CA_NW4NodeTypes@ContentSpecNode@@I0I@Z 120b0ca0 f   XercesElementWildcard.obj
 0001:000afd00       ??0XercesGroupInfo@@QAE@XZ 120b0d00 f   XercesGroupInfo.obj
 0001:000afda0       ??1XercesGroupInfo@@QAE@XZ 120b0da0 f   XercesGroupInfo.obj
 0001:000afe40       ?copyInto@XUtil@@SAXABVDOM_Node@@AAV2@@Z 120b0e40 f   XUtil.obj
 0001:000b0560       ?getChildText@XUtil@@SA?AVDOMString@@ABVDOM_Node@@@Z 120b1560 f   XUtil.obj
 0001:000b06e0       ?getFirstChildElement@XUtil@@SA?AVDOM_Element@@ABVDOM_Node@@@Z 120b16e0 f   XUtil.obj
 0001:000b07c0       ?getFirstChildElement@XUtil@@SAPAVIDOM_Element@@QBVIDOM_Node@@@Z 120b17c0 f   XUtil.obj
 0001:000b0800       ?getFirstChildElement@XUtil@@SA?AVDOM_Element@@ABVDOM_Node@@QBG@Z 120b1800 f   XUtil.obj
 0001:000b0930       ?getFirstChildElement@XUtil@@SA?AVDOM_Element@@ABVDOM_Node@@QAPBGI@Z 120b1930 f   XUtil.obj
 0001:000b0a70       ?getFirstChildElement@XUtil@@SA?AVDOM_Element@@ABVDOM_Node@@QBG11@Z 120b1a70 f   XUtil.obj
 0001:000b0c40       ?getFirstChildElementNS@XUtil@@SA?AVDOM_Element@@ABVDOM_Node@@QAPBGQBGI@Z 120b1c40 f   XUtil.obj
 0001:000b0dd0       ?getFirstChildElementNS@XUtil@@SAPAVIDOM_Element@@QBVIDOM_Node@@QAPBGQBGI@Z 120b1dd0 f   XUtil.obj
 0001:000b0e60       ?getLastChildElement@XUtil@@SA?AVDOM_Element@@ABVDOM_Node@@@Z 120b1e60 f   XUtil.obj
 0001:000b0f40       ?getLastChildElement@XUtil@@SA?AVDOM_Element@@ABVDOM_Node@@QBG@Z 120b1f40 f   XUtil.obj
 0001:000b1070       ?getLastChildElement@XUtil@@SA?AVDOM_Element@@ABVDOM_Node@@QAPBGI@Z 120b2070 f   XUtil.obj
 0001:000b11b0       ?getLastChildElement@XUtil@@SA?AVDOM_Element@@ABVDOM_Node@@QBG11@Z 120b21b0 f   XUtil.obj
 0001:000b1380       ?getNextSiblingElement@XUtil@@SA?AVDOM_Element@@ABVDOM_Node@@@Z 120b2380 f   XUtil.obj
 0001:000b1460       ?getNextSiblingElement@XUtil@@SAPAVIDOM_Element@@QBVIDOM_Node@@@Z 120b2460 f   XUtil.obj
 0001:000b14a0       ?getNextSiblingElement@XUtil@@SA?AVDOM_Element@@ABVDOM_Node@@QBG@Z 120b24a0 f   XUtil.obj
 0001:000b15d0       ?getNextSiblingElement@XUtil@@SA?AVDOM_Element@@ABVDOM_Node@@QAPBGI@Z 120b25d0 f   XUtil.obj
 0001:000b1710       ?getNextSiblingElement@XUtil@@SA?AVDOM_Element@@ABVDOM_Node@@QBG11@Z 120b2710 f   XUtil.obj
 0001:000b18e0       ?getNextSiblingElementNS@XUtil@@SA?AVDOM_Element@@ABVDOM_Node@@QAPBGQBGI@Z 120b28e0 f   XUtil.obj
 0001:000b1a70       ?getNextSiblingElementNS@XUtil@@SAPAVIDOM_Element@@QBVIDOM_Node@@QAPBGQBGI@Z 120b2a70 f   XUtil.obj
 0001:000b1b00       ?createXMLReader@XMLReaderFactory@@SAPAVSAX2XMLReader@@XZ 120b2b00 f i sax2Dummy.obj
 0001:000b1b60       ?createXMLReader@XMLReaderFactory@@SAPAVSAX2XMLReader@@PBG@Z 120b2b60 f i sax2Dummy.obj
 0001:000b1b80       ??0DefaultHandler@@QAE@XZ  120b2b80 f i sax2Dummy.obj
 0001:000b1bd0       ??1DefaultHandler@@UAE@XZ  120b2bd0 f i sax2Dummy.obj
 0001:000b1c40       ??_EDefaultHandler@@UAEPAXI@Z 120b2c40 f i sax2Dummy.obj
 0001:000b1ca0       ?attributeDecl@DefaultHandler@@UAEXQBG0000@Z 120b2ca0 f i sax2Dummy.obj
 0001:000b1cb0       ??_EDefaultHandler@@W3AEPAXI@Z 120b2cb0 f i sax2Dummy.obj
 0001:000b1cc0       ??_EDefaultHandler@@W7AEPAXI@Z 120b2cc0 f i sax2Dummy.obj
 0001:000b1cd0       ??_EDefaultHandler@@WM@AEPAXI@Z 120b2cd0 f i sax2Dummy.obj
 0001:000b1ce0       ??_EDefaultHandler@@WBA@AEPAXI@Z 120b2ce0 f i sax2Dummy.obj
 0001:000b1cf0       ??_EDefaultHandler@@WBE@AEPAXI@Z 120b2cf0 f i sax2Dummy.obj
 0001:000b1d00       ??0IDAttrImpl@@QAE@PAVIDOM_Document@@PBG@Z 120b2d00 f   IDAttrImpl.obj
 0001:000b1d90       ??_EIDAttrImpl@@UAEPAXI@Z  120b2d90 f i IDAttrImpl.obj
 0001:000b1df0       ??0IDAttrImpl@@QAE@ABV0@_N@Z 120b2df0 f   IDAttrImpl.obj
 0001:000b1eb0       ??1IDAttrImpl@@UAE@XZ      120b2eb0 f   IDAttrImpl.obj
 0001:000b1f10       ?cloneNode@IDAttrImpl@@UBEPAVIDOM_Node@@_N@Z 120b2f10 f   IDAttrImpl.obj
 0001:000b1f80       ?getNodeValue@IDAttrImpl@@UBEPBGXZ 120b2f80 f   IDAttrImpl.obj
 0001:000b1f90       ?getSpecified@IDAttrImpl@@UBE_NXZ 120b2f90 f   IDAttrImpl.obj
 0001:000b1fb0       ?getValue@IDAttrImpl@@UBEPBGXZ 120b2fb0 f   IDAttrImpl.obj
 0001:000b20a0       ?setNodeValue@IDAttrImpl@@UAEXPBG@Z 120b30a0 f   IDAttrImpl.obj
 0001:000b20b0       ?setSpecified@IDAttrImpl@@UAEX_N@Z 120b30b0 f   IDAttrImpl.obj
 0001:000b20f0       ?setValue@IDAttrImpl@@UAEXPBG@Z 120b30f0 f   IDAttrImpl.obj
 0001:000b21a0       ?getOwnerElement@IDAttrImpl@@UBEPAVIDOM_Element@@XZ 120b31a0 f   IDAttrImpl.obj
 0001:000b21c0       ?setOwnerElement@IDAttrImpl@@QAEXPAVIDOM_Element@@@Z 120b31c0 f   IDAttrImpl.obj
 0001:000b21e0       ?getOwnerDocument@IDElementImpl@@UBEPAVIDOM_Document@@XZ 120b31e0 f   IDAttrImpl.obj
 0001:000b21e0       ?getOwnerDocument@IDEntityReferenceImpl@@UBEPAVIDOM_Document@@XZ 120b31e0 f   IDAttrImpl.obj
 0001:000b21e0       ?getOwnerDocument@IDCDATASectionImpl@@UBEPAVIDOM_Document@@XZ 120b31e0 f   IDAttrImpl.obj
 0001:000b21e0       ?getOwnerDocument@IDCommentImpl@@UBEPAVIDOM_Document@@XZ 120b31e0 f   IDAttrImpl.obj
 0001:000b21e0       ?getOwnerDocument@IDTextImpl@@UBEPAVIDOM_Document@@XZ 120b31e0 f   IDAttrImpl.obj
 0001:000b21e0       ?getOwnerDocument@IDDocumentFragmentImpl@@UBEPAVIDOM_Document@@XZ 120b31e0 f   IDAttrImpl.obj
 0001:000b21e0       ?getOwnerDocument@IDNotationImpl@@UBEPAVIDOM_Document@@XZ 120b31e0 f   IDAttrImpl.obj
 0001:000b21e0       ?getOwnerDocument@IDEntityImpl@@UBEPAVIDOM_Document@@XZ 120b31e0 f   IDAttrImpl.obj
 0001:000b21e0       ?getOwnerDocument@IDProcessingInstructionImpl@@UBEPAVIDOM_Document@@XZ 120b31e0 f   IDAttrImpl.obj
 0001:000b21e0       ?getOwnerDocument@IDAttrImpl@@UBEPAVIDOM_Document@@XZ 120b31e0 f   IDAttrImpl.obj
 0001:000b21e0       ?getOwnerDocument@IDDocumentTypeImpl@@UBEPAVIDOM_Document@@XZ 120b31e0 f   IDAttrImpl.obj
 0001:000b21f0       ?normalize@IDEntityImpl@@UAEXXZ 120b31f0 f   IDAttrImpl.obj
 0001:000b21f0       ?normalize@IDTextImpl@@UAEXXZ 120b31f0 f   IDAttrImpl.obj
 0001:000b21f0       ?normalize@IDElementImpl@@UAEXXZ 120b31f0 f   IDAttrImpl.obj
 0001:000b21f0       ?normalize@IDNotationImpl@@UAEXXZ 120b31f0 f   IDAttrImpl.obj
 0001:000b21f0       ?normalize@IDEntityReferenceImpl@@UAEXXZ 120b31f0 f   IDAttrImpl.obj
 0001:000b21f0       ?normalize@IDAttrImpl@@UAEXXZ 120b31f0 f   IDAttrImpl.obj
 0001:000b21f0       ?normalize@IDProcessingInstructionImpl@@UAEXXZ 120b31f0 f   IDAttrImpl.obj
 0001:000b21f0       ?normalize@IDDocumentTypeImpl@@UAEXXZ 120b31f0 f   IDAttrImpl.obj
 0001:000b21f0       ?normalize@IDCDATASectionImpl@@UAEXXZ 120b31f0 f   IDAttrImpl.obj
 0001:000b21f0       ?normalize@IDDocumentFragmentImpl@@UAEXXZ 120b31f0 f   IDAttrImpl.obj
 0001:000b21f0       ?normalize@IDDocumentImpl@@UAEXXZ 120b31f0 f   IDAttrImpl.obj
 0001:000b21f0       ?normalize@IDCommentImpl@@UAEXXZ 120b31f0 f   IDAttrImpl.obj
 0001:000b2200       ?removeChild@IDElementImpl@@UAEPAVIDOM_Node@@PAV2@@Z 120b3200 f   IDAttrImpl.obj
 0001:000b2200       ?removeChild@IDEntityImpl@@UAEPAVIDOM_Node@@PAV2@@Z 120b3200 f   IDAttrImpl.obj
 0001:000b2200       ?removeChild@IDAttrImpl@@UAEPAVIDOM_Node@@PAV2@@Z 120b3200 f   IDAttrImpl.obj
 0001:000b2200       ?removeChild@IDDocumentTypeImpl@@UAEPAVIDOM_Node@@PAV2@@Z 120b3200 f   IDAttrImpl.obj
 0001:000b2200       ?removeChild@IDCDATASectionImpl@@UAEPAVIDOM_Node@@PAV2@@Z 120b3200 f   IDAttrImpl.obj
 0001:000b2200       ?removeChild@IDEntityReferenceImpl@@UAEPAVIDOM_Node@@PAV2@@Z 120b3200 f   IDAttrImpl.obj
 0001:000b2200       ?removeChild@IDDocumentFragmentImpl@@UAEPAVIDOM_Node@@PAV2@@Z 120b3200 f   IDAttrImpl.obj
 0001:000b2210       ?setPrefix@IDEntityImpl@@UAEXPBG@Z 120b3210 f   IDAttrImpl.obj
 0001:000b2210       ?setPrefix@IDElementImpl@@UAEXPBG@Z 120b3210 f   IDAttrImpl.obj
 0001:000b2210       ?setPrefix@IDNotationImpl@@UAEXPBG@Z 120b3210 f   IDAttrImpl.obj
 0001:000b2210       ?setPrefix@IDDocumentImpl@@UAEXPBG@Z 120b3210 f   IDAttrImpl.obj
 0001:000b2210       ?setPrefix@IDEntityReferenceImpl@@UAEXPBG@Z 120b3210 f   IDAttrImpl.obj
 0001:000b2210       ?setPrefix@IDDocumentFragmentImpl@@UAEXPBG@Z 120b3210 f   IDAttrImpl.obj
 0001:000b2210       ?setPrefix@IDProcessingInstructionImpl@@UAEXPBG@Z 120b3210 f   IDAttrImpl.obj
 0001:000b2210       ?setPrefix@IDDocumentTypeImpl@@UAEXPBG@Z 120b3210 f   IDAttrImpl.obj
 0001:000b2210       ?setPrefix@IDCDATASectionImpl@@UAEXPBG@Z 120b3210 f   IDAttrImpl.obj
 0001:000b2210       ?setPrefix@IDCommentImpl@@UAEXPBG@Z 120b3210 f   IDAttrImpl.obj
 0001:000b2210       ?setPrefix@IDTextImpl@@UAEXPBG@Z 120b3210 f   IDAttrImpl.obj
 0001:000b2210       ?setPrefix@IDAttrImpl@@UAEXPBG@Z 120b3210 f   IDAttrImpl.obj
 0001:000b2220       ?hasAttributes@IDNotationImpl@@UBE_NXZ 120b3220 f   IDAttrImpl.obj
 0001:000b2220       ?hasAttributes@IDDocumentTypeImpl@@UBE_NXZ 120b3220 f   IDAttrImpl.obj
 0001:000b2220       ?hasAttributes@IDProcessingInstructionImpl@@UBE_NXZ 120b3220 f   IDAttrImpl.obj
 0001:000b2220       ?hasAttributes@IDCDATASectionImpl@@UBE_NXZ 120b3220 f   IDAttrImpl.obj
 0001:000b2220       ?hasAttributes@IDDocumentImpl@@UBE_NXZ 120b3220 f   IDAttrImpl.obj
 0001:000b2220       ?hasChildNodes@IDNotationImpl@@UBE_NXZ 120b3220 f   IDAttrImpl.obj
 0001:000b2220       ?hasAttributes@IDCommentImpl@@UBE_NXZ 120b3220 f   IDAttrImpl.obj
 0001:000b2220       ?hasAttributes@IDTextImpl@@UBE_NXZ 120b3220 f   IDAttrImpl.obj
 0001:000b2220       ?hasAttributes@IDDocumentFragmentImpl@@UBE_NXZ 120b3220 f   IDAttrImpl.obj
 0001:000b2220       ?hasAttributes@IDAttrImpl@@UBE_NXZ 120b3220 f   IDAttrImpl.obj
 0001:000b2220       ?hasChildNodes@IDProcessingInstructionImpl@@UBE_NXZ 120b3220 f   IDAttrImpl.obj
 0001:000b2220       ?hasAttributes@IDEntityImpl@@UBE_NXZ 120b3220 f   IDAttrImpl.obj
 0001:000b2220       ?hasChildNodes@IDTextImpl@@UBE_NXZ 120b3220 f   IDAttrImpl.obj
 0001:000b2220       ?hasAttributes@IDEntityReferenceImpl@@UBE_NXZ 120b3220 f   IDAttrImpl.obj
 0001:000b2220       ?hasChildNodes@IDCommentImpl@@UBE_NXZ 120b3220 f   IDAttrImpl.obj
 0001:000b2230       ??0IDAttrMapImpl@@QAE@PAVIDOM_Node@@@Z 120b3230 f   IDAttrMapImpl.obj
 0001:000b2250       ??0IDAttrMapImpl@@QAE@PAVIDOM_Node@@PBVIDNamedNodeMapImpl@@@Z 120b3250 f   IDAttrMapImpl.obj
 0001:000b22c0       ??1IDAttrMapImpl@@UAE@XZ   120b32c0 f   IDAttrMapImpl.obj
 0001:000b22d0       ?cloneAttrMap@IDAttrMapImpl@@UAEPAV1@PAVIDOM_Node@@@Z 120b32d0 f   IDAttrMapImpl.obj
 0001:000b2350       ?removeNamedItem@IDAttrMapImpl@@UAEPAVIDOM_Node@@PBG@Z 120b3350 f   IDAttrMapImpl.obj
 0001:000b23a0       ?removeNamedItemNS@IDAttrMapImpl@@UAEPAVIDOM_Node@@PBG0@Z 120b33a0 f   IDAttrMapImpl.obj
 0001:000b2400       ??1IDAttrNSImpl@@UAE@XZ    120b3400 f i IDAttrNSImpl.obj
 0001:000b2410       ??_OIDAttrNSImpl@@QAEXABV0@@Z 120b3410 f i IDAttrNSImpl.obj
 0001:000b2420       ??0IDAttrNSImpl@@QAE@PAVIDOM_Document@@PBG@Z 120b3420 f   IDAttrNSImpl.obj
 0001:000b2450       ??_EIDAttrNSImpl@@UAEPAXI@Z 120b3450 f i IDAttrNSImpl.obj
 0001:000b24b0       ??0IDAttrNSImpl@@QAE@PAVIDOM_Document@@PBG1@Z 120b34b0 f   IDAttrNSImpl.obj
 0001:000b26a0       ??0IDAttrNSImpl@@QAE@ABV0@_N@Z 120b36a0 f   IDAttrNSImpl.obj
 0001:000b26e0       ?cloneNode@IDAttrNSImpl@@UBEPAVIDOM_Node@@_N@Z 120b36e0 f   IDAttrNSImpl.obj
 0001:000b2760       ?setPrefix@IDAttrNSImpl@@UAEXPBG@Z 120b3760 f   IDAttrNSImpl.obj
 0001:000b29d0       ??_OIDCDATASectionImpl@@QAEXABV0@@Z 120b39d0 f i IDCDATASectionImpl.obj
 0001:000b29e0       ??0IDOM_Range@@IAE@XZ      120b39e0 f i IDCDATASectionImpl.obj
 0001:000b29f0       ??0IDOM_Range@@IAE@ABV0@@Z 120b39f0 f i IDCDATASectionImpl.obj
 0001:000b2a00       ??1IDOM_Range@@UAE@XZ      120b3a00 f i IDCDATASectionImpl.obj
 0001:000b2a10       ??_EIDOM_Range@@UAEPAXI@Z  120b3a10 f i IDCDATASectionImpl.obj
 0001:000b2a70       ??4IDRangeImpl@@QAEAAV0@ABV0@@Z 120b3a70 f i IDCDATASectionImpl.obj
 0001:000b2ab0       ??0IDCDATASectionImpl@@QAE@PAVIDOM_Document@@PBG@Z 120b3ab0 f   IDCDATASectionImpl.obj
 0001:000b2b40       ??_EIDCDATASectionImpl@@UAEPAXI@Z 120b3b40 f i IDCDATASectionImpl.obj
 0001:000b2ba0       ??0IDCDATASectionImpl@@QAE@ABV0@_N@Z 120b3ba0 f   IDCDATASectionImpl.obj
 0001:000b2c40       ??1IDCDATASectionImpl@@UAE@XZ 120b3c40 f   IDCDATASectionImpl.obj
 0001:000b2cb0       ?cloneNode@IDCDATASectionImpl@@UBEPAVIDOM_Node@@_N@Z 120b3cb0 f   IDCDATASectionImpl.obj
 0001:000b2d20       ?getNodeName@IDCDATASectionImpl@@UBEPBGXZ 120b3d20 f   IDCDATASectionImpl.obj
 0001:000b2d30       ?isIgnorableWhitespace@IDCDATASectionImpl@@UBE_NXZ 120b3d30 f   IDCDATASectionImpl.obj
 0001:000b2d30       ?isIgnorableWhitespace@IDTextImpl@@UBE_NXZ 120b3d30 f   IDCDATASectionImpl.obj
 0001:000b2d50       ?splitText@IDCDATASectionImpl@@UAEPAVIDOM_Text@@I@Z 120b3d50 f   IDCDATASectionImpl.obj
 0001:000b2eb0       ?appendChild@IDAttrImpl@@UAEPAVIDOM_Node@@PAV2@@Z 120b3eb0 f   IDCDATASectionImpl.obj
 0001:000b2eb0       ?appendChild@IDEntityReferenceImpl@@UAEPAVIDOM_Node@@PAV2@@Z 120b3eb0 f   IDCDATASectionImpl.obj
 0001:000b2eb0       ?appendChild@IDEntityImpl@@UAEPAVIDOM_Node@@PAV2@@Z 120b3eb0 f   IDCDATASectionImpl.obj
 0001:000b2eb0       ?appendChild@IDElementImpl@@UAEPAVIDOM_Node@@PAV2@@Z 120b3eb0 f   IDCDATASectionImpl.obj
 0001:000b2eb0       ?appendChild@IDDocumentFragmentImpl@@UAEPAVIDOM_Node@@PAV2@@Z 120b3eb0 f   IDCDATASectionImpl.obj
 0001:000b2eb0       ?appendChild@IDCDATASectionImpl@@UAEPAVIDOM_Node@@PAV2@@Z 120b3eb0 f   IDCDATASectionImpl.obj
 0001:000b2eb0       ?appendChild@IDDocumentTypeImpl@@UAEPAVIDOM_Node@@PAV2@@Z 120b3eb0 f   IDCDATASectionImpl.obj
 0001:000b2ec0       ?getChildNodes@IDCDATASectionImpl@@UBEPAVIDOM_NodeList@@XZ 120b3ec0 f   IDCDATASectionImpl.obj
 0001:000b2ec0       ?getChildNodes@IDDocumentFragmentImpl@@UBEPAVIDOM_NodeList@@XZ 120b3ec0 f   IDCDATASectionImpl.obj
 0001:000b2ec0       ?getChildNodes@IDElementImpl@@UBEPAVIDOM_NodeList@@XZ 120b3ec0 f   IDCDATASectionImpl.obj
 0001:000b2ec0       ?getChildNodes@IDDocumentTypeImpl@@UBEPAVIDOM_NodeList@@XZ 120b3ec0 f   IDCDATASectionImpl.obj
 0001:000b2ec0       ?getChildNodes@IDEntityReferenceImpl@@UBEPAVIDOM_NodeList@@XZ 120b3ec0 f   IDCDATASectionImpl.obj
 0001:000b2ec0       ?getChildNodes@IDAttrImpl@@UBEPAVIDOM_NodeList@@XZ 120b3ec0 f   IDCDATASectionImpl.obj
 0001:000b2ec0       ?getChildNodes@IDDocumentImpl@@UBEPAVIDOM_NodeList@@XZ 120b3ec0 f   IDCDATASectionImpl.obj
 0001:000b2ed0       ?getFirstChild@IDElementImpl@@UBEPAVIDOM_Node@@XZ 120b3ed0 f   IDCDATASectionImpl.obj
 0001:000b2ed0       ?getFirstChild@IDAttrImpl@@UBEPAVIDOM_Node@@XZ 120b3ed0 f   IDCDATASectionImpl.obj
 0001:000b2ed0       ?getFirstChild@IDDocumentFragmentImpl@@UBEPAVIDOM_Node@@XZ 120b3ed0 f   IDCDATASectionImpl.obj
 0001:000b2ed0       ?getFirstChild@IDDocumentTypeImpl@@UBEPAVIDOM_Node@@XZ 120b3ed0 f   IDCDATASectionImpl.obj
 0001:000b2ed0       ?getFirstChild@IDEntityReferenceImpl@@UBEPAVIDOM_Node@@XZ 120b3ed0 f   IDCDATASectionImpl.obj
 0001:000b2ed0       ?getNextSibling@IDTextImpl@@UBEPAVIDOM_Node@@XZ 120b3ed0 f   IDCDATASectionImpl.obj
 0001:000b2ed0       ?getFirstChild@IDDocumentImpl@@UBEPAVIDOM_Node@@XZ 120b3ed0 f   IDCDATASectionImpl.obj
 0001:000b2ed0       ?getNextSibling@IDProcessingInstructionImpl@@UBEPAVIDOM_Node@@XZ 120b3ed0 f   IDCDATASectionImpl.obj
 0001:000b2ed0       ?getNextSibling@IDCommentImpl@@UBEPAVIDOM_Node@@XZ 120b3ed0 f   IDCDATASectionImpl.obj
 0001:000b2ed0       ?getFirstChild@IDCDATASectionImpl@@UBEPAVIDOM_Node@@XZ 120b3ed0 f   IDCDATASectionImpl.obj
 0001:000b2ee0       ?getLastChild@IDDocumentImpl@@UBEPAVIDOM_Node@@XZ 120b3ee0 f   IDCDATASectionImpl.obj
 0001:000b2ee0       ?getLastChild@IDDocumentFragmentImpl@@UBEPAVIDOM_Node@@XZ 120b3ee0 f   IDCDATASectionImpl.obj
 0001:000b2ee0       ?getLastChild@IDElementImpl@@UBEPAVIDOM_Node@@XZ 120b3ee0 f   IDCDATASectionImpl.obj
 0001:000b2ee0       ?getLastChild@IDEntityReferenceImpl@@UBEPAVIDOM_Node@@XZ 120b3ee0 f   IDCDATASectionImpl.obj
 0001:000b2ee0       ?getLastChild@IDDocumentTypeImpl@@UBEPAVIDOM_Node@@XZ 120b3ee0 f   IDCDATASectionImpl.obj
 0001:000b2ee0       ?getLastChild@IDCDATASectionImpl@@UBEPAVIDOM_Node@@XZ 120b3ee0 f   IDCDATASectionImpl.obj
 0001:000b2ee0       ?getLastChild@IDAttrImpl@@UBEPAVIDOM_Node@@XZ 120b3ee0 f   IDCDATASectionImpl.obj
 0001:000b2ef0       ?getAttributes@IDNotationImpl@@UBEPAVIDOM_NamedNodeMap@@XZ 120b3ef0 f   IDCDATASectionImpl.obj
 0001:000b2ef0       ?getNamespaceURI@IDDocumentTypeImpl@@UBEPBGXZ 120b3ef0 f   IDCDATASectionImpl.obj
 0001:000b2ef0       ?getAttributes@IDEntityReferenceImpl@@UBEPAVIDOM_NamedNodeMap@@XZ 120b3ef0 f   IDCDATASectionImpl.obj
 0001:000b2ef0       ?getLastChild@IDTextImpl@@UBEPAVIDOM_Node@@XZ 120b3ef0 f   IDCDATASectionImpl.obj
 0001:000b2ef0       ?getFirstChild@IDNotationImpl@@UBEPAVIDOM_Node@@XZ 120b3ef0 f   IDCDATASectionImpl.obj
 0001:000b2ef0       ?getNextSibling@IDDocumentImpl@@UBEPAVIDOM_Node@@XZ 120b3ef0 f   IDCDATASectionImpl.obj
 0001:000b2ef0       ?getPreviousSibling@IDDocumentImpl@@UBEPAVIDOM_Node@@XZ 120b3ef0 f   IDCDATASectionImpl.obj
 0001:000b2ef0       ?getPrefix@IDAttrImpl@@UBEPBGXZ 120b3ef0 f   IDCDATASectionImpl.obj
 0001:000b2ef0       ?getLocalName@IDEntityReferenceImpl@@UBEPBGXZ 120b3ef0 f   IDCDATASectionImpl.obj
 0001:000b2ef0       ?getAttributes@IDEntityImpl@@UBEPAVIDOM_NamedNodeMap@@XZ 120b3ef0 f   IDCDATASectionImpl.obj
 0001:000b2ef0       ?getNamespaceURI@IDEntityReferenceImpl@@UBEPBGXZ 120b3ef0 f   IDCDATASectionImpl.obj
 0001:000b2ef0       ?getLocalName@IDCommentImpl@@UBEPBGXZ 120b3ef0 f   IDCDATASectionImpl.obj
 0001:000b2ef0       ?getLocalName@IDDocumentImpl@@UBEPBGXZ 120b3ef0 f   IDCDATASectionImpl.obj
 0001:000b2ef0       ?getAttributes@IDDocumentImpl@@UBEPAVIDOM_NamedNodeMap@@XZ 120b3ef0 f   IDCDATASectionImpl.obj
 0001:000b2ef0       ?getLocalName@IDCDATASectionImpl@@UBEPBGXZ 120b3ef0 f   IDCDATASectionImpl.obj
 0001:000b2ef0       ?getPreviousSibling@IDNotationImpl@@UBEPAVIDOM_Node@@XZ 120b3ef0 f   IDCDATASectionImpl.obj
 0001:000b2ef0       ?getNodeValue@IDEntityReferenceImpl@@UBEPBGXZ 120b3ef0 f   IDCDATASectionImpl.obj
 0001:000b2ef0       ?getNodeValue@IDDocumentImpl@@UBEPBGXZ 120b3ef0 f   IDCDATASectionImpl.obj
 0001:000b2ef0       ?getNodeValue@IDElementImpl@@UBEPBGXZ 120b3ef0 f   IDCDATASectionImpl.obj
 0001:000b2ef0       ?getPrefix@IDCommentImpl@@UBEPBGXZ 120b3ef0 f   IDCDATASectionImpl.obj
 0001:000b2ef0       ?getNamespaceURI@IDDocumentImpl@@UBEPBGXZ 120b3ef0 f   IDCDATASectionImpl.obj
 0001:000b2ef0       ?getNodeValue@IDDocumentFragmentImpl@@UBEPBGXZ 120b3ef0 f   IDCDATASectionImpl.obj
 0001:000b2ef0       ?getNamespaceURI@IDDocumentFragmentImpl@@UBEPBGXZ 120b3ef0 f   IDCDATASectionImpl.obj
 0001:000b2ef0       ?getLocalName@IDEntityImpl@@UBEPBGXZ 120b3ef0 f   IDCDATASectionImpl.obj
 0001:000b2ef0       ?getNodeValue@IDDocumentTypeImpl@@UBEPBGXZ 120b3ef0 f   IDCDATASectionImpl.obj
 0001:000b2ef0       ?getFirstChild@IDProcessingInstructionImpl@@UBEPAVIDOM_Node@@XZ 120b3ef0 f   IDCDATASectionImpl.obj
 0001:000b2ef0       ?getAttributes@IDDocumentFragmentImpl@@UBEPAVIDOM_NamedNodeMap@@XZ 120b3ef0 f   IDCDATASectionImpl.obj
 0001:000b2ef0       ?getPreviousSibling@IDDocumentFragmentImpl@@UBEPAVIDOM_Node@@XZ 120b3ef0 f   IDCDATASectionImpl.obj
 0001:000b2ef0       ?getAttributes@IDAttrImpl@@UBEPAVIDOM_NamedNodeMap@@XZ 120b3ef0 f   IDCDATASectionImpl.obj
 0001:000b2ef0       ?getAttributes@IDProcessingInstructionImpl@@UBEPAVIDOM_NamedNodeMap@@XZ 120b3ef0 f   IDCDATASectionImpl.obj
 0001:000b2ef0       ?getAttributes@IDTextImpl@@UBEPAVIDOM_NamedNodeMap@@XZ 120b3ef0 f   IDCDATASectionImpl.obj
 0001:000b2ef0       ?getPrefix@IDNotationImpl@@UBEPBGXZ 120b3ef0 f   IDCDATASectionImpl.obj
 0001:000b2ef0       ?getPrefix@IDCDATASectionImpl@@UBEPBGXZ 120b3ef0 f   IDCDATASectionImpl.obj
 0001:000b2ef0       ?getPrefix@IDElementImpl@@UBEPBGXZ 120b3ef0 f   IDCDATASectionImpl.obj
 0001:000b2ef0       ?getFirstChild@IDCommentImpl@@UBEPAVIDOM_Node@@XZ 120b3ef0 f   IDCDATASectionImpl.obj
 0001:000b2ef0       ?getNodeValue@IDEntityImpl@@UBEPBGXZ 120b3ef0 f   IDCDATASectionImpl.obj
 0001:000b2ef0       ?getLocalName@IDNotationImpl@@UBEPBGXZ 120b3ef0 f   IDCDATASectionImpl.obj
 0001:000b2ef0       ?getParentNode@IDNotationImpl@@UBEPAVIDOM_Node@@XZ 120b3ef0 f   IDCDATASectionImpl.obj
 0001:000b2ef0       ?getNamespaceURI@IDCDATASectionImpl@@UBEPBGXZ 120b3ef0 f   IDCDATASectionImpl.obj
 0001:000b2ef0       ?getPreviousSibling@IDAttrImpl@@UBEPAVIDOM_Node@@XZ 120b3ef0 f   IDCDATASectionImpl.obj
 0001:000b2ef0       ?getLastChild@IDProcessingInstructionImpl@@UBEPAVIDOM_Node@@XZ 120b3ef0 f   IDCDATASectionImpl.obj
 0001:000b2ef0       ?getPrefix@IDDocumentTypeImpl@@UBEPBGXZ 120b3ef0 f   IDCDATASectionImpl.obj
 0001:000b2ef0       ?getLocalName@IDAttrImpl@@UBEPBGXZ 120b3ef0 f   IDCDATASectionImpl.obj
 0001:000b2ef0       ?getNextSibling@IDEntityImpl@@UBEPAVIDOM_Node@@XZ 120b3ef0 f   IDCDATASectionImpl.obj
 0001:000b2ef0       ?getPrefix@IDProcessingInstructionImpl@@UBEPBGXZ 120b3ef0 f   IDCDATASectionImpl.obj
 0001:000b2ef0       ?getAttributes@IDCommentImpl@@UBEPAVIDOM_NamedNodeMap@@XZ 120b3ef0 f   IDCDATASectionImpl.obj
 0001:000b2ef0       ?getPreviousSibling@IDEntityImpl@@UBEPAVIDOM_Node@@XZ 120b3ef0 f   IDCDATASectionImpl.obj
 0001:000b2ef0       ?getNamespaceURI@IDEntityImpl@@UBEPBGXZ 120b3ef0 f   IDCDATASectionImpl.obj
 0001:000b2ef0       ?getNextSibling@IDAttrImpl@@UBEPAVIDOM_Node@@XZ 120b3ef0 f   IDCDATASectionImpl.obj
 0001:000b2ef0       ?getParentNode@IDEntityImpl@@UBEPAVIDOM_Node@@XZ 120b3ef0 f   IDCDATASectionImpl.obj
 0001:000b2ef0       ?getLocalName@IDTextImpl@@UBEPBGXZ 120b3ef0 f   IDCDATASectionImpl.obj
 0001:000b2ef0       ?getPrefix@IDDocumentImpl@@UBEPBGXZ 120b3ef0 f   IDCDATASectionImpl.obj
 0001:000b2ef0       ?getLocalName@IDElementImpl@@UBEPBGXZ 120b3ef0 f   IDCDATASectionImpl.obj
 0001:000b2ef0       ?getParentNode@IDDocumentFragmentImpl@@UBEPAVIDOM_Node@@XZ 120b3ef0 f   IDCDATASectionImpl.obj
 0001:000b2ef0       ?getLastChild@IDNotationImpl@@UBEPAVIDOM_Node@@XZ 120b3ef0 f   IDCDATASectionImpl.obj
 0001:000b2ef0       ?getNextSibling@IDNotationImpl@@UBEPAVIDOM_Node@@XZ 120b3ef0 f   IDCDATASectionImpl.obj
 0001:000b2ef0       ?getFirstChild@IDTextImpl@@UBEPAVIDOM_Node@@XZ 120b3ef0 f   IDCDATASectionImpl.obj
 0001:000b2ef0       ?getNamespaceURI@IDTextImpl@@UBEPBGXZ 120b3ef0 f   IDCDATASectionImpl.obj
 0001:000b2ef0       ?getNodeValue@IDNotationImpl@@UBEPBGXZ 120b3ef0 f   IDCDATASectionImpl.obj
 0001:000b2ef0       ?getAttributes@IDDocumentTypeImpl@@UBEPAVIDOM_NamedNodeMap@@XZ 120b3ef0 f   IDCDATASectionImpl.obj
 0001:000b2ef0       ?getPrefix@IDDocumentFragmentImpl@@UBEPBGXZ 120b3ef0 f   IDCDATASectionImpl.obj
 0001:000b2ef0       ?getNamespaceURI@IDAttrImpl@@UBEPBGXZ 120b3ef0 f   IDCDATASectionImpl.obj
 0001:000b2ef0       ?getParentNode@IDAttrImpl@@UBEPAVIDOM_Node@@XZ 120b3ef0 f   IDCDATASectionImpl.obj
 0001:000b2ef0       ?getNamespaceURI@IDCommentImpl@@UBEPBGXZ 120b3ef0 f   IDCDATASectionImpl.obj
 0001:000b2ef0       ?getParentNode@IDDocumentImpl@@UBEPAVIDOM_Node@@XZ 120b3ef0 f   IDCDATASectionImpl.obj
 0001:000b2ef0       ?getAttributes@IDCDATASectionImpl@@UBEPAVIDOM_NamedNodeMap@@XZ 120b3ef0 f   IDCDATASectionImpl.obj
 0001:000b2ef0       ?getLocalName@IDDocumentFragmentImpl@@UBEPBGXZ 120b3ef0 f   IDCDATASectionImpl.obj
 0001:000b2ef0       ?getLocalName@IDProcessingInstructionImpl@@UBEPBGXZ 120b3ef0 f   IDCDATASectionImpl.obj
 0001:000b2ef0       ?getLocalName@IDDocumentTypeImpl@@UBEPBGXZ 120b3ef0 f   IDCDATASectionImpl.obj
 0001:000b2ef0       ?getPrefix@IDTextImpl@@UBEPBGXZ 120b3ef0 f   IDCDATASectionImpl.obj
 0001:000b2ef0       ?getNamespaceURI@IDNotationImpl@@UBEPBGXZ 120b3ef0 f   IDCDATASectionImpl.obj
 0001:000b2ef0       ?getPrefix@IDEntityReferenceImpl@@UBEPBGXZ 120b3ef0 f   IDCDATASectionImpl.obj
 0001:000b2ef0       ?getNamespaceURI@IDElementImpl@@UBEPBGXZ 120b3ef0 f   IDCDATASectionImpl.obj
 0001:000b2ef0       ?getLastChild@IDCommentImpl@@UBEPAVIDOM_Node@@XZ 120b3ef0 f   IDCDATASectionImpl.obj
 0001:000b2ef0       ?getNamespaceURI@IDProcessingInstructionImpl@@UBEPBGXZ 120b3ef0 f   IDCDATASectionImpl.obj
 0001:000b2ef0       ?getNextSibling@IDDocumentFragmentImpl@@UBEPAVIDOM_Node@@XZ 120b3ef0 f   IDCDATASectionImpl.obj
 0001:000b2ef0       ?getPrefix@IDEntityImpl@@UBEPBGXZ 120b3ef0 f   IDCDATASectionImpl.obj
 0001:000b2f00       ?getNextSibling@IDCDATASectionImpl@@UBEPAVIDOM_Node@@XZ 120b3f00 f   IDCDATASectionImpl.obj
 0001:000b2f00       ?getNextSibling@IDElementImpl@@UBEPAVIDOM_Node@@XZ 120b3f00 f   IDCDATASectionImpl.obj
 0001:000b2f00       ?getNextSibling@IDEntityReferenceImpl@@UBEPAVIDOM_Node@@XZ 120b3f00 f   IDCDATASectionImpl.obj
 0001:000b2f00       ?getNextSibling@IDDocumentTypeImpl@@UBEPAVIDOM_Node@@XZ 120b3f00 f   IDCDATASectionImpl.obj
 0001:000b2f10       ?getData@IDCDATASectionImpl@@UBEPBGXZ 120b3f10 f   IDCDATASectionImpl.obj
 0001:000b2f10       ?getNodeValue@IDCDATASectionImpl@@UBEPBGXZ 120b3f10 f   IDCDATASectionImpl.obj
 0001:000b2f20       ?hasChildNodes@IDElementImpl@@UBE_NXZ 120b3f20 f   IDCDATASectionImpl.obj
 0001:000b2f20       ?hasChildNodes@IDEntityReferenceImpl@@UBE_NXZ 120b3f20 f   IDCDATASectionImpl.obj
 0001:000b2f20       ?hasChildNodes@IDAttrImpl@@UBE_NXZ 120b3f20 f   IDCDATASectionImpl.obj
 0001:000b2f20       ?hasChildNodes@IDCDATASectionImpl@@UBE_NXZ 120b3f20 f   IDCDATASectionImpl.obj
 0001:000b2f20       ?hasChildNodes@IDDocumentTypeImpl@@UBE_NXZ 120b3f20 f   IDCDATASectionImpl.obj
 0001:000b2f20       ?hasChildNodes@IDDocumentFragmentImpl@@UBE_NXZ 120b3f20 f   IDCDATASectionImpl.obj
 0001:000b2f20       ?hasChildNodes@IDDocumentImpl@@UBE_NXZ 120b3f20 f   IDCDATASectionImpl.obj
 0001:000b2f30       ?getLength@IDCDATASectionImpl@@UBEIXZ 120b3f30 f   IDCDATASectionImpl.obj
 0001:000b2f40       ?substringData@IDCDATASectionImpl@@UBEPBGII@Z 120b3f40 f   IDCDATASectionImpl.obj
 0001:000b2f60       ?appendData@IDCDATASectionImpl@@UAEXPBG@Z 120b3f60 f   IDCDATASectionImpl.obj
 0001:000b2f80       ?insertData@IDCDATASectionImpl@@UAEXIPBG@Z 120b3f80 f   IDCDATASectionImpl.obj
 0001:000b2fa0       ?deleteData@IDCDATASectionImpl@@UAEXII@Z 120b3fa0 f   IDCDATASectionImpl.obj
 0001:000b2fc0       ?replaceData@IDCDATASectionImpl@@UAEXIIPBG@Z 120b3fc0 f   IDCDATASectionImpl.obj
 0001:000b2fe0       ?setData@IDCDATASectionImpl@@UAEXPBG@Z 120b3fe0 f   IDCDATASectionImpl.obj
 0001:000b3000       ?setNodeValue@IDCDATASectionImpl@@UAEXPBG@Z 120b4000 f   IDCDATASectionImpl.obj
 0001:000b3020       ??0IDCharacterDataImpl@@QAE@PAVIDOM_Document@@PBG@Z 120b4020 f   IDCharacterDataImpl.obj
 0001:000b3040       ??0IDCharacterDataImpl@@QAE@ABV0@@Z 120b4040 f   IDCharacterDataImpl.obj
 0001:000b3050       ?setNodeValue@IDCharacterDataImpl@@QAEXPBVIDOM_Node@@PBG@Z 120b4050 f   IDCharacterDataImpl.obj
 0001:000b3110       ?appendData@IDCharacterDataImpl@@QAEXPBVIDOM_Node@@PBG@Z 120b4110 f   IDCharacterDataImpl.obj
 0001:000b31f0       ?deleteData@IDCharacterDataImpl@@QAEXPBVIDOM_Node@@II@Z 120b41f0 f   IDCharacterDataImpl.obj
 0001:000b33b0       ?getLength@IDCharacterDataImpl@@QBEIXZ 120b43b0 f   IDCharacterDataImpl.obj
 0001:000b33e0       ?insertData@IDCharacterDataImpl@@QAEXPBVIDOM_Node@@IPBG@Z 120b43e0 f   IDCharacterDataImpl.obj
 0001:000b3530       ?replaceData@IDCharacterDataImpl@@QAEXPBVIDOM_Node@@IIPBG@Z 120b4530 f   IDCharacterDataImpl.obj
 0001:000b3590       ?setData@IDCharacterDataImpl@@QAEXPBVIDOM_Node@@PBG@Z 120b4590 f   IDCharacterDataImpl.obj
 0001:000b35e0       ?substringData@IDCharacterDataImpl@@QBEPBGPBVIDOM_Node@@II@Z 120b45e0 f   IDCharacterDataImpl.obj
 0001:000b3690       ??0IDChildNode@@QAE@XZ     120b4690 f   IDChildNode.obj
 0001:000b36a0       ??0IDChildNode@@QAE@ABV0@@Z 120b46a0 f   IDChildNode.obj
 0001:000b36c0       ?getParentNode@IDChildNode@@QBEPAVIDOM_Node@@PBV2@@Z 120b46c0 f   IDChildNode.obj
 0001:000b36e0       ?getPreviousSibling@IDChildNode@@QBEPAVIDOM_Node@@PBV2@@Z 120b46e0 f   IDChildNode.obj
 0001:000b3700       ??0IDCommentImpl@@QAE@ABV0@@Z 120b4700 f i IDCommentImpl.obj
 0001:000b3780       ??4IDTextImpl@@QAEAAV0@ABV0@@Z 120b4780 f i IDCommentImpl.obj
 0001:000b3780       ??4IDNotationImpl@@QAEAAV0@ABV0@@Z 120b4780 f i IDCommentImpl.obj
 0001:000b3780       ??4IDCommentImpl@@QAEAAV0@ABV0@@Z 120b4780 f i IDCommentImpl.obj
 0001:000b37b0       ??_EIDCommentImpl@@UAEPAXI@Z 120b47b0 f i IDCommentImpl.obj
 0001:000b3810       ??0IDCommentImpl@@QAE@PAVIDOM_Document@@PBG@Z 120b4810 f   IDCommentImpl.obj
 0001:000b38a0       ??0IDCommentImpl@@QAE@ABV0@_N@Z 120b48a0 f   IDCommentImpl.obj
 0001:000b3930       ??1IDCommentImpl@@UAE@XZ   120b4930 f   IDCommentImpl.obj
 0001:000b39a0       ?cloneNode@IDCommentImpl@@UBEPAVIDOM_Node@@_N@Z 120b49a0 f   IDCommentImpl.obj
 0001:000b3a40       ?getNodeName@IDCommentImpl@@UBEPBGXZ 120b4a40 f   IDCommentImpl.obj
 0001:000b3a50       ?appendChild@IDCommentImpl@@UAEPAVIDOM_Node@@PAV2@@Z 120b4a50 f   IDCommentImpl.obj
 0001:000b3a50       ?appendChild@IDProcessingInstructionImpl@@UAEPAVIDOM_Node@@PAV2@@Z 120b4a50 f   IDCommentImpl.obj
 0001:000b3a50       ?appendChild@IDTextImpl@@UAEPAVIDOM_Node@@PAV2@@Z 120b4a50 f   IDCommentImpl.obj
 0001:000b3a50       ?appendChild@IDNotationImpl@@UAEPAVIDOM_Node@@PAV2@@Z 120b4a50 f   IDCommentImpl.obj
 0001:000b3a60       ?getChildNodes@IDCommentImpl@@UBEPAVIDOM_NodeList@@XZ 120b4a60 f   IDCommentImpl.obj
 0001:000b3a60       ?getChildNodes@IDProcessingInstructionImpl@@UBEPAVIDOM_NodeList@@XZ 120b4a60 f   IDCommentImpl.obj
 0001:000b3a60       ?getChildNodes@IDTextImpl@@UBEPAVIDOM_NodeList@@XZ 120b4a60 f   IDCommentImpl.obj
 0001:000b3a60       ?getChildNodes@IDNotationImpl@@UBEPAVIDOM_NodeList@@XZ 120b4a60 f   IDCommentImpl.obj
 0001:000b3a70       ?getParentNode@IDProcessingInstructionImpl@@UBEPAVIDOM_Node@@XZ 120b4a70 f   IDCommentImpl.obj
 0001:000b3a70       ?getParentNode@IDTextImpl@@UBEPAVIDOM_Node@@XZ 120b4a70 f   IDCommentImpl.obj
 0001:000b3a70       ?getParentNode@IDCommentImpl@@UBEPAVIDOM_Node@@XZ 120b4a70 f   IDCommentImpl.obj
 0001:000b3a80       ?getPreviousSibling@IDCommentImpl@@UBEPAVIDOM_Node@@XZ 120b4a80 f   IDCommentImpl.obj
 0001:000b3a80       ?getPreviousSibling@IDProcessingInstructionImpl@@UBEPAVIDOM_Node@@XZ 120b4a80 f   IDCommentImpl.obj
 0001:000b3a80       ?getPreviousSibling@IDTextImpl@@UBEPAVIDOM_Node@@XZ 120b4a80 f   IDCommentImpl.obj
 0001:000b3a90       ?substringData@IDCommentImpl@@UBEPBGII@Z 120b4a90 f   IDCommentImpl.obj
 0001:000b3a90       ?substringData@IDTextImpl@@UBEPBGII@Z 120b4a90 f   IDCommentImpl.obj
 0001:000b3ab0       ?appendData@IDTextImpl@@UAEXPBG@Z 120b4ab0 f   IDCommentImpl.obj
 0001:000b3ab0       ?appendData@IDCommentImpl@@UAEXPBG@Z 120b4ab0 f   IDCommentImpl.obj
 0001:000b3ad0       ?insertData@IDCommentImpl@@UAEXIPBG@Z 120b4ad0 f   IDCommentImpl.obj
 0001:000b3ad0       ?insertData@IDTextImpl@@UAEXIPBG@Z 120b4ad0 f   IDCommentImpl.obj
 0001:000b3af0       ?deleteData@IDTextImpl@@UAEXII@Z 120b4af0 f   IDCommentImpl.obj
 0001:000b3af0       ?deleteData@IDCommentImpl@@UAEXII@Z 120b4af0 f   IDCommentImpl.obj
 0001:000b3b10       ?replaceData@IDCommentImpl@@UAEXIIPBG@Z 120b4b10 f   IDCommentImpl.obj
 0001:000b3b10       ?replaceData@IDTextImpl@@UAEXIIPBG@Z 120b4b10 f   IDCommentImpl.obj
 0001:000b3b30       ?setData@IDTextImpl@@UAEXPBG@Z 120b4b30 f   IDCommentImpl.obj
 0001:000b3b30       ?setData@IDCommentImpl@@UAEXPBG@Z 120b4b30 f   IDCommentImpl.obj
 0001:000b3b50       ?setNodeValue@IDCommentImpl@@UAEXPBG@Z 120b4b50 f   IDCommentImpl.obj
 0001:000b3b50       ?setNodeValue@IDTextImpl@@UAEXPBG@Z 120b4b50 f   IDCommentImpl.obj
 0001:000b3b70       ??0IDDeepNodeListImpl@@QAE@ABV0@@Z 120b4b70 f i IDDeepNodeListImpl.obj
 0001:000b3bc0       ??4IDDeepNodeListImpl@@QAEAAV0@ABV0@@Z 120b4bc0 f i IDDeepNodeListImpl.obj
 0001:000b3c00       ??_EIDDeepNodeListImpl@@UAEPAXI@Z 120b4c00 f i IDDeepNodeListImpl.obj
 0001:000b3c60       ??0IDDeepNodeListImpl@@QAE@PBVIDOM_Node@@PBG@Z 120b4c60 f   IDDeepNodeListImpl.obj
 0001:000b3cf0       ??0IDDeepNodeListImpl@@QAE@PBVIDOM_Node@@PBG1@Z 120b4cf0 f   IDDeepNodeListImpl.obj
 0001:000b3db0       ?getLength@IDDeepNodeListImpl@@UAEIXZ 120b4db0 f   IDDeepNodeListImpl.obj
 0001:000b3dd0       ?item@IDDeepNodeListImpl@@UAEPAVIDOM_Node@@I@Z 120b4dd0 f   IDDeepNodeListImpl.obj
 0001:000b3e50       ?nextMatchingElementAfter@IDDeepNodeListImpl@@AAEPAVIDOM_Node@@PAV2@@Z 120b4e50 f   IDDeepNodeListImpl.obj
 0001:000b3f40       ??0IDOM_DocumentFragment@@IAE@XZ 120b4f40 f i IDDocumentFragmentImpl.obj
 0001:000b3f50       ??0IDOM_DocumentFragment@@IAE@ABV0@@Z 120b4f50 f i IDDocumentFragmentImpl.obj
 0001:000b3f60       ??_EIDOM_ProcessingInstruction@@UAEPAXI@Z 120b4f60 f i IDDocumentFragmentImpl.obj
 0001:000b3f60       ??_EIDOM_Attr@@UAEPAXI@Z   120b4f60 f i IDDocumentFragmentImpl.obj
 0001:000b3f60       ??_EIDOM_DocumentFragment@@UAEPAXI@Z 120b4f60 f i IDDocumentFragmentImpl.obj
 0001:000b3f60       ??_EIDOM_Text@@UAEPAXI@Z   120b4f60 f i IDDocumentFragmentImpl.obj
 0001:000b3f60       ??_EIDOM_CharacterData@@UAEPAXI@Z 120b4f60 f i IDDocumentFragmentImpl.obj
 0001:000b3f60       ??_EIDOM_Document@@UAEPAXI@Z 120b4f60 f i IDDocumentFragmentImpl.obj
 0001:000b3f60       ??_EIDOM_EntityReference@@UAEPAXI@Z 120b4f60 f i IDDocumentFragmentImpl.obj
 0001:000b3f60       ??_EIDOM_Comment@@UAEPAXI@Z 120b4f60 f i IDDocumentFragmentImpl.obj
 0001:000b3f60       ??_EIDOM_Notation@@UAEPAXI@Z 120b4f60 f i IDDocumentFragmentImpl.obj
 0001:000b3f60       ??_EIDOM_Entity@@UAEPAXI@Z 120b4f60 f i IDDocumentFragmentImpl.obj
 0001:000b3f60       ??_EIDOM_DocumentType@@UAEPAXI@Z 120b4f60 f i IDDocumentFragmentImpl.obj
 0001:000b3f60       ??_EIDOM_CDATASection@@UAEPAXI@Z 120b4f60 f i IDDocumentFragmentImpl.obj
 0001:000b3f60       ??_EIDOM_Element@@UAEPAXI@Z 120b4f60 f i IDDocumentFragmentImpl.obj
 0001:000b3fc0       ??0IDDocumentFragmentImpl@@QAE@ABV0@@Z 120b4fc0 f i IDDocumentFragmentImpl.obj
 0001:000b4030       ??_EIDDocumentFragmentImpl@@UAEPAXI@Z 120b5030 f i IDDocumentFragmentImpl.obj
 0001:000b4090       ??0IDDocumentFragmentImpl@@IAE@PAVIDOM_Document@@@Z 120b5090 f   IDDocumentFragmentImpl.obj
 0001:000b4100       ??0IDDocumentFragmentImpl@@AAE@ABV0@_N@Z 120b5100 f   IDDocumentFragmentImpl.obj
 0001:000b4190       ??1IDDocumentFragmentImpl@@UAE@XZ 120b5190 f   IDDocumentFragmentImpl.obj
 0001:000b41f0       ?cloneNode@IDDocumentFragmentImpl@@UBEPAVIDOM_Node@@_N@Z 120b51f0 f   IDDocumentFragmentImpl.obj
 0001:000b4290       ?getNodeName@IDDocumentFragmentImpl@@UBEPBGXZ 120b5290 f   IDDocumentFragmentImpl.obj
 0001:000b42a0       ?getNodeType@DocumentFragmentImpl@@UAEFXZ 120b52a0 f   IDDocumentFragmentImpl.obj
 0001:000b42a0       ?getNodeType@IDDocumentFragmentImpl@@UBEFXZ 120b52a0 f   IDDocumentFragmentImpl.obj
 0001:000b42b0       ??1IDElementNSImpl@@UAE@XZ 120b52b0 f i IDDocumentImpl.obj
 0001:000b42c0       ??_OIDElementNSImpl@@QAEXABV0@@Z 120b52c0 f i IDDocumentImpl.obj
 0001:000b42d0       ??4IDProcessingInstructionImpl@@QAEAAV0@ABV0@@Z 120b52d0 f i IDDocumentImpl.obj
 0001:000b4300       ??_OIDProcessingInstructionImpl@@QAEXABV0@@Z 120b5300 f i IDDocumentImpl.obj
 0001:000b4310       ??0IDOM_NodeFilter@@IAE@XZ 120b5310 f i IDDocumentImpl.obj
 0001:000b4320       ??0IDOM_NodeFilter@@IAE@ABV0@@Z 120b5320 f i IDDocumentImpl.obj
 0001:000b4330       ??0IDOM_TreeWalker@@IAE@XZ 120b5330 f i IDDocumentImpl.obj
 0001:000b4340       ??0IDOM_TreeWalker@@IAE@ABV0@@Z 120b5340 f i IDDocumentImpl.obj
 0001:000b4350       ??0IDOM_NodeIterator@@IAE@XZ 120b5350 f i IDDocumentImpl.obj
 0001:000b4360       ??0IDOM_NodeIterator@@IAE@ABV0@@Z 120b5360 f i IDDocumentImpl.obj
 0001:000b4370       ??0IDDocumentImpl@@QAE@XZ  120b5370 f   IDDocumentImpl.obj
 0001:000b4440       ??0IDDocumentImpl@@QAE@PBG0PAVIDOM_DocumentType@@@Z 120b5440 f   IDDocumentImpl.obj
 0001:000b45f0       ?setDocumentType@IDDocumentImpl@@QAEXPAVIDOM_DocumentType@@@Z 120b55f0 f   IDDocumentImpl.obj
 0001:000b4650       ??1IDDocumentImpl@@UAE@XZ  120b5650 f   IDDocumentImpl.obj
 0001:000b47b0       ?cloneNode@IDDocumentImpl@@UBEPAVIDOM_Node@@_N@Z 120b57b0 f   IDDocumentImpl.obj
 0001:000b4860       ?getNodeName@IDDocumentImpl@@UBEPBGXZ 120b5860 f   IDDocumentImpl.obj
 0001:000b4870       ?createAttribute@IDDocumentImpl@@UAEPAVIDOM_Attr@@PBG@Z 120b5870 f   IDDocumentImpl.obj
 0001:000b4940       ?createCDATASection@IDDocumentImpl@@UAEPAVIDOM_CDATASection@@PBG@Z 120b5940 f   IDDocumentImpl.obj
 0001:000b49b0       ?createComment@IDDocumentImpl@@UAEPAVIDOM_Comment@@PBG@Z 120b59b0 f   IDDocumentImpl.obj
 0001:000b4a20       ?createDocumentFragment@IDDocumentImpl@@UAEPAVIDOM_DocumentFragment@@XZ 120b5a20 f   IDDocumentImpl.obj
 0001:000b4a80       ?createDocumentType@IDDocumentImpl@@UAEPAVIDOM_DocumentType@@PBG@Z 120b5a80 f   IDDocumentImpl.obj
 0001:000b4b50       ?createDocumentType@IDDocumentImpl@@UAEPAVIDOM_DocumentType@@PBG00@Z 120b5b50 f   IDDocumentImpl.obj
 0001:000b4c20       ?createElement@IDDocumentImpl@@UAEPAVIDOM_Element@@PBG@Z 120b5c20 f   IDDocumentImpl.obj
 0001:000b4cf0       ?createElementNoCheck@IDDocumentImpl@@UAEPAVIDOM_Element@@PBG@Z 120b5cf0 f   IDDocumentImpl.obj
 0001:000b4d60       ?createEntity@IDDocumentImpl@@UAEPAVIDOM_Entity@@PBG@Z 120b5d60 f   IDDocumentImpl.obj
 0001:000b4e30       ?createEntityReference@IDDocumentImpl@@UAEPAVIDOM_EntityReference@@PBG@Z 120b5e30 f   IDDocumentImpl.obj
 0001:000b4f00       ?createNotation@IDDocumentImpl@@UAEPAVIDOM_Notation@@PBG@Z 120b5f00 f   IDDocumentImpl.obj
 0001:000b4fd0       ?createProcessingInstruction@IDDocumentImpl@@UAEPAVIDOM_ProcessingInstruction@@PBG0@Z 120b5fd0 f   IDDocumentImpl.obj
 0001:000b50a0       ?createTextNode@IDDocumentImpl@@UAEPAVIDOM_Text@@PBG@Z 120b60a0 f   IDDocumentImpl.obj
 0001:000b5110       ?createNodeIterator@IDDocumentImpl@@UAEPAVIDOM_NodeIterator@@PAVIDOM_Node@@KPAVIDOM_NodeFilter@@_N@Z 120b6110 f   IDDocumentImpl.obj
 0001:000b5260       ?createTreeWalker@IDDocumentImpl@@UAEPAVIDOM_TreeWalker@@PAVIDOM_Node@@KPAVIDOM_NodeFilter@@_N@Z 120b6260 f   IDDocumentImpl.obj
 0001:000b53b0       ?getElementsByTagName@IDDocumentImpl@@UBEPAVIDOM_NodeList@@PBG@Z 120b63b0 f   IDDocumentImpl.obj
 0001:000b53c0       ?getImplementation@IDDocumentImpl@@UBEPAVIDOM_DOMImplementation@@XZ 120b63c0 f   IDDocumentImpl.obj
 0001:000b53d0       ?insertBefore@IDDocumentImpl@@UAEPAVIDOM_Node@@PAV2@0@Z 120b63d0 f   IDDocumentImpl.obj
 0001:000b5470       ?isXMLName@IDDocumentImpl@@SA_NPBG@Z 120b6470 f   IDDocumentImpl.obj
 0001:000b54c0       ?removeChild@IDDocumentImpl@@UAEPAVIDOM_Node@@PAV2@@Z 120b64c0 f   IDDocumentImpl.obj
 0001:000b5510       ?importNode@IDDocumentImpl@@UAEPAVIDOM_Node@@PAV2@_N@Z 120b6510 f   IDDocumentImpl.obj
 0001:000b5940       ?createElementNS@IDDocumentImpl@@UAEPAVIDOM_Element@@PBG0@Z 120b6940 f   IDDocumentImpl.obj
 0001:000b5a10       ?createAttributeNS@IDDocumentImpl@@UAEPAVIDOM_Attr@@PBG0@Z 120b6a10 f   IDDocumentImpl.obj
 0001:000b5ae0       ?getElementsByTagNameNS@IDDocumentImpl@@UBEPAVIDOM_NodeList@@PBG0@Z 120b6ae0 f   IDDocumentImpl.obj
 0001:000b5b00       ?getElementById@IDDocumentImpl@@UBEPAVIDOM_Element@@PBG@Z 120b6b00 f   IDDocumentImpl.obj
 0001:000b5b30       ?indexofQualifiedName@IDDocumentImpl@@SAHPBG@Z 120b6b30 f   IDDocumentImpl.obj
 0001:000b5ba0       ?createRange@IDDocumentImpl@@UAEPAVIDOM_Range@@XZ 120b6ba0 f   IDDocumentImpl.obj
 0001:000b5cd0       ?removeRange@IDDocumentImpl@@UAEXPAVIDRangeImpl@@@Z 120b6cd0 f   IDDocumentImpl.obj
 0001:000b5dd0       ?isKidOK@IDDocumentImpl@@SA_NPAVIDOM_Node@@0@Z 120b6dd0 f   IDDocumentImpl.obj
 0001:000b5e60       ?setUserData@IDDocumentImpl@@UAEXPAVIDOM_Node@@PAX@Z 120b6e60 f   IDDocumentImpl.obj
 0001:000b60d0       ?getUserData@IDDocumentImpl@@UBEPAXPBVIDOM_Node@@@Z 120b70d0 f   IDDocumentImpl.obj
 0001:000b6170       ?getUserData@IDDocumentImpl@@UBEPAXXZ 120b7170 f   IDDocumentImpl.obj
 0001:000b6190       ?setUserData@IDDocumentImpl@@UAEXPAX@Z 120b7190 f   IDDocumentImpl.obj
 0001:000b61d0       ?changed@IDDocumentImpl@@UAEXXZ 120b71d0 f   IDDocumentImpl.obj
 0001:000b61e0       ?validate@AbstractNumericValidator@@UAEXQBG@Z 120b71e0 f   IDDocumentImpl.obj
 0001:000b61e0       ?validate@DateTimeValidator@@UAEXQBG@Z 120b71e0 f   IDDocumentImpl.obj
 0001:000b61e0       ?appendChild@IDDocumentImpl@@UAEPAVIDOM_Node@@PAV2@@Z 120b71e0 f   IDDocumentImpl.obj
 0001:000b61f0       ?cloneString@IDDocumentImpl@@QAEPAGPBG@Z 120b71f0 f   IDDocumentImpl.obj
 0001:000b6240       ?getPooledString@IDDocumentImpl@@QAEPBGPBG@Z 120b7240 f   IDDocumentImpl.obj
 0001:000b6250       ?allocate@IDDocumentImpl@@QAEPAXI@Z 120b7250 f   IDDocumentImpl.obj
 0001:000b6440       ?deleteHeap@IDDocumentImpl@@QAEXXZ 120b7440 f   IDDocumentImpl.obj
 0001:000b6470       ?getDeepNodeList@IDDocumentImpl@@QAEPAVIDOM_NodeList@@PBVIDOM_Node@@PBG@Z 120b7470 f   IDDocumentImpl.obj
 0001:000b6760       ?getDeepNodeList@IDDocumentImpl@@QAEPAVIDOM_NodeList@@PBVIDOM_Node@@PBG1@Z 120b7760 f   IDDocumentImpl.obj
 0001:000b6a60       ?removeAll@?$IDDeepNodeListPool@VIDDeepNodeListImpl@@@@QAEXXZ 120b7a60 f i IDDocumentImpl.obj
 0001:000b6ae0       ?findBucketElem@?$IDDeepNodeListPool@VIDDeepNodeListImpl@@@@AAEPAU?$IDDeepNodeListPoolTableBucketElem@VIDDeepNodeListImpl@@@@QBXQBG1AAI@Z 120b7ae0 f i IDDocumentImpl.obj
 0001:000b6bc0       ??0IDDocumentTypeImpl@@QAE@PAVIDOM_Document@@PBG@Z 120b7bc0 f   IDDocumentTypeImpl.obj
 0001:000b6da0       ??_EIDDocumentTypeImpl@@UAEPAXI@Z 120b7da0 f i IDDocumentTypeImpl.obj
 0001:000b6e00       ??0IDDocumentTypeImpl@@QAE@PAVIDOM_Document@@PBG11@Z 120b7e00 f   IDDocumentTypeImpl.obj
 0001:000b70c0       ??0IDDocumentTypeImpl@@QAE@ABV0@_N@Z 120b80c0 f   IDDocumentTypeImpl.obj
 0001:000b7300       ??1IDDocumentTypeImpl@@UAE@XZ 120b8300 f   IDDocumentTypeImpl.obj
 0001:000b73d0       ?cloneNode@IDDocumentTypeImpl@@UBEPAVIDOM_Node@@_N@Z 120b83d0 f   IDDocumentTypeImpl.obj
 0001:000b7490       ?setOwnerDocument@IDDocumentTypeImpl@@UAEXPAVIDOM_Document@@@Z 120b8490 f   IDDocumentTypeImpl.obj
 0001:000b7590       ?setReadOnly@IDDocumentTypeImpl@@UAEX_N0@Z 120b8590 f   IDDocumentTypeImpl.obj
 0001:000b75d0       ?isIntSubsetReading@IDDocumentTypeImpl@@ABE_NXZ 120b85d0 f   IDDocumentTypeImpl.obj
 0001:000b75e0       ?setPublicId@IDDocumentTypeImpl@@EAEXPBG@Z 120b85e0 f   IDDocumentTypeImpl.obj
 0001:000b7670       ?setSystemId@IDDocumentTypeImpl@@EAEXPBG@Z 120b8670 f   IDDocumentTypeImpl.obj
 0001:000b7700       ?setInternalSubset@IDDocumentTypeImpl@@EAEXPBG@Z 120b8700 f   IDDocumentTypeImpl.obj
 0001:000b7790       ?insertBefore@IDEntityImpl@@UAEPAVIDOM_Node@@PAV2@0@Z 120b8790 f   IDDocumentTypeImpl.obj
 0001:000b7790       ?insertBefore@IDEntityReferenceImpl@@UAEPAVIDOM_Node@@PAV2@0@Z 120b8790 f   IDDocumentTypeImpl.obj
 0001:000b7790       ?insertBefore@IDDocumentFragmentImpl@@UAEPAVIDOM_Node@@PAV2@0@Z 120b8790 f   IDDocumentTypeImpl.obj
 0001:000b7790       ?insertBefore@IDAttrImpl@@UAEPAVIDOM_Node@@PAV2@0@Z 120b8790 f   IDDocumentTypeImpl.obj
 0001:000b7790       ?insertBefore@IDCDATASectionImpl@@UAEPAVIDOM_Node@@PAV2@0@Z 120b8790 f   IDDocumentTypeImpl.obj
 0001:000b7790       ?insertBefore@IDDocumentTypeImpl@@UAEPAVIDOM_Node@@PAV2@0@Z 120b8790 f   IDDocumentTypeImpl.obj
 0001:000b7790       ?insertBefore@IDElementImpl@@UAEPAVIDOM_Node@@PAV2@0@Z 120b8790 f   IDDocumentTypeImpl.obj
 0001:000b77b0       ?replaceChild@IDCDATASectionImpl@@UAEPAVIDOM_Node@@PAV2@0@Z 120b87b0 f   IDDocumentTypeImpl.obj
 0001:000b77b0       ?replaceChild@IDElementImpl@@UAEPAVIDOM_Node@@PAV2@0@Z 120b87b0 f   IDDocumentTypeImpl.obj
 0001:000b77b0       ?replaceChild@IDEntityImpl@@UAEPAVIDOM_Node@@PAV2@0@Z 120b87b0 f   IDDocumentTypeImpl.obj
 0001:000b77b0       ?replaceChild@IDDocumentFragmentImpl@@UAEPAVIDOM_Node@@PAV2@0@Z 120b87b0 f   IDDocumentTypeImpl.obj
 0001:000b77b0       ?replaceChild@IDAttrImpl@@UAEPAVIDOM_Node@@PAV2@0@Z 120b87b0 f   IDDocumentTypeImpl.obj
 0001:000b77b0       ?replaceChild@IDDocumentTypeImpl@@UAEPAVIDOM_Node@@PAV2@0@Z 120b87b0 f   IDDocumentTypeImpl.obj
 0001:000b77b0       ?replaceChild@IDDocumentImpl@@UAEPAVIDOM_Node@@PAV2@0@Z 120b87b0 f   IDDocumentTypeImpl.obj
 0001:000b77b0       ?replaceChild@IDEntityReferenceImpl@@UAEPAVIDOM_Node@@PAV2@0@Z 120b87b0 f   IDDocumentTypeImpl.obj
 0001:000b77d0       ??_EIDDOMImplementation@@UAEPAXI@Z 120b87d0 f i IDDOMImplementation.obj
 0001:000b77d0       ??_GIDDOMImplementation@@UAEPAXI@Z 120b87d0 f i IDDOMImplementation.obj
 0001:000b77f0       ??1IDDOMImplementation@@UAE@XZ 120b87f0 f   IDDOMImplementation.obj
 0001:000b7800       ?getImplementation@IDDOMImplementation@@SAPAVIDOM_DOMImplementation@@XZ 120b8800 f   IDDOMImplementation.obj
 0001:000b7920       ?getImplementation@IDOM_DOMImplementation@@SAPAV1@XZ 120b8920 f   IDDOMImplementation.obj
 0001:000b7930       ?hasFeature@IDDOMImplementation@@UAE_NPBG0@Z 120b8930 f   IDDOMImplementation.obj
 0001:000b7a50       ?createDocumentType@IDDOMImplementation@@UAEPAVIDOM_DocumentType@@PBG00@Z 120b8a50 f   IDDOMImplementation.obj
 0001:000b7af0       ?createDocument@IDDOMImplementation@@UAEPAVIDOM_Document@@PBG0PAVIDOM_DocumentType@@@Z 120b8af0 f   IDDOMImplementation.obj
 0001:000b7b60       ?createDocument@IDDOMImplementation@@UAEPAVIDOM_Document@@XZ 120b8b60 f   IDDOMImplementation.obj
 0001:000b7bc0       ??0IDElementImpl@@QAE@PAVIDOM_Document@@PBG@Z 120b8bc0 f   IDElementImpl.obj
 0001:000b7d00       ??_EIDElementImpl@@UAEPAXI@Z 120b8d00 f i IDElementImpl.obj
 0001:000b7d60       ??0IDElementImpl@@QAE@ABV0@_N@Z 120b8d60 f   IDElementImpl.obj
 0001:000b7ee0       ??1IDElementImpl@@UAE@XZ   120b8ee0 f   IDElementImpl.obj
 0001:000b7f50       ?cloneNode@IDElementImpl@@UBEPAVIDOM_Node@@_N@Z 120b8f50 f   IDElementImpl.obj
 0001:000b7fc0       ?getAttribute@IDElementImpl@@UBEPBGPBG@Z 120b8fc0 f   IDElementImpl.obj
 0001:000b7fe0       ?getAttributeNode@IDElementImpl@@UBEPAVIDOM_Attr@@PBG@Z 120b8fe0 f   IDElementImpl.obj
 0001:000b7ff0       ?getElementsByTagName@IDElementImpl@@UBEPAVIDOM_NodeList@@PBG@Z 120b8ff0 f   IDElementImpl.obj
 0001:000b8010       ?removeAttribute@IDElementImpl@@UAEXPBG@Z 120b9010 f   IDElementImpl.obj
 0001:000b8070       ?removeAttributeNode@IDElementImpl@@UAEPAVIDOM_Attr@@PAV2@@Z 120b9070 f   IDElementImpl.obj
 0001:000b8100       ?setAttribute@IDElementImpl@@UAEXPBG0@Z 120b9100 f   IDElementImpl.obj
 0001:000b8180       ?setAttributeNode@IDElementImpl@@UAEPAVIDOM_Attr@@PAV2@@Z 120b9180 f   IDElementImpl.obj
 0001:000b8210       ?setNodeValue@IDDocumentImpl@@UAEXPBG@Z 120b9210 f   IDElementImpl.obj
 0001:000b8210       ?setNodeValue@IDElementImpl@@UAEXPBG@Z 120b9210 f   IDElementImpl.obj
 0001:000b8210       ?setNodeValue@IDDocumentTypeImpl@@UAEXPBG@Z 120b9210 f   IDElementImpl.obj
 0001:000b8210       ?setNodeValue@IDDocumentFragmentImpl@@UAEXPBG@Z 120b9210 f   IDElementImpl.obj
 0001:000b8210       ?setNodeValue@IDNotationImpl@@UAEXPBG@Z 120b9210 f   IDElementImpl.obj
 0001:000b8210       ?setNodeValue@IDEntityImpl@@UAEXPBG@Z 120b9210 f   IDElementImpl.obj
 0001:000b8210       ?setNodeValue@IDEntityReferenceImpl@@UAEXPBG@Z 120b9210 f   IDElementImpl.obj
 0001:000b8220       ?setReadOnly@IDElementImpl@@UAEX_N0@Z 120b9220 f   IDElementImpl.obj
 0001:000b8250       ?getAttributeNS@IDElementImpl@@UBEPBGPBG0@Z 120b9250 f   IDElementImpl.obj
 0001:000b8280       ?setAttributeNS@IDElementImpl@@UAEXPBG00@Z 120b9280 f   IDElementImpl.obj
 0001:000b82f0       ?removeAttributeNS@IDElementImpl@@UAEXPBG0@Z 120b92f0 f   IDElementImpl.obj
 0001:000b8350       ?getAttributeNodeNS@IDElementImpl@@UBEPAVIDOM_Attr@@PBG0@Z 120b9350 f   IDElementImpl.obj
 0001:000b8370       ?setAttributeNodeNS@IDElementImpl@@UAEPAVIDOM_Attr@@PAV2@@Z 120b9370 f   IDElementImpl.obj
 0001:000b8410       ?getElementsByTagNameNS@IDElementImpl@@UBEPAVIDOM_NodeList@@PBG0@Z 120b9410 f   IDElementImpl.obj
 0001:000b8430       ?hasAttributes@IDElementImpl@@UBE_NXZ 120b9430 f   IDElementImpl.obj
 0001:000b8450       ?hasAttribute@IDElementImpl@@UBE_NPBG@Z 120b9450 f   IDElementImpl.obj
 0001:000b8470       ?hasAttributeNS@IDElementImpl@@UBE_NPBG0@Z 120b9470 f   IDElementImpl.obj
 0001:000b8490       ?getDefaultAttributes@IDElementImpl@@UAEPAVIDAttrMapImpl@@XZ 120b9490 f   IDElementImpl.obj
 0001:000b8500       ?setupDefaultAttributes@IDElementImpl@@UAEXXZ 120b9500 f   IDElementImpl.obj
 0001:000b85b0       ?isSupported@IDEntityImpl@@UBE_NPBG0@Z 120b95b0 f   IDElementImpl.obj
 0001:000b85b0       ?isSupported@IDElementImpl@@UBE_NPBG0@Z 120b95b0 f   IDElementImpl.obj
 0001:000b85b0       ?isSupported@IDDocumentImpl@@UBE_NPBG0@Z 120b95b0 f   IDElementImpl.obj
 0001:000b85b0       ?isSupported@IDDocumentTypeImpl@@UBE_NPBG0@Z 120b95b0 f   IDElementImpl.obj
 0001:000b85b0       ?isSupported@IDTextImpl@@UBE_NPBG0@Z 120b95b0 f   IDElementImpl.obj
 0001:000b85b0       ?isSupported@IDAttrImpl@@UBE_NPBG0@Z 120b95b0 f   IDElementImpl.obj
 0001:000b85b0       ?isSupported@IDNotationImpl@@UBE_NPBG0@Z 120b95b0 f   IDElementImpl.obj
 0001:000b85b0       ?isSupported@IDDocumentFragmentImpl@@UBE_NPBG0@Z 120b95b0 f   IDElementImpl.obj
 0001:000b85b0       ?isSupported@IDEntityReferenceImpl@@UBE_NPBG0@Z 120b95b0 f   IDElementImpl.obj
 0001:000b85b0       ?isSupported@IDProcessingInstructionImpl@@UBE_NPBG0@Z 120b95b0 f   IDElementImpl.obj
 0001:000b85b0       ?isSupported@IDCommentImpl@@UBE_NPBG0@Z 120b95b0 f   IDElementImpl.obj
 0001:000b85b0       ?isSupported@IDCDATASectionImpl@@UBE_NPBG0@Z 120b95b0 f   IDElementImpl.obj
 0001:000b85d0       ??0IDElementNSImpl@@QAE@PAVIDOM_Document@@PBG@Z 120b95d0 f   IDElementNSImpl.obj
 0001:000b8600       ??_EIDElementNSImpl@@UAEPAXI@Z 120b9600 f i IDElementNSImpl.obj
 0001:000b8660       ??0IDElementNSImpl@@QAE@PAVIDOM_Document@@PBG1@Z 120b9660 f   IDElementNSImpl.obj
 0001:000b87d0       ??0IDElementNSImpl@@QAE@ABV0@_N@Z 120b97d0 f   IDElementNSImpl.obj
 0001:000b8810       ?cloneNode@IDElementNSImpl@@UBEPAVIDOM_Node@@_N@Z 120b9810 f   IDElementNSImpl.obj
 0001:000b8890       ?setPrefix@IDElementNSImpl@@UAEXPBG@Z 120b9890 f   IDElementNSImpl.obj
 0001:000b8aa0       ??0IDEntityImpl@@QAE@PAVIDOM_Document@@PBG@Z 120b9aa0 f   IDEntityImpl.obj
 0001:000b8b30       ??_EIDEntityImpl@@UAEPAXI@Z 120b9b30 f i IDEntityImpl.obj
 0001:000b8b90       ??0IDEntityImpl@@QAE@ABV0@_N@Z 120b9b90 f   IDEntityImpl.obj
 0001:000b8c40       ??1IDEntityImpl@@UAE@XZ    120b9c40 f   IDEntityImpl.obj
 0001:000b8ca0       ?cloneNode@IDEntityImpl@@UBEPAVIDOM_Node@@_N@Z 120b9ca0 f   IDEntityImpl.obj
 0001:000b8d10       ?getNodeType@IDEntityImpl@@UBEFXZ 120b9d10 f   IDEntityImpl.obj
 0001:000b8d10       ?getNodeType@EntityImpl@@UAEFXZ 120b9d10 f   IDEntityImpl.obj
 0001:000b8d20       ?getDocumentElement@IDDocumentImpl@@UBEPAVIDOM_Element@@XZ 120b9d20 f   IDEntityImpl.obj
 0001:000b8d20       ?getPublicId@IDEntityImpl@@UBEPBGXZ 120b9d20 f   IDEntityImpl.obj
 0001:000b8d20       ?getNamespaceURI@IDAttrNSImpl@@UBEPBGXZ 120b9d20 f   IDEntityImpl.obj
 0001:000b8d30       ?setNotationName@IDEntityImpl@@UAEXPBG@Z 120b9d30 f   IDEntityImpl.obj
 0001:000b8d50       ?setPublicId@IDEntityImpl@@UAEXPBG@Z 120b9d50 f   IDEntityImpl.obj
 0001:000b8d70       ?setSystemId@IDEntityImpl@@UAEXPBG@Z 120b9d70 f   IDEntityImpl.obj
 0001:000b8d90       ?setEntityRef@IDEntityImpl@@UAEXPAVIDOM_EntityReference@@@Z 120b9d90 f   IDEntityImpl.obj
 0001:000b8da0       ?getNamespaceURI@IDElementNSImpl@@UBEPBGXZ 120b9da0 f   IDEntityImpl.obj
 0001:000b8da0       ?getNotations@IDDocumentTypeImpl@@UBEPAVIDOM_NamedNodeMap@@XZ 120b9da0 f   IDEntityImpl.obj
 0001:000b8da0       ?getEntityRef@IDEntityImpl@@UBEPAVIDOM_EntityReference@@XZ 120b9da0 f   IDEntityImpl.obj
 0001:000b8da0       ?getDoctype@DocumentImpl@@UAEPAVDocumentTypeImpl@@XZ 120b9da0 f   IDEntityImpl.obj
 0001:000b8db0       ?cloneEntityRefTree@IDEntityImpl@@ABEXXZ 120b9db0 f   IDEntityImpl.obj
 0001:000b8df0       ?getFirstChild@IDEntityImpl@@UBEPAVIDOM_Node@@XZ 120b9df0 f   IDEntityImpl.obj
 0001:000b8e30       ?getLastChild@IDEntityImpl@@UBEPAVIDOM_Node@@XZ 120b9e30 f   IDEntityImpl.obj
 0001:000b8e70       ?getChildNodes@IDEntityImpl@@UBEPAVIDOM_NodeList@@XZ 120b9e70 f   IDEntityImpl.obj
 0001:000b8eb0       ?hasChildNodes@IDEntityImpl@@UBE_NXZ 120b9eb0 f   IDEntityImpl.obj
 0001:000b8f00       ??0IDEntityReferenceImpl@@QAE@PAVIDOM_Document@@PBG@Z 120b9f00 f   IDEntityReferenceImpl.obj
 0001:000b8fa0       ??_EIDEntityReferenceImpl@@UAEPAXI@Z 120b9fa0 f i IDEntityReferenceImpl.obj
 0001:000b9000       ??0IDEntityReferenceImpl@@QAE@ABV0@_N@Z 120ba000 f   IDEntityReferenceImpl.obj
 0001:000b90b0       ??1IDEntityReferenceImpl@@UAE@XZ 120ba0b0 f   IDEntityReferenceImpl.obj
 0001:000b9120       ?cloneNode@IDEntityReferenceImpl@@UBEPAVIDOM_Node@@_N@Z 120ba120 f   IDEntityReferenceImpl.obj
 0001:000b9190       ?getAttributes@IDElementImpl@@UBEPAVIDOM_NamedNodeMap@@XZ 120ba190 f   IDEntityReferenceImpl.obj
 0001:000b9190       ?getName@IDDocumentTypeImpl@@UBEPBGXZ 120ba190 f   IDEntityReferenceImpl.obj
 0001:000b9190       ?getSystemId@IDEntityImpl@@UBEPBGXZ 120ba190 f   IDEntityReferenceImpl.obj
 0001:000b9190       ?getNodeName@IDDocumentTypeImpl@@UBEPBGXZ 120ba190 f   IDEntityReferenceImpl.obj
 0001:000b9190       ?getLocalName@IDAttrNSImpl@@UBEPBGXZ 120ba190 f   IDEntityReferenceImpl.obj
 0001:000b9190       ?getNodeName@IDEntityReferenceImpl@@UBEPBGXZ 120ba190 f   IDEntityReferenceImpl.obj
 0001:000b91a0       ?getNodeType@IDEntityReferenceImpl@@UBEFXZ 120ba1a0 f   IDEntityReferenceImpl.obj
 0001:000b91a0       ?getNodeType@EntityReferenceImpl@@UAEFXZ 120ba1a0 f   IDEntityReferenceImpl.obj
 0001:000b91b0       ?setReadOnly@IDEntityReferenceImpl@@UAEX_N0@Z 120ba1b0 f   IDEntityReferenceImpl.obj
 0001:000b91f0       ?getParentNode@IDElementImpl@@UBEPAVIDOM_Node@@XZ 120ba1f0 f   IDEntityReferenceImpl.obj
 0001:000b91f0       ?getParentNode@IDDocumentTypeImpl@@UBEPAVIDOM_Node@@XZ 120ba1f0 f   IDEntityReferenceImpl.obj
 0001:000b91f0       ?getParentNode@IDCDATASectionImpl@@UBEPAVIDOM_Node@@XZ 120ba1f0 f   IDEntityReferenceImpl.obj
 0001:000b91f0       ?getParentNode@IDEntityReferenceImpl@@UBEPAVIDOM_Node@@XZ 120ba1f0 f   IDEntityReferenceImpl.obj
 0001:000b9200       ?getPreviousSibling@IDCDATASectionImpl@@UBEPAVIDOM_Node@@XZ 120ba200 f   IDEntityReferenceImpl.obj
 0001:000b9200       ?getPreviousSibling@IDElementImpl@@UBEPAVIDOM_Node@@XZ 120ba200 f   IDEntityReferenceImpl.obj
 0001:000b9200       ?getPreviousSibling@IDEntityReferenceImpl@@UBEPAVIDOM_Node@@XZ 120ba200 f   IDEntityReferenceImpl.obj
 0001:000b9200       ?getPreviousSibling@IDDocumentTypeImpl@@UBEPAVIDOM_Node@@XZ 120ba200 f   IDEntityReferenceImpl.obj
 0001:000b9210       ??0IDNamedNodeMapImpl@@QAE@PAVIDOM_Node@@@Z 120ba210 f   IDNamedNodeMapImpl.obj
 0001:000b9230       ??1IDNamedNodeMapImpl@@UAE@XZ 120ba230 f   IDNamedNodeMapImpl.obj
 0001:000b9240       ?readOnly@IDNamedNodeMapImpl@@IAE_NXZ 120ba240 f   IDNamedNodeMapImpl.obj
 0001:000b9260       ?cloneMap@IDNamedNodeMapImpl@@UAEPAV1@PAVIDOM_Node@@@Z 120ba260 f   IDNamedNodeMapImpl.obj
 0001:000b9390       ?removeAll@IDNamedNodeMapImpl@@UAEXXZ 120ba390 f   IDNamedNodeMapImpl.obj
 0001:000b93e0       ?findNamePoint@IDNamedNodeMapImpl@@UBEHPBG@Z 120ba3e0 f   IDNamedNodeMapImpl.obj
 0001:000b9450       ?getNamedItem@IDNamedNodeMapImpl@@UBEPAVIDOM_Node@@PBG@Z 120ba450 f   IDNamedNodeMapImpl.obj
 0001:000b9480       ?removeNamedItem@IDNamedNodeMapImpl@@UAEPAVIDOM_Node@@PBG@Z 120ba480 f   IDNamedNodeMapImpl.obj
 0001:000b9520       ?setNamedItem@IDNamedNodeMapImpl@@UAEPAVIDOM_Node@@PAV2@@Z 120ba520 f   IDNamedNodeMapImpl.obj
 0001:000b9690       ?setReadOnly@IDNamedNodeMapImpl@@UAEX_N0@Z 120ba690 f   IDNamedNodeMapImpl.obj
 0001:000b96e0       ?findNamePoint@IDNamedNodeMapImpl@@UBEHPBG0@Z 120ba6e0 f   IDNamedNodeMapImpl.obj
 0001:000b97d0       ?getNamedItemNS@IDNamedNodeMapImpl@@UBEPAVIDOM_Node@@PBG0@Z 120ba7d0 f   IDNamedNodeMapImpl.obj
 0001:000b9800       ?setNamedItemNS@IDNamedNodeMapImpl@@UAEPAVIDOM_Node@@PAV2@@Z 120ba800 f   IDNamedNodeMapImpl.obj
 0001:000b9990       ?removeNamedItemNS@IDNamedNodeMapImpl@@UAEPAVIDOM_Node@@PBG0@Z 120ba990 f   IDNamedNodeMapImpl.obj
 0001:000b9a30       ?cloneContent@IDNamedNodeMapImpl@@MAEXPBV1@@Z 120baa30 f   IDNamedNodeMapImpl.obj
 0001:000b9b50       ??0IDNodeIDMap@@QAE@HPAVIDOM_Document@@@Z 120bab50 f   IDNodeIDMap.obj
 0001:000b9c40       ??_EIDNodeIDMap@@UAEPAXI@Z 120bac40 f i IDNodeIDMap.obj
 0001:000b9c40       ??_GIDNodeIDMap@@UAEPAXI@Z 120bac40 f i IDNodeIDMap.obj
 0001:000b9c70       ?add@IDNodeIDMap@@QAEXPAVIDOM_Attr@@@Z 120bac70 f   IDNodeIDMap.obj
 0001:000b9ce0       ?remove@IDNodeIDMap@@QAEXPAVIDOM_Attr@@@Z 120bace0 f   IDNodeIDMap.obj
 0001:000b9d40       ?find@IDNodeIDMap@@QAEPAVIDOM_Attr@@PBG@Z 120bad40 f   IDNodeIDMap.obj
 0001:000b9db0       ?growTable@IDNodeIDMap@@AAEXXZ 120badb0 f   IDNodeIDMap.obj
 0001:000b9ee0       ??0IDNodeImpl@@QAE@PAVIDOM_Node@@@Z 120baee0 f   IDNodeImpl.obj
 0001:000b9f00       ??0IDNodeImpl@@QAE@ABV0@@Z 120baf00 f   IDNodeImpl.obj
 0001:000b9f70       ?getChildNodes@IDNodeImpl@@QBEPAVIDOM_NodeList@@XZ 120baf70 f   IDNodeImpl.obj
 0001:000ba0b0       ?getOwnerDocument@IDNodeImpl@@QBEPAVIDOM_Document@@XZ 120bb0b0 f   IDNodeImpl.obj
 0001:000ba0e0       ?setOwnerDocument@IDNodeImpl@@QAEXPAVIDOM_Document@@@Z 120bb0e0 f   IDNodeImpl.obj
 0001:000ba100       ?insertBefore@IDNodeImpl@@QAEPAVIDOM_Node@@PAV2@0@Z 120bb100 f   IDNodeImpl.obj
 0001:000ba100       ?appendChild@IDNodeImpl@@QAEPAVIDOM_Node@@PAV2@@Z 120bb100 f   IDNodeImpl.obj
 0001:000ba100       ?replaceChild@IDNodeImpl@@QAEPAVIDOM_Node@@PAV2@0@Z 120bb100 f   IDNodeImpl.obj
 0001:000ba120       ?removeChild@IDNodeImpl@@QAEPAVIDOM_Node@@PAV2@@Z 120bb120 f   IDNodeImpl.obj
 0001:000ba140       ?setNodeValue@IDNodeImpl@@QAEXPBG@Z 120bb140 f   IDNodeImpl.obj
 0001:000ba180       ?setReadOnly@IDNodeImpl@@QAEX_N0@Z 120bb180 f   IDNodeImpl.obj
 0001:000ba200       ?setUserData@IDNodeImpl@@QAEXPAX@Z 120bb200 f   IDNodeImpl.obj
 0001:000ba270       ?isSupported@IDNodeImpl@@QBE_NPBG0@Z 120bb270 f   IDNodeImpl.obj
 0001:000ba290       ?setPrefix@IDNodeImpl@@QAEXPBG@Z 120bb290 f   IDNodeImpl.obj
 0001:000ba2b0       ?getXmlString@IDNodeImpl@@SAPBGXZ 120bb2b0 f   IDNodeImpl.obj
 0001:000ba2c0       ?getXmlURIString@IDNodeImpl@@SAPBGXZ 120bb2c0 f   IDNodeImpl.obj
 0001:000ba2d0       ?getXmlnsString@IDNodeImpl@@SAPBGXZ 120bb2d0 f   IDNodeImpl.obj
 0001:000ba2e0       ?getXmlnsURIString@IDNodeImpl@@SAPBGXZ 120bb2e0 f   IDNodeImpl.obj
 0001:000ba2f0       ?mapPrefix@IDNodeImpl@@SAPBGPBG0F@Z 120bb2f0 f   IDNodeImpl.obj
 0001:000ba3e0       ??0IDNodeIteratorImpl@@IAE@XZ 120bb3e0 f   IDNodeIteratorImpl.obj
 0001:000ba400       ??_EIDNodeIteratorImpl@@UAEPAXI@Z 120bb400 f i IDNodeIteratorImpl.obj
 0001:000ba460       ??1IDNodeIteratorImpl@@UAE@XZ 120bb460 f   IDNodeIteratorImpl.obj
 0001:000ba470       ?detach@IDNodeIteratorImpl@@UAEXXZ 120bb470 f   IDNodeIteratorImpl.obj
 0001:000ba480       ??0IDNodeIteratorImpl@@QAE@PAVIDOM_Node@@KPAVIDOM_NodeFilter@@_N@Z 120bb480 f   IDNodeIteratorImpl.obj
 0001:000ba4c0       ??0IDNodeIteratorImpl@@QAE@ABV0@@Z 120bb4c0 f   IDNodeIteratorImpl.obj
 0001:000ba500       ??4IDNodeIteratorImpl@@QAEAAV0@ABV0@@Z 120bb500 f   IDNodeIteratorImpl.obj
 0001:000ba540       ?getExpandEntityReferences@IDNodeIteratorImpl@@UAE_NXZ 120bb540 f   IDNodeIteratorImpl.obj
 0001:000ba550       ?nextNode@IDNodeIteratorImpl@@UAEPAVIDOM_Node@@XZ 120bb550 f   IDNodeIteratorImpl.obj
 0001:000ba630       ?previousNode@IDNodeIteratorImpl@@UAEPAVIDOM_Node@@XZ 120bb630 f   IDNodeIteratorImpl.obj
 0001:000ba7a0       ?acceptNode@IDNodeIteratorImpl@@AAE_NPAVIDOM_Node@@@Z 120bb7a0 f   IDNodeIteratorImpl.obj
 0001:000ba840       ?matchNodeOrParent@IDNodeIteratorImpl@@AAEPAVIDOM_Node@@PAV2@@Z 120bb840 f   IDNodeIteratorImpl.obj
 0001:000ba870       ?nextNode@IDNodeIteratorImpl@@AAEPAVIDOM_Node@@PAV2@_N@Z 120bb870 f   IDNodeIteratorImpl.obj
 0001:000ba920       ?previousNode@IDNodeIteratorImpl@@AAEPAVIDOM_Node@@PAV2@@Z 120bb920 f   IDNodeIteratorImpl.obj
 0001:000ba9b0       ?removeNode@IDNodeIteratorImpl@@AAEXPAVIDOM_Node@@@Z 120bb9b0 f   IDNodeIteratorImpl.obj
 0001:000bab70       ??0IDNodeListImpl@@QAE@PAVIDOM_Node@@@Z 120bbb70 f   IDNodeListImpl.obj
 0001:000bab90       ??_EIDNodeListImpl@@UAEPAXI@Z 120bbb90 f i IDNodeListImpl.obj
 0001:000babf0       ??1IDNodeListImpl@@UAE@XZ  120bbbf0 f   IDNodeListImpl.obj
 0001:000babf0       ??1IDDeepNodeListImpl@@UAE@XZ 120bbbf0 f   IDNodeListImpl.obj
 0001:000bac00       ?getLength@IDNodeListImpl@@UAEIXZ 120bbc00 f   IDNodeListImpl.obj
 0001:000bac30       ?item@IDNodeListImpl@@UAEPAVIDOM_Node@@I@Z 120bbc30 f   IDNodeListImpl.obj
 0001:000bac70       ??0IDNodeVector@@QAE@PAVIDOM_Document@@@Z 120bbc70 f   IDNodeVector.obj
 0001:000bacb0       ??0IDNodeVector@@QAE@PAVIDOM_Document@@I@Z 120bbcb0 f   IDNodeVector.obj
 0001:000bacf0       ?addElement@IDNodeVector@@QAEXPAVIDOM_Node@@@Z 120bbcf0 f   IDNodeVector.obj
 0001:000bad60       ?elementAt@NodeVector@@QAEPAVNodeImpl@@I@Z 120bbd60 f   IDNodeVector.obj
 0001:000bad60       ?elementAt@IDNodeVector@@QAEPAVIDOM_Node@@I@Z 120bbd60 f   IDNodeVector.obj
 0001:000bad80       ?insertElementAt@IDNodeVector@@QAEXPAVIDOM_Node@@I@Z 120bbd80 f   IDNodeVector.obj
 0001:000bae10       ?removeElementAt@NodeVector@@QAEXI@Z 120bbe10 f   IDNodeVector.obj
 0001:000bae10       ?removeElementAt@IDNodeVector@@QAEXI@Z 120bbe10 f   IDNodeVector.obj
 0001:000bae40       ?reset@IDNodeVector@@QAEXXZ 120bbe40 f   IDNodeVector.obj
 0001:000bae40       ?reset@NodeVector@@QAEXXZ  120bbe40 f   IDNodeVector.obj
 0001:000bae50       ?setElementAt@NodeVector@@QAEXPAVNodeImpl@@I@Z 120bbe50 f   IDNodeVector.obj
 0001:000bae50       ?setElementAt@IDNodeVector@@QAEXPAVIDOM_Node@@I@Z 120bbe50 f   IDNodeVector.obj
 0001:000bae60       ??0IDNotationImpl@@QAE@PAVIDOM_Document@@PBG@Z 120bbe60 f   IDNotationImpl.obj
 0001:000baee0       ??_EIDNotationImpl@@UAEPAXI@Z 120bbee0 f i IDNotationImpl.obj
 0001:000baf40       ??0IDNotationImpl@@QAE@ABV0@_N@Z 120bbf40 f   IDNotationImpl.obj
 0001:000bafc0       ??1IDNotationImpl@@UAE@XZ  120bbfc0 f   IDNotationImpl.obj
 0001:000bb010       ?cloneNode@IDNotationImpl@@UBEPAVIDOM_Node@@_N@Z 120bc010 f   IDNotationImpl.obj
 0001:000bb0b0       ?getNodeType@IDNotationImpl@@UBEFXZ 120bc0b0 f   IDNotationImpl.obj
 0001:000bb0b0       ?getNodeType@NotationImpl@@UAEFXZ 120bc0b0 f   IDNotationImpl.obj
 0001:000bb0c0       ?setPublicId@IDNotationImpl@@UAEXPBG@Z 120bc0c0 f   IDNotationImpl.obj
 0001:000bb110       ?setSystemId@IDNotationImpl@@UAEXPBG@Z 120bc110 f   IDNotationImpl.obj
 0001:000bb160       ?insertBefore@IDCommentImpl@@UAEPAVIDOM_Node@@PAV2@0@Z 120bc160 f   IDNotationImpl.obj
 0001:000bb160       ?replaceChild@IDCommentImpl@@UAEPAVIDOM_Node@@PAV2@0@Z 120bc160 f   IDNotationImpl.obj
 0001:000bb160       ?replaceChild@IDNotationImpl@@UAEPAVIDOM_Node@@PAV2@0@Z 120bc160 f   IDNotationImpl.obj
 0001:000bb160       ?insertBefore@IDTextImpl@@UAEPAVIDOM_Node@@PAV2@0@Z 120bc160 f   IDNotationImpl.obj
 0001:000bb160       ?insertBefore@IDNotationImpl@@UAEPAVIDOM_Node@@PAV2@0@Z 120bc160 f   IDNotationImpl.obj
 0001:000bb160       ?replaceChild@IDTextImpl@@UAEPAVIDOM_Node@@PAV2@0@Z 120bc160 f   IDNotationImpl.obj
 0001:000bb160       ?insertBefore@IDProcessingInstructionImpl@@UAEPAVIDOM_Node@@PAV2@0@Z 120bc160 f   IDNotationImpl.obj
 0001:000bb160       ?replaceChild@IDProcessingInstructionImpl@@UAEPAVIDOM_Node@@PAV2@0@Z 120bc160 f   IDNotationImpl.obj
 0001:000bb180       ??0IDOM_DOMException@@QAE@XZ 120bc180 f   IDOM_DOMException.obj
 0001:000bb1a0       ??_EIDOM_DOMException@@UAEPAXI@Z 120bc1a0 f i IDOM_DOMException.obj
 0001:000bb200       ??0IDOM_DOMException@@QAE@FPBG@Z 120bc200 f   IDOM_DOMException.obj
 0001:000bb220       ??0IDOM_DOMException@@QAE@ABV0@@Z 120bc220 f   IDOM_DOMException.obj
 0001:000bb240       ??1IDOM_DOMException@@UAE@XZ 120bc240 f   IDOM_DOMException.obj
 0001:000bb250       ??0IDOM_RangeException@@QAE@XZ 120bc250 f   IDOM_RangeException.obj
 0001:000bb270       ??_EIDOM_RangeException@@UAEPAXI@Z 120bc270 f i IDOM_RangeException.obj
 0001:000bb2d0       ??0IDOM_RangeException@@QAE@W4RangeExceptionCode@0@PBG@Z 120bc2d0 f   IDOM_RangeException.obj
 0001:000bb300       ??0IDOM_RangeException@@QAE@ABV0@@Z 120bc300 f   IDOM_RangeException.obj
 0001:000bb330       ??1IDOM_RangeException@@UAE@XZ 120bc330 f   IDOM_RangeException.obj
 0001:000bb340       ??0IDParentNode@@QAE@PAVIDOM_Document@@@Z 120bc340 f   IDParentNode.obj
 0001:000bb370       ??0IDParentNode@@QAE@ABV0@@Z 120bc370 f   IDParentNode.obj
 0001:000bb3a0       ?changed@IDParentNode@@QAEXXZ 120bc3a0 f   IDParentNode.obj
 0001:000bb3c0       ?changes@IDParentNode@@QBEHXZ 120bc3c0 f   IDParentNode.obj
 0001:000bb3e0       ?appendChild@IDParentNode@@QAEPAVIDOM_Node@@PAV2@@Z 120bc3e0 f   IDParentNode.obj
 0001:000bb3f0       ?cloneChildren@IDParentNode@@QAEXPBVIDOM_Node@@@Z 120bc3f0 f   IDParentNode.obj
 0001:000bb430       ?getDocument@IDParentNode@@QBEPAVIDOM_Document@@XZ 120bc430 f   IDParentNode.obj
 0001:000bb430       ?getOwnerDocument@IDParentNode@@QBEPAVIDOM_Document@@XZ 120bc430 f   IDParentNode.obj
 0001:000bb430       ?getKey@KVStringPair@@QBEPBGXZ 120bc430 f   IDParentNode.obj
 0001:000bb430       ?getNodeValue@IDCharacterDataImpl@@QBEPBGXZ 120bc430 f   IDParentNode.obj
 0001:000bb430       ?getKey@KVStringPair@@QAEPAGXZ 120bc430 f   IDParentNode.obj
 0001:000bb430       ?getData@IDCharacterDataImpl@@QBEPBGXZ 120bc430 f   IDParentNode.obj
 0001:000bb440       ?setOwnerDocument@IDParentNode@@QAEXPAVIDOM_Document@@@Z 120bc440 f   IDParentNode.obj
 0001:000bb450       ?getChildNodes@IDParentNode@@QBEPAVIDOM_NodeList@@XZ 120bc450 f   IDParentNode.obj
 0001:000bb460       ?lastChild@IDParentNode@@QBEPAVIDOM_Node@@XZ 120bc460 f   IDParentNode.obj
 0001:000bb460       ?getLastChild@IDParentNode@@QBEPAVIDOM_Node@@XZ 120bc460 f   IDParentNode.obj
 0001:000bb490       ?lastChild@IDParentNode@@QAEXPAVIDOM_Node@@@Z 120bc490 f   IDParentNode.obj
 0001:000bb4c0       ?hasChildNodes@IDParentNode@@QBE_NXZ 120bc4c0 f   IDParentNode.obj
 0001:000bb4d0       ?insertBefore@IDParentNode@@QAEPAVIDOM_Node@@PAV2@0@Z 120bc4d0 f   IDParentNode.obj
 0001:000bb870       ?removeChild@IDParentNode@@QAEPAVIDOM_Node@@PAV2@@Z 120bc870 f   IDParentNode.obj
 0001:000bba70       ?replaceChild@IDParentNode@@QAEPAVIDOM_Node@@PAV2@0@Z 120bca70 f   IDParentNode.obj
 0001:000bba90       ?normalize@IDParentNode@@QAEXXZ 120bca90 f   IDParentNode.obj
 0001:000bbb10       ??0IDProcessingInstructionImpl@@QAE@PAVIDOM_Document@@PBG1@Z 120bcb10 f   IDProcessingInstructionImpl.obj
 0001:000bbbb0       ??_EIDProcessingInstructionImpl@@UAEPAXI@Z 120bcbb0 f i IDProcessingInstructionImpl.obj
 0001:000bbc10       ??0IDProcessingInstructionImpl@@QAE@ABV0@_N@Z 120bcc10 f   IDProcessingInstructionImpl.obj
 0001:000bbca0       ??1IDProcessingInstructionImpl@@UAE@XZ 120bcca0 f   IDProcessingInstructionImpl.obj
 0001:000bbd00       ?cloneNode@IDProcessingInstructionImpl@@UBEPAVIDOM_Node@@_N@Z 120bcd00 f   IDProcessingInstructionImpl.obj
 0001:000bbda0       ?getNodeType@ProcessingInstructionImpl@@UAEFXZ 120bcda0 f   IDProcessingInstructionImpl.obj
 0001:000bbda0       ?getNodeType@IDProcessingInstructionImpl@@UBEFXZ 120bcda0 f   IDProcessingInstructionImpl.obj
 0001:000bbdb0       ?setData@IDProcessingInstructionImpl@@UAEXPBG@Z 120bcdb0 f   IDProcessingInstructionImpl.obj
 0001:000bbdb0       ?setNodeValue@IDProcessingInstructionImpl@@UAEXPBG@Z 120bcdb0 f   IDProcessingInstructionImpl.obj
 0001:000bbe00       ?getNextSibling@ChildNode@@UAEPAVNodeImpl@@XZ 120bce00 f   IDProcessingInstructionImpl.obj
 0001:000bbe00       ?getLeft@CMBinaryOp@@QAEPAVCMNode@@XZ 120bce00 f   IDProcessingInstructionImpl.obj
 0001:000bbe00       ?getSystemId@SAXParseException@@QBEPBGXZ 120bce00 f   IDProcessingInstructionImpl.obj
 0001:000bbe00       ?getNodeName@IDProcessingInstructionImpl@@UBEPBGXZ 120bce00 f   IDProcessingInstructionImpl.obj
 0001:000bbe00       ?getChild@CMUnaryOp@@QAEPAVCMNode@@XZ 120bce00 f   IDProcessingInstructionImpl.obj
 0001:000bbe00       ?getSystemId@IDNotationImpl@@UBEPBGXZ 120bce00 f   IDProcessingInstructionImpl.obj
 0001:000bbe00       ?getData2@ModifierOp@@UBEHXZ 120bce00 f   IDProcessingInstructionImpl.obj
 0001:000bbe00       ?getAttributes@ElementDefinitionImpl@@UAEPAVNamedNodeMapImpl@@XZ 120bce00 f   IDProcessingInstructionImpl.obj
 0001:000bbe00       ?getTarget@IDProcessingInstructionImpl@@UBEPBGXZ 120bce00 f   IDProcessingInstructionImpl.obj
 0001:000bbe00       ?getEndOffset@RangeImpl@@QBEIXZ 120bce00 f   IDProcessingInstructionImpl.obj
 0001:000bbe00       ?getYesFlow@ConditionOp@@UBEPBVOp@@XZ 120bce00 f   IDProcessingInstructionImpl.obj
 0001:000bbe00       ?getURI@CMAny@@QBEIXZ      120bce00 f   IDProcessingInstructionImpl.obj
 0001:000bbe10       ??0IDRangeImpl@@QAE@PAVIDOM_Document@@@Z 120bce10 f   IDRangeImpl.obj
 0001:000bbe40       ??_EIDRangeImpl@@UAEPAXI@Z 120bce40 f i IDRangeImpl.obj
 0001:000bbea0       ??0IDRangeImpl@@QAE@ABV0@@Z 120bcea0 f   IDRangeImpl.obj
 0001:000bbee0       ??1IDRangeImpl@@UAE@XZ     120bcee0 f   IDRangeImpl.obj
 0001:000bbef0       ?getCollapsed@IDRangeImpl@@UBE_NXZ 120bcef0 f   IDRangeImpl.obj
 0001:000bbf40       ?setStartContainer@IDRangeImpl@@AAEXPBVIDOM_Node@@@Z 120bcf40 f   IDRangeImpl.obj
 0001:000bbf80       ?setStartOffset@IDRangeImpl@@AAEXI@Z 120bcf80 f   IDRangeImpl.obj
 0001:000bbfc0       ?setEndContainer@IDRangeImpl@@AAEXPBVIDOM_Node@@@Z 120bcfc0 f   IDRangeImpl.obj
 0001:000bc000       ?setEndOffset@IDRangeImpl@@AAEXI@Z 120bd000 f   IDRangeImpl.obj
 0001:000bc040       ?setStart@IDRangeImpl@@UAEXPBVIDOM_Node@@I@Z 120bd040 f   IDRangeImpl.obj
 0001:000bc130       ?setEnd@IDRangeImpl@@UAEXPBVIDOM_Node@@I@Z 120bd130 f   IDRangeImpl.obj
 0001:000bc220       ?setStartBefore@IDRangeImpl@@UAEXPBVIDOM_Node@@@Z 120bd220 f   IDRangeImpl.obj
 0001:000bc370       ?setStartAfter@IDRangeImpl@@UAEXPBVIDOM_Node@@@Z 120bd370 f   IDRangeImpl.obj
 0001:000bc4b0       ?setEndBefore@IDRangeImpl@@UAEXPBVIDOM_Node@@@Z 120bd4b0 f   IDRangeImpl.obj
 0001:000bc600       ?setEndAfter@IDRangeImpl@@UAEXPBVIDOM_Node@@@Z 120bd600 f   IDRangeImpl.obj
 0001:000bc750       ?detach@IDRangeImpl@@UAEXXZ 120bd750 f   IDRangeImpl.obj
 0001:000bc7a0       ?collapse@IDRangeImpl@@UAEX_N@Z 120bd7a0 f   IDRangeImpl.obj
 0001:000bc800       ?selectNode@IDRangeImpl@@UAEXPBVIDOM_Node@@@Z 120bd800 f   IDRangeImpl.obj
 0001:000bc930       ?selectNodeContents@IDRangeImpl@@UAEXPBVIDOM_Node@@@Z 120bd930 f   IDRangeImpl.obj
 0001:000bca10       ?surroundContents@IDRangeImpl@@UAEXPAVIDOM_Node@@@Z 120bda10 f   IDRangeImpl.obj
 0001:000bcb60       ?compareBoundaryPoints@IDRangeImpl@@UBEFW4CompareHow@IDOM_Range@@PBV3@@Z 120bdb60 f   IDRangeImpl.obj
 0001:000bcdf0       ?deleteContents@IDRangeImpl@@UAEXXZ 120bddf0 f   IDRangeImpl.obj
 0001:000bce00       ?extractContents@IDRangeImpl@@UAEPAVIDOM_DocumentFragment@@XZ 120bde00 f   IDRangeImpl.obj
 0001:000bce30       ?cloneContents@IDRangeImpl@@UBEPAVIDOM_DocumentFragment@@XZ 120bde30 f   IDRangeImpl.obj
 0001:000bce40       ?insertNode@IDRangeImpl@@UAEXPAVIDOM_Node@@@Z 120bde40 f   IDRangeImpl.obj
 0001:000bcff0       ?cloneRange@IDRangeImpl@@UBEPAVIDOM_Range@@XZ 120bdff0 f   IDRangeImpl.obj
 0001:000bd050       ?toString@IDRangeImpl@@UBEPBGXZ 120be050 f   IDRangeImpl.obj
 0001:000bd3f0       ?getCommonAncestorContainer@IDRangeImpl@@UBEPBVIDOM_Node@@XZ 120be3f0 f   IDRangeImpl.obj
 0001:000bd400       ?isValidAncestorType@IDRangeImpl@@ABE_NPBVIDOM_Node@@@Z 120be400 f   IDRangeImpl.obj
 0001:000bd440       ?isAncestorOf@IDRangeImpl@@CA_NPBVIDOM_Node@@0@Z 120be440 f   IDRangeImpl.obj
 0001:000bd470       ?hasLegalRootContainer@IDRangeImpl@@ABE_NPBVIDOM_Node@@@Z 120be470 f   IDRangeImpl.obj
 0001:000bd4d0       ?isLegalContainedNode@IDRangeImpl@@ABE_NPBVIDOM_Node@@@Z 120be4d0 f   IDRangeImpl.obj
 0001:000bd520       ?indexOf@IDRangeImpl@@ABEGPBVIDOM_Node@@0@Z 120be520 f   IDRangeImpl.obj
 0001:000bd560       ?validateNode@IDRangeImpl@@ABEXPBVIDOM_Node@@@Z 120be560 f   IDRangeImpl.obj
 0001:000bd5e0       ?commonAncestorOf@IDRangeImpl@@ABEPBVIDOM_Node@@PBV2@0@Z 120be5e0 f   IDRangeImpl.obj
 0001:000bd870       ?checkIndex@IDRangeImpl@@ABEXPBVIDOM_Node@@I@Z 120be870 f   IDRangeImpl.obj
 0001:000bd930       ?nextNode@IDRangeImpl@@ABEPAVIDOM_Node@@PBV2@_N@Z 120be930 f   IDRangeImpl.obj
 0001:000bd9a0       ?traverseContents@IDRangeImpl@@AAEPAVIDOM_DocumentFragment@@W4TraversalType@1@@Z 120be9a0 f   IDRangeImpl.obj
 0001:000bdac0       ?traverseSameContainer@IDRangeImpl@@AAEPAVIDOM_DocumentFragment@@H@Z 120beac0 f   IDRangeImpl.obj
 0001:000bdca0       ?traverseCommonStartContainer@IDRangeImpl@@AAEPAVIDOM_DocumentFragment@@PAVIDOM_Node@@H@Z 120beca0 f   IDRangeImpl.obj
 0001:000bde00       ?traverseCommonEndContainer@IDRangeImpl@@AAEPAVIDOM_DocumentFragment@@PAVIDOM_Node@@H@Z 120bee00 f   IDRangeImpl.obj
 0001:000bdf30       ?traverseCommonAncestors@IDRangeImpl@@AAEPAVIDOM_DocumentFragment@@PAVIDOM_Node@@0H@Z 120bef30 f   IDRangeImpl.obj
 0001:000be0c0       ?traverseRightBoundary@IDRangeImpl@@AAEPAVIDOM_Node@@PAV2@H@Z 120bf0c0 f   IDRangeImpl.obj
 0001:000be380       ?traverseLeftBoundary@IDRangeImpl@@AAEPAVIDOM_Node@@PAV2@H@Z 120bf380 f   IDRangeImpl.obj
 0001:000be640       ?traverseNode@IDRangeImpl@@AAEPAVIDOM_Node@@PAV2@_N1H@Z 120bf640 f   IDRangeImpl.obj
 0001:000be710       ?traverseFullySelected@IDRangeImpl@@AAEPAVIDOM_Node@@PAV2@H@Z 120bf710 f   IDRangeImpl.obj
 0001:000be790       ?traversePartiallySelected@IDRangeImpl@@AAEPAVIDOM_Node@@PAV2@H@Z 120bf790 f   IDRangeImpl.obj
 0001:000be7b0       ?traverseTextNode@IDRangeImpl@@AAEPAVIDOM_Node@@PAV2@_NH@Z 120bf7b0 f   IDRangeImpl.obj
 0001:000beac0       ?getSelectedNode@IDRangeImpl@@AAEPAVIDOM_Node@@PAV2@H@Z 120bfac0 f   IDRangeImpl.obj
 0001:000beb10       ?checkReadOnly@IDRangeImpl@@AAEXPAVIDOM_Node@@0II@Z 120bfb10 f   IDRangeImpl.obj
 0001:000bec20       ?recurseTreeAndCheck@IDRangeImpl@@AAEXPAVIDOM_Node@@0@Z 120bfc20 f   IDRangeImpl.obj
 0001:000beca0       ?removeChild@IDRangeImpl@@AAEPAVIDOM_Node@@PAV2@0@Z 120bfca0 f   IDRangeImpl.obj
 0001:000becc0       ?receiveReplacedText@IDRangeImpl@@QAEXPAVIDOM_Node@@@Z 120bfcc0 f   IDRangeImpl.obj
 0001:000bed10       ?updateRangeForDeletedText@IDRangeImpl@@QAEXPAVIDOM_Node@@IH@Z 120bfd10 f   IDRangeImpl.obj
 0001:000bed90       ?updateRangeForDeletedNode@IDRangeImpl@@QAEXPAVIDOM_Node@@@Z 120bfd90 f   IDRangeImpl.obj
 0001:000bef80       ?updateRangeForInsertedNode@IDRangeImpl@@QAEXPAVIDOM_Node@@@Z 120bff80 f   IDRangeImpl.obj
 0001:000bf030       ?updateSplitInfo@IDRangeImpl@@QAEXPAVIDOM_Text@@0I@Z 120c0030 f   IDRangeImpl.obj
 0001:000bf080       ??1?$RefVectorOf@VIDOM_Node@@@@QAE@XZ 120c0080 f i IDRangeImpl.obj
 0001:000bf0c0       ??0IDStringPool@@QAE@HPAVIDDocumentImpl@@@Z 120c00c0 f   IDStringPool.obj
 0001:000bf100       ?getPooledString@IDStringPool@@QAEPBGPBG@Z 120c0100 f   IDStringPool.obj
 0001:000bf1a0       ??0IDTextImpl@@QAE@PAVIDOM_Document@@PBG@Z 120c01a0 f   IDTextImpl.obj
 0001:000bf230       ??_EIDTextImpl@@UAEPAXI@Z  120c0230 f i IDTextImpl.obj
 0001:000bf290       ??0IDTextImpl@@QAE@ABV0@_N@Z 120c0290 f   IDTextImpl.obj
 0001:000bf320       ??1IDTextImpl@@UAE@XZ      120c0320 f   IDTextImpl.obj
 0001:000bf390       ?cloneNode@IDTextImpl@@UBEPAVIDOM_Node@@_N@Z 120c0390 f   IDTextImpl.obj
 0001:000bf430       ?getNodeName@IDTextImpl@@UBEPBGXZ 120c0430 f   IDTextImpl.obj
 0001:000bf440       ?getNodeType@IDTextImpl@@UBEFXZ 120c0440 f   IDTextImpl.obj
 0001:000bf440       ?getNodeType@TextImpl@@UAEFXZ 120c0440 f   IDTextImpl.obj
 0001:000bf450       ?splitText@IDTextImpl@@UAEPAVIDOM_Text@@I@Z 120c0450 f   IDTextImpl.obj
 0001:000bf5b0       ?setIgnorableWhitespace@IDTextImpl@@MAEX_N@Z 120c05b0 f   IDTextImpl.obj
 0001:000bf5f0       ?getData@IDCommentImpl@@UBEPBGXZ 120c05f0 f   IDTextImpl.obj
 0001:000bf5f0       ?getData@IDTextImpl@@UBEPBGXZ 120c05f0 f   IDTextImpl.obj
 0001:000bf5f0       ?getNodeValue@IDTextImpl@@UBEPBGXZ 120c05f0 f   IDTextImpl.obj
 0001:000bf5f0       ?getNodeValue@IDCommentImpl@@UBEPBGXZ 120c05f0 f   IDTextImpl.obj
 0001:000bf600       ?removeChild@IDCommentImpl@@UAEPAVIDOM_Node@@PAV2@@Z 120c0600 f   IDTextImpl.obj
 0001:000bf600       ?removeChild@IDNotationImpl@@UAEPAVIDOM_Node@@PAV2@@Z 120c0600 f   IDTextImpl.obj
 0001:000bf600       ?removeChild@IDTextImpl@@UAEPAVIDOM_Node@@PAV2@@Z 120c0600 f   IDTextImpl.obj
 0001:000bf600       ?removeChild@IDProcessingInstructionImpl@@UAEPAVIDOM_Node@@PAV2@@Z 120c0600 f   IDTextImpl.obj
 0001:000bf610       ?getLength@IDTextImpl@@UBEIXZ 120c0610 f   IDTextImpl.obj
 0001:000bf610       ?getLength@IDCommentImpl@@UBEIXZ 120c0610 f   IDTextImpl.obj
 0001:000bf620       ??0IDTreeWalkerImpl@@QAE@PAVIDOM_Node@@KPAVIDOM_NodeFilter@@_N@Z 120c0620 f   IDTreeWalkerImpl.obj
 0001:000bf650       ??0IDTreeWalkerImpl@@QAE@ABV0@@Z 120c0650 f   IDTreeWalkerImpl.obj
 0001:000bf690       ??4IDTreeWalkerImpl@@QAEAAV0@ABV0@@Z 120c0690 f   IDTreeWalkerImpl.obj
 0001:000bf6c0       ?getRoot@IDTreeWalkerImpl@@UAEPAVIDOM_Node@@XZ 120c06c0 f   IDTreeWalkerImpl.obj
 0001:000bf6c0       ?getPublicId@SAXParseException@@QBEPBGXZ 120c06c0 f   IDTreeWalkerImpl.obj
 0001:000bf6c0       ?getEndOffset@IDRangeImpl@@UBEIXZ 120c06c0 f   IDTreeWalkerImpl.obj
 0001:000bf6c0       ?getData@ModifierOp@@UBEHXZ 120c06c0 f   IDTreeWalkerImpl.obj
 0001:000bf6c0       ?getFilter@NodeIteratorImpl@@QAEPAVDOM_NodeFilter@@XZ 120c06c0 f   IDTreeWalkerImpl.obj
 0001:000bf6c0       ?getPublicId@IDNotationImpl@@UBEPBGXZ 120c06c0 f   IDTreeWalkerImpl.obj
 0001:000bf6c0       ?getConditionFlow@ConditionOp@@UBEPBVOp@@XZ 120c06c0 f   IDTreeWalkerImpl.obj
 0001:000bf6d0       ?getNextSibling@IDChildNode@@QBEPAVIDOM_Node@@XZ 120c06d0 f   IDTreeWalkerImpl.obj
 0001:000bf6d0       ?getStartContainer@IDRangeImpl@@UBEPAVIDOM_Node@@XZ 120c06d0 f   IDTreeWalkerImpl.obj
 0001:000bf6d0       ?getCurrentEntity@ReaderMgr@@QAEPAVXMLEntityDecl@@XZ 120c06d0 f   IDTreeWalkerImpl.obj
 0001:000bf6d0       ?getRoot@IDNodeIteratorImpl@@UAEPAVIDOM_Node@@XZ 120c06d0 f   IDTreeWalkerImpl.obj
 0001:000bf6d0       ?getFirstChild@IDParentNode@@QBEPAVIDOM_Node@@XZ 120c06d0 f   IDTreeWalkerImpl.obj
 0001:000bf6d0       ?getWhatToShow@IDTreeWalkerImpl@@UAEKXZ 120c06d0 f   IDTreeWalkerImpl.obj
 0001:000bf6d0       ?getCurrentEntity@ReaderMgr@@QBEPBVXMLEntityDecl@@XZ 120c06d0 f   IDTreeWalkerImpl.obj
 0001:000bf6e0       ?getLength@VecAttributesImpl@@UBEIXZ 120c06e0 f   IDTreeWalkerImpl.obj
 0001:000bf6e0       ?size@IDNodeVector@@QAEIXZ 120c06e0 f   IDTreeWalkerImpl.obj
 0001:000bf6e0       ?getStartOffset@IDRangeImpl@@UBEIXZ 120c06e0 f   IDTreeWalkerImpl.obj
 0001:000bf6e0       ?getWhatToShow@IDNodeIteratorImpl@@UAEKXZ 120c06e0 f   IDTreeWalkerImpl.obj
 0001:000bf6e0       ?getFilter@IDTreeWalkerImpl@@UAEPAVIDOM_NodeFilter@@XZ 120c06e0 f   IDTreeWalkerImpl.obj
 0001:000bf6e0       ?getColumnNumber@SAXParseException@@QBEIXZ 120c06e0 f   IDTreeWalkerImpl.obj
 0001:000bf6e0       ?getCurrentReader@ReaderMgr@@QBEPBVXMLReader@@XZ 120c06e0 f   IDTreeWalkerImpl.obj
 0001:000bf6e0       ?getCurrentReader@ReaderMgr@@QAEPAVXMLReader@@XZ 120c06e0 f   IDTreeWalkerImpl.obj
 0001:000bf6e0       ?getLeafCount@ContentLeafNameTypeVector@@QBE?BIXZ 120c06e0 f   IDTreeWalkerImpl.obj
 0001:000bf6e0       ?getWhatToShow@TreeWalkerImpl@@QAEKXZ 120c06e0 f   IDTreeWalkerImpl.obj
 0001:000bf6e0       ?getLength@VecAttrListImpl@@UBEIXZ 120c06e0 f   IDTreeWalkerImpl.obj
 0001:000bf6e0       ?getValue@KVStringPair@@QAEPAGXZ 120c06e0 f   IDTreeWalkerImpl.obj
 0001:000bf6e0       ?getValue@KVStringPair@@QBEPBGXZ 120c06e0 f   IDTreeWalkerImpl.obj
 0001:000bf6e0       ?size@NodeVector@@QAEIXZ   120c06e0 f   IDTreeWalkerImpl.obj
 0001:000bf6f0       ?getExpandEntityReferences@IDTreeWalkerImpl@@UAE_NXZ 120c06f0 f   IDTreeWalkerImpl.obj
 0001:000bf6f0       ?getExpandEntityReferences@NodeIteratorImpl@@QAE_NXZ 120c06f0 f   IDTreeWalkerImpl.obj
 0001:000bf700       ?getToken@RangeOp@@UBEPBVToken@@XZ 120c0700 f   IDTreeWalkerImpl.obj
 0001:000bf700       ?getLiteral@StringOp@@UBEPBGXZ 120c0700 f   IDTreeWalkerImpl.obj
 0001:000bf700       ?getFilter@TreeWalkerImpl@@QAEPAVDOM_NodeFilter@@XZ 120c0700 f   IDTreeWalkerImpl.obj
 0001:000bf700       ?getCurrentNode@IDTreeWalkerImpl@@UAEPAVIDOM_Node@@XZ 120c0700 f   IDTreeWalkerImpl.obj
 0001:000bf700       ?getFilter@IDNodeIteratorImpl@@UAEPAVIDOM_NodeFilter@@XZ 120c0700 f   IDTreeWalkerImpl.obj
 0001:000bf700       ?getChild@ChildOp@@UBEPBVOp@@XZ 120c0700 f   IDTreeWalkerImpl.obj
 0001:000bf700       ?getEndContainer@IDRangeImpl@@UBEPAVIDOM_Node@@XZ 120c0700 f   IDTreeWalkerImpl.obj
 0001:000bf700       ?getWhatToShow@NodeIteratorImpl@@QAEKXZ 120c0700 f   IDTreeWalkerImpl.obj
 0001:000bf700       ?getData@CharOp@@UBEHXZ    120c0700 f   IDTreeWalkerImpl.obj
 0001:000bf700       ?getStartOffset@RangeImpl@@QBEIXZ 120c0700 f   IDTreeWalkerImpl.obj
 0001:000bf700       ?getNodeName@IDNotationImpl@@UBEPBGXZ 120c0700 f   IDTreeWalkerImpl.obj
 0001:000bf700       ?getRefNo@ConditionOp@@UBEHXZ 120c0700 f   IDTreeWalkerImpl.obj
 0001:000bf700       ?getLineNumber@SAXParseException@@QBEIXZ 120c0700 f   IDTreeWalkerImpl.obj
 0001:000bf710       ?setChild@ChildOp@@QAEXQBVOp@@@Z 120c0710 f   IDTreeWalkerImpl.obj
 0001:000bf710       ?setCurrentNode@IDTreeWalkerImpl@@UAEXPAVIDOM_Node@@@Z 120c0710 f   IDTreeWalkerImpl.obj
 0001:000bf720       ?parentNode@IDTreeWalkerImpl@@UAEPAVIDOM_Node@@XZ 120c0720 f   IDTreeWalkerImpl.obj
 0001:000bf7b0       ?firstChild@IDTreeWalkerImpl@@UAEPAVIDOM_Node@@XZ 120c07b0 f   IDTreeWalkerImpl.obj
 0001:000bf860       ?lastChild@IDTreeWalkerImpl@@UAEPAVIDOM_Node@@XZ 120c0860 f   IDTreeWalkerImpl.obj
 0001:000bf910       ?previousSibling@IDTreeWalkerImpl@@UAEPAVIDOM_Node@@XZ 120c0910 f   IDTreeWalkerImpl.obj
 0001:000bf930       ?nextSibling@IDTreeWalkerImpl@@UAEPAVIDOM_Node@@XZ 120c0930 f   IDTreeWalkerImpl.obj
 0001:000bf950       ?previousNode@IDTreeWalkerImpl@@UAEPAVIDOM_Node@@XZ 120c0950 f   IDTreeWalkerImpl.obj
 0001:000bfaa0       ?nextNode@IDTreeWalkerImpl@@UAEPAVIDOM_Node@@XZ 120c0aa0 f   IDTreeWalkerImpl.obj
 0001:000bfc60       ?getParentNode@IDTreeWalkerImpl@@IAEPAVIDOM_Node@@PAV2@@Z 120c0c60 f   IDTreeWalkerImpl.obj
 0001:000bfce0       ?getNextSibling@IDTreeWalkerImpl@@IAEPAVIDOM_Node@@PAV2@@Z 120c0ce0 f   IDTreeWalkerImpl.obj
 0001:000bfeb0       ?getPreviousSibling@IDTreeWalkerImpl@@IAEPAVIDOM_Node@@PAV2@@Z 120c0eb0 f   IDTreeWalkerImpl.obj
 0001:000c0080       ?getFirstChild@IDTreeWalkerImpl@@IAEPAVIDOM_Node@@PAV2@@Z 120c1080 f   IDTreeWalkerImpl.obj
 0001:000c0120       ?getLastChild@IDTreeWalkerImpl@@IAEPAVIDOM_Node@@PAV2@@Z 120c1120 f   IDTreeWalkerImpl.obj
 0001:000c01c0       ?acceptNode@IDTreeWalkerImpl@@IAEFPAVIDOM_Node@@@Z 120c11c0 f   IDTreeWalkerImpl.obj
 0001:000c0240       __purecall                 120c1240 f   MSVCRT:MSVCRT.dll
 0001:000c0246       ??3@YAXPAX@Z               120c1246 f   MSVCRT:MSVCRT.dll
 0001:000c024c       ??_M@YGXPAXIHP6EX0@Z@Z     120c124c f   MSVCRT:ehvecdtr.obj
 0001:000c02cc       ?__ArrayUnwind@@YGXPAXIHP6EX0@Z@Z 120c12cc f   MSVCRT:ehvecdtr.obj
 0001:000c0340       ___CxxFrameHandler         120c1340 f   MSVCRT:MSVCRT.dll
 0001:000c0350       ??2@YAPAXI@Z               120c1350 f   MSVCRT:MSVCRT.dll
 0001:000c0356       ??_Gtype_info@@UAEPAXI@Z   120c1356 f i MSVCRT:ti_inst.obj
 0001:000c0356       ??_Etype_info@@UAEPAXI@Z   120c1356 f i MSVCRT:ti_inst.obj
 0001:000c0372       __CxxThrowException@8      120c1372 f   MSVCRT:MSVCRT.dll
 0001:000c0378       __ftol                     120c1378 f   MSVCRT:MSVCRT.dll
 0001:000c037e       __onexit                   120c137e f   MSVCRT:atonexit.obj
 0001:000c03aa       _atexit                    120c13aa f   MSVCRT:atonexit.obj
 0001:000c03c0       __chkstk                   120c13c0 f   MSVCRT:chkstk.obj
 0001:000c03c0       __alloca_probe             120c13c0 f   MSVCRT:chkstk.obj
 0001:000c03ef       ??_L@YGXPAXIHP6EX0@Z1@Z    120c13ef f   MSVCRT:ehvecctr.obj
 0001:000c0471       __CRT_INIT@12              120c1471 f   MSVCRT:crtdll.obj
 0001:000c051c       __DllMainCRTStartup@12     120c151c f   MSVCRT:crtdll.obj
 0001:000c05ba       __except_handler3          120c15ba f   MSVCRT:MSVCRT.dll
 0001:000c05c0       ?terminate@@YAXXZ          120c15c0 f   MSVCRT:MSVCRT.dll
 0001:000c05c6       ??1type_info@@UAE@XZ       120c15c6 f   MSVCRT:MSVCRT.dll
 0001:000c05cc       ___dllonexit               120c15cc f   MSVCRT:MSVCRT.dll
 0001:000c05d2       __initterm                 120c15d2 f   MSVCRT:MSVCRT.dll
 0002:00000000       __imp__RegEnumKeyExA@32    120d0000     advapi32:ADVAPI32.dll
 0002:00000004       __imp__RegQueryValueExA@24 120d0004     advapi32:ADVAPI32.dll
 0002:00000008       __imp__RegOpenKeyExA@20    120d0008     advapi32:ADVAPI32.dll
 0002:0000000c       __imp__RegCloseKey@4       120d000c     advapi32:ADVAPI32.dll
 0002:00000010       \177ADVAPI32_NULL_THUNK_DATA 120d0010     advapi32:ADVAPI32.dll
 0002:00000014       __imp__GetTickCount@0      120d0014     kernel32:KERNEL32.dll
 0002:00000018       __imp__GetStdHandle@4      120d0018     kernel32:KERNEL32.dll
 0002:0000001c       __imp__GetLastError@0      120d001c     kernel32:KERNEL32.dll
 0002:00000020       __imp__ReadFile@20         120d0020     kernel32:KERNEL32.dll
 0002:00000024       __imp__GetFullPathNameA@16 120d0024     kernel32:KERNEL32.dll
 0002:00000028       __imp__DuplicateHandle@28  120d0028     kernel32:KERNEL32.dll
 0002:0000002c       __imp__GetCurrentProcess@0 120d002c     kernel32:KERNEL32.dll
 0002:00000030       __imp__DeleteCriticalSection@4 120d0030     kernel32:KERNEL32.dll
 0002:00000034       __imp__EnterCriticalSection@4 120d0034     kernel32:KERNEL32.dll
 0002:00000038       __imp__InitializeCriticalSection@4 120d0038     kernel32:KERNEL32.dll
 0002:0000003c       __imp__LeaveCriticalSection@4 120d003c     kernel32:KERNEL32.dll
 0002:00000040       __imp__InterlockedIncrement@4 120d0040     kernel32:KERNEL32.dll
 0002:00000044       __imp__GetFullPathNameW@16 120d0044     kernel32:KERNEL32.dll
 0002:00000048       __imp__CloseHandle@4       120d0048     kernel32:KERNEL32.dll
 0002:0000004c       __imp__GetModuleHandleA@4  120d004c     kernel32:KERNEL32.dll
 0002:00000050       __imp__LockResource@4      120d0050     kernel32:KERNEL32.dll
 0002:00000054       __imp__LoadResource@8      120d0054     kernel32:KERNEL32.dll
 0002:00000058       __imp__FindResourceExA@16  120d0058     kernel32:KERNEL32.dll
 0002:0000005c       __imp__IsValidCodePage@4   120d005c     kernel32:KERNEL32.dll
 0002:00000060       __imp__MultiByteToWideChar@24 120d0060     kernel32:KERNEL32.dll
 0002:00000064       __imp__IsDBCSLeadByteEx@8  120d0064     kernel32:KERNEL32.dll
 0002:00000068       __imp__WideCharToMultiByte@32 120d0068     kernel32:KERNEL32.dll
 0002:0000006c       __imp__FreeLibrary@4       120d006c     kernel32:KERNEL32.dll
 0002:00000070       __imp__GetProcAddress@8    120d0070     kernel32:KERNEL32.dll
 0002:00000074       __imp__LoadLibraryA@4      120d0074     kernel32:KERNEL32.dll
 0002:00000078       __imp__SetFilePointer@16   120d0078     kernel32:KERNEL32.dll
 0002:0000007c       __imp__CreateFileW@28      120d007c     kernel32:KERNEL32.dll
 0002:00000080       __imp__CreateFileA@28      120d0080     kernel32:KERNEL32.dll
 0002:00000084       __imp__InterlockedDecrement@4 120d0084     kernel32:KERNEL32.dll
 0002:00000088       __imp__GetVersionExA@4     120d0088     kernel32:KERNEL32.dll
 0002:0000008c       \177KERNEL32_NULL_THUNK_DATA 120d008c     kernel32:KERNEL32.dll
 0002:00000090       __imp___purecall           120d0090     MSVCRT:MSVCRT.dll
 0002:00000094       __imp___ftol               120d0094     MSVCRT:MSVCRT.dll
 0002:00000098       __imp__div                 120d0098     MSVCRT:MSVCRT.dll
 0002:0000009c       __imp_??3@YAXPAX@Z         120d009c     MSVCRT:MSVCRT.dll
 0002:000000a0       __imp____CxxFrameHandler   120d00a0     MSVCRT:MSVCRT.dll
 0002:000000a4       __imp_??2@YAPAXI@Z         120d00a4     MSVCRT:MSVCRT.dll
 0002:000000a8       __imp__exit                120d00a8     MSVCRT:MSVCRT.dll
 0002:000000ac       __imp___CxxThrowException@8 120d00ac     MSVCRT:MSVCRT.dll
 0002:000000b0       __imp__wcsncpy             120d00b0     MSVCRT:MSVCRT.dll
 0002:000000b4       __imp___wcsupr             120d00b4     MSVCRT:MSVCRT.dll
 0002:000000b8       __imp__mbstowcs            120d00b8     MSVCRT:MSVCRT.dll
 0002:000000bc       __imp__wcscmp              120d00bc     MSVCRT:MSVCRT.dll
 0002:000000c0       __imp___wcsicmp            120d00c0     MSVCRT:MSVCRT.dll
 0002:000000c4       __imp___wcsnicmp           120d00c4     MSVCRT:MSVCRT.dll
 0002:000000c8       __imp__iswspace            120d00c8     MSVCRT:MSVCRT.dll
 0002:000000cc       __imp__wcstombs            120d00cc     MSVCRT:MSVCRT.dll
 0002:000000d0       __imp__atoi                120d00d0     MSVCRT:MSVCRT.dll
 0002:000000d4       __imp__strchr              120d00d4     MSVCRT:MSVCRT.dll
 0002:000000d8       __imp__strstr              120d00d8     MSVCRT:MSVCRT.dll
 0002:000000dc       __imp___itoa               120d00dc     MSVCRT:MSVCRT.dll
 0002:000000e0       __imp_??1type_info@@UAE@XZ 120d00e0     MSVCRT:MSVCRT.dll
 0002:000000e4       __imp_?terminate@@YAXXZ    120d00e4     MSVCRT:MSVCRT.dll
 0002:000000e8       __imp__strncmp             120d00e8     MSVCRT:MSVCRT.dll
 0002:000000ec       __imp__isspace             120d00ec     MSVCRT:MSVCRT.dll
 0002:000000f0       __imp__printf              120d00f0     MSVCRT:MSVCRT.dll
 0002:000000f4       __imp__fputs               120d00f4     MSVCRT:MSVCRT.dll
 0002:000000f8       __imp___iob                120d00f8     MSVCRT:MSVCRT.dll
 0002:000000fc       __imp__putchar             120d00fc     MSVCRT:MSVCRT.dll
 0002:00000100       __imp___except_handler3    120d0100     MSVCRT:MSVCRT.dll
 0002:00000104       __imp___stricmp            120d0104     MSVCRT:MSVCRT.dll
 0002:00000104       __imp__stricmp             120d0104     MSVCRT:MSVCRT.dll
 0002:00000108       __imp__strnicmp            120d0108     MSVCRT:MSVCRT.dll
 0002:00000108       __imp___strnicmp           120d0108     MSVCRT:MSVCRT.dll
 0002:0000010c       __imp____dllonexit         120d010c     MSVCRT:MSVCRT.dll
 0002:00000110       __imp___onexit             120d0110     MSVCRT:MSVCRT.dll
 0002:00000114       __imp__free                120d0114     MSVCRT:MSVCRT.dll
 0002:00000118       __imp___initterm           120d0118     MSVCRT:MSVCRT.dll
 0002:0000011c       __imp__malloc              120d011c     MSVCRT:MSVCRT.dll
 0002:00000120       __imp___adjust_fdiv        120d0120     MSVCRT:MSVCRT.dll
 0002:00000124       \177MSVCRT_NULL_THUNK_DATA 120d0124     MSVCRT:MSVCRT.dll
 0002:00000128       __imp__MessageBoxA@16      120d0128     user32:USER32.dll
 0002:0000012c       \177USER32_NULL_THUNK_DATA 120d012c     user32:USER32.dll
 0002:00000130       ??_7XMLMsgLoader@@6B@      120d0130     Win32PlatformUtils.obj
 0002:00000140       ??_7XMLErrorReporter@@6B@  120d0140     Win32PlatformUtils.obj
 0002:0000014c       ??_7XMLPlatformUtilsException@@6B@ 120d014c     Win32PlatformUtils.obj
 0002:00000158       ??_7XMLDeleter@@6B@        120d0158     Win32PlatformUtils.obj
 0002:0000015c       ??_7RuntimeException@@6B@  120d015c     Win32PlatformUtils.obj
 0002:00000168       ??_7ArrayIndexOutOfBoundsException@@6B@ 120d0168     Win32PlatformUtils.obj
 0002:00000174       ??_7HashBase@@6B@          120d0174     Win32PlatformUtils.obj
 0002:0000017c       ??_7IllegalArgumentException@@6B@ 120d017c     Win32PlatformUtils.obj
 0002:00000188       ??_7NoSuchElementException@@6B@ 120d0188     Win32PlatformUtils.obj
 0002:00000194       ??_7HashXMLCh@@6B@         120d0194     Win32PlatformUtils.obj
 0002:000001a0       ??_7NullPointerException@@6B@ 120d01a0     Win32PlatformUtils.obj
 0002:000001ac       ??_7MalformedURLException@@6B@ 120d01ac     Win32PlatformUtils.obj
 0002:000001b8       ??_7XMLNetAccessor@@6B@    120d01b8     Win32PlatformUtils.obj
 0002:000001c4       ??_7NetAccessorException@@6B@ 120d01c4     Win32PlatformUtils.obj
 0002:000001d4       ??_7Win32MsgLoader@@6B@    120d01d4     Win32MsgLoader.obj
 0002:000001f0       ??_7TranscodingException@@6B@ 120d01f0     Win32TransService.obj
 0002:000001fc       ??_7Win32TransService@@6B@ 120d01fc     Win32TransService.obj
 0002:00000220       ??_7Win32LCPTranscoder@@6B@ 120d0220     Win32TransService.obj
 0002:0000023c       ??_7Win32Transcoder@@6B@   120d023c     Win32TransService.obj
 0002:0000024c       ??_7BinHTTPURLInputStream@@6B@ 120d024c     BinHTTPURLInputStream.obj
 0002:00000258       ?fgMyName@WinSockNetAccessor@@0QBGB 120d0258     WinSockNetAccessor.obj
 0002:00000280       ??_7WinSockNetAccessor@@6B@ 120d0280     WinSockNetAccessor.obj
 0002:00000328       ??_7ASCIIRangeFactory@@6B@ 120d0328     ASCIIRangeFactory.obj
 0002:00004e78       ??_7BlockRangeFactory@@6B@ 120d4e78     BlockRangeFactory.obj
 0002:00004e84       ??_7CharToken@@6B@         120d4e84     CharToken.obj
 0002:00004ecc       ??_7ClosureToken@@6B@      120d4ecc     ClosureToken.obj
 0002:00004f14       ??_7ConcatToken@@6B@       120d4f14     ConcatToken.obj
 0002:00004f5c       ??_7ConditionToken@@6B@    120d4f5c     ConditionToken.obj
 0002:00004fa4       ??_7ModifierToken@@6B@     120d4fa4     ModifierToken.obj
 0002:00004fec       ??_7Op@@6B@                120d4fec     Op.obj
 0002:0000501c       ??_7UnionOp@@6B@           120d501c     Op.obj
 0002:0000504c       ??_7StringOp@@6B@          120d504c     Op.obj
 0002:0000507c       ??_7CharOp@@6B@            120d507c     Op.obj
 0002:000050ac       ??_7ChildOp@@6B@           120d50ac     Op.obj
 0002:000050dc       ??_7ModifierOp@@6B@        120d50dc     Op.obj
 0002:0000510c       ??_7RangeOp@@6B@           120d510c     Op.obj
 0002:0000513c       ??_7ConditionOp@@6B@       120d513c     Op.obj
 0002:0000516c       ??_7ParenToken@@6B@        120d516c     ParenToken.obj
 0002:00005248       ??_7ParseException@@6B@    120d5248     ParserForXMLSchema.obj
 0002:00005254       ??_7ParserForXMLSchema@@6B@ 120d5254     ParserForXMLSchema.obj
 0002:000052d4       ??_7RangeFactory@@6B@      120d52d4     RangeFactory.obj
 0002:000052e0       ?MAPSIZE@RangeToken@@2HB   120d52e0     RangeToken.obj
 0002:000052e4       ?INITIALSIZE@RangeToken@@2IB 120d52e4     RangeToken.obj
 0002:000052e8       ??_7RangeToken@@6B@        120d52e8     RangeToken.obj
 0002:00005330       __real@8@3fffa000000000000000 120d5330     RangeToken.obj
 0002:00005338       ??_7RangeTokenMap@@6B@     120d5338     RangeTokenMap.obj
 0002:0000534c       ?MARK_PARENS@RegularExpression@@2IB 120d534c     RegularExpression.obj
 0002:00005350       ?IGNORE_CASE@RegularExpression@@2IB 120d5350     RegularExpression.obj
 0002:00005354       ?SINGLE_LINE@RegularExpression@@2IB 120d5354     RegularExpression.obj
 0002:00005358       ?MULTIPLE_LINE@RegularExpression@@2IB 120d5358     RegularExpression.obj
 0002:0000535c       ?EXTENDED_COMMENT@RegularExpression@@2IB 120d535c     RegularExpression.obj
 0002:00005360       ?USE_UNICODE_CATEGORY@RegularExpression@@2IB 120d5360     RegularExpression.obj
 0002:00005364       ?UNICODE_WORD_BOUNDARY@RegularExpression@@2IB 120d5364     RegularExpression.obj
 0002:00005368       ?PROHIBIT_HEAD_CHARACTER_OPTIMIZATION@RegularExpression@@2IB 120d5368     RegularExpression.obj
 0002:0000536c       ?PROHIBIT_FIXED_STRING_OPTIMIZATION@RegularExpression@@2IB 120d536c     RegularExpression.obj
 0002:00005370       ?XMLSCHEMA_MODE@RegularExpression@@2IB 120d5370     RegularExpression.obj
 0002:00005374       ?SPECIAL_COMMA@RegularExpression@@2IB 120d5374     RegularExpression.obj
 0002:00005378       ?WT_IGNORE@RegularExpression@@2GB 120d5378     RegularExpression.obj
 0002:0000537a       ?WT_LETTER@RegularExpression@@2GB 120d537a     RegularExpression.obj
 0002:0000537c       ?WT_OTHER@RegularExpression@@2GB 120d537c     RegularExpression.obj
 0002:00005418       ?S_NORMAL@RegxParser@@2GB  120d5418     RegxParser.obj
 0002:0000541a       ?S_INBRACKETS@RegxParser@@2GB 120d541a     RegxParser.obj
 0002:0000541c       ?S_INXBRACKETS@RegxParser@@2GB 120d541c     RegxParser.obj
 0002:00005420       ??_7RegxParser@@6B@        120d5420     RegxParser.obj
 0002:000054a0       ??_7StringToken@@6B@       120d54a0     StringToken.obj
 0002:000054e8       ?UTF16_MAX@Token@@2HB      120d54e8     Token.obj
 0002:000054ec       ?FC_CONTINUE@Token@@2GB    120d54ec     Token.obj
 0002:000054ee       ?FC_TERMINAL@Token@@2GB    120d54ee     Token.obj
 0002:000054f0       ?FC_ANY@Token@@2GB         120d54f0     Token.obj
 0002:000054f4       ??_7Token@@6B@             120d54f4     Token.obj
 0002:0000609c       ??_7UnicodeRangeFactory@@6B@ 120d609c     UnicodeRangeFactory.obj
 0002:000060a8       ?INITIALSIZE@UnionToken@@0GB 120d60a8     UnionToken.obj
 0002:000060ac       ??_7UnionToken@@6B@        120d60ac     UnionToken.obj
 0002:0000662c       ??_7XMLRangeFactory@@6B@   120d662c     XMLRangeFactory.obj
 0002:00016638       ?base64Alphabet@Base64@@0QBEB 120e6638     Base64.obj
 0002:00016679       ?base64Padding@Base64@@0EB 120e6679     Base64.obj
 0002:0001667c       ?quadsPerLine@Base64@@0IB  120e667c     Base64.obj
 0002:00016680       ??_7BinFileInputStream@@6B@ 120e6680     BinFileInputStream.obj
 0002:0001668c       ??_7BinInputStream@@6B@    120e668c     BinInputStream.obj
 0002:00016698       ??_7BinMemInputStream@@6B@ 120e6698     BinMemInputStream.obj
 0002:000166a4       ??_7HashPtr@@6B@           120e66a4     HashPtr.obj
 0002:000166ac       ??_7EmptyStackException@@6B@ 120e66ac     HeaderDummy.obj
 0002:000166b8       ??_7InvalidCastException@@6B@ 120e66b8     HeaderDummy.obj
 0002:000166c4       ??_7IOException@@6B@       120e66c4     HeaderDummy.obj
 0002:000166d0       ??_7UnexpectedEOFException@@6B@ 120e66d0     HeaderDummy.obj
 0002:000166dc       ??_7UnsupportedEncodingException@@6B@ 120e66dc     HeaderDummy.obj
 0002:000166e8       ??_7UTFDataFormatException@@6B@ 120e66e8     HeaderDummy.obj
 0002:000166f8       __real@8@3fffc000000000000000 120e66f8     StringPool.obj
 0002:00016700       ??_7XMLTransService@@6B@   120e6700     TransService.obj
 0002:00016724       ??_7ENameMap@@6B@          120e6724     TransService.obj
 0002:00016728       ??_7XMLTranscoder@@6B@     120e6728     TransService.obj
 0002:00016738       ??_7XMLLCPTranscoder@@6B@  120e6738     TransService.obj
 0002:00016754       ??_7?$ENameMapFor@VXMLEBCDICTranscoder@@@@6B@ 120e6754     TransService.obj
 0002:00016758       ??_7?$EEndianNameMapFor@VXMLUTF16Transcoder@@@@6B@ 120e6758     TransService.obj
 0002:0001675c       ??_7?$ENameMapFor@VXML88591Transcoder@@@@6B@ 120e675c     TransService.obj
 0002:00016760       ??_7?$ENameMapFor@VXMLUTF8Transcoder@@@@6B@ 120e6760     TransService.obj
 0002:00016764       ??_7?$ENameMapFor@VXMLASCIITranscoder@@@@6B@ 120e6764     TransService.obj
 0002:00016768       ??_7?$ENameMapFor@VXMLChTranscoder@@@@6B@ 120e6768     TransService.obj
 0002:0001676c       ??_7?$EEndianNameMapFor@VXMLUCS4Transcoder@@@@6B@ 120e676c     TransService.obj
 0002:00016770       ??_7?$ENameMapFor@VXMLIBM1140Transcoder@@@@6B@ 120e6770     TransService.obj
 0002:00016774       ??_7?$ENameMapFor@VXMLWin1252Transcoder@@@@6B@ 120e6774     TransService.obj
 0002:00016778       ??_7XML256TableTranscoder@@6B@ 120e6778     XML256TableTranscoder.obj
 0002:00016788       ??_7XML88591Transcoder@@6B@ 120e6788     XML88591Transcoder.obj
 0002:00016798       ??_7XMLNumber@@6B@         120e6798     XMLAbstractDoubleFloat.obj
 0002:000167a4       ??_7XMLBigDecimal@@6B@     120e67a4     XMLAbstractDoubleFloat.obj
 0002:000167b0       ??_7NumberFormatException@@6B@ 120e67b0     XMLAbstractDoubleFloat.obj
 0002:000167bc       ??_7XMLAbstractDoubleFloat@@6B@ 120e67bc     XMLAbstractDoubleFloat.obj
 0002:000167cc       ??_7XMLASCIITranscoder@@6B@ 120e67cc     XMLASCIITranscoder.obj
 0002:000167dc       ??_7XMLChTranscoder@@6B@   120e67dc     XMLChTranscoder.obj
 0002:00016874       ??_7SchemaDateTimeException@@6B@ 120e6874     XMLDateTime.obj
 0002:00016880       ??_7XMLDateTime@@6B@       120e6880     XMLDateTime.obj
 0002:000169cc       ??_7XMLDouble@@6B@         120e69cc     XMLDouble.obj
 0002:0001715c       ??_7XMLEBCDICTranscoder@@6B@ 120e715c     XMLEBCDICTranscoder.obj
 0002:0001719c       ??_7XMLException@@6B@      120e719c     XMLException.obj
 0002:000172e4       ??_7XMLFloat@@6B@          120e72e4     XMLFloat.obj
 0002:00017a70       ??_7XMLIBM1140Transcoder@@6B@ 120e7a70     XMLIBM1140Transcoder.obj
 0002:00017abc       ??_7XMLUCS4Transcoder@@6B@ 120e7abc     XMLUCSTranscoder.obj
 0002:00017acc       ?fgAnyString@XMLUni@@2QBGB 120e7acc     XMLUni.obj
 0002:00017ad4       ?fgAttListString@XMLUni@@2QBGB 120e7ad4     XMLUni.obj
 0002:00017ae4       ?fgCommentString@XMLUni@@2QBGB 120e7ae4     XMLUni.obj
 0002:00017af0       ?fgCDATAString@XMLUni@@2QBGB 120e7af0     XMLUni.obj
 0002:00017afc       ?fgDefaultString@XMLUni@@2QBGB 120e7afc     XMLUni.obj
 0002:00017b10       ?fgDocTypeString@XMLUni@@2QBGB 120e7b10     XMLUni.obj
 0002:00017b24       ?fgEBCDICEncodingString@XMLUni@@2QBGB 120e7b24     XMLUni.obj
 0002:00017b34       ?fgElemString@XMLUni@@2QBGB 120e7b34     XMLUni.obj
 0002:00017b44       ?fgEmptyString@XMLUni@@2QBGB 120e7b44     XMLUni.obj
 0002:00017b50       ?fgEncodingString@XMLUni@@2QBGB 120e7b50     XMLUni.obj
 0002:00017b64       ?fgEntitString@XMLUni@@2QBGB 120e7b64     XMLUni.obj
 0002:00017b70       ?fgEntityString@XMLUni@@2QBGB 120e7b70     XMLUni.obj
 0002:00017b80       ?fgEntitiesString@XMLUni@@2QBGB 120e7b80     XMLUni.obj
 0002:00017b94       ?fgEnumerationString@XMLUni@@2QBGB 120e7b94     XMLUni.obj
 0002:00017bac       ?fgExceptDomain@XMLUni@@2QBGB 120e7bac     XMLUni.obj
 0002:00017c04       ?fgFixedString@XMLUni@@2QBGB 120e7c04     XMLUni.obj
 0002:00017c14       ?fgIBM037EncodingString@XMLUni@@2QBGB 120e7c14     XMLUni.obj
 0002:00017c30       ?fgIBM037EncodingString2@XMLUni@@2QBGB 120e7c30     XMLUni.obj
 0002:00017c40       ?fgIBM1140EncodingString@XMLUni@@2QBGB 120e7c40     XMLUni.obj
 0002:00017c50       ?fgIBM1140EncodingString2@XMLUni@@2QBGB 120e7c50     XMLUni.obj
 0002:00017c64       ?fgIESString@XMLUni@@2QBGB 120e7c64     XMLUni.obj
 0002:00017c6c       ?fgIDString@XMLUni@@2QBGB  120e7c6c     XMLUni.obj
 0002:00017c74       ?fgIDRefString@XMLUni@@2QBGB 120e7c74     XMLUni.obj
 0002:00017c80       ?fgIDRefsString@XMLUni@@2QBGB 120e7c80     XMLUni.obj
 0002:00017c90       ?fgImpliedString@XMLUni@@2QBGB 120e7c90     XMLUni.obj
 0002:00017ca4       ?fgIgnoreString@XMLUni@@2QBGB 120e7ca4     XMLUni.obj
 0002:00017cb4       ?fgIncludeString@XMLUni@@2QBGB 120e7cb4     XMLUni.obj
 0002:00017cc4       ?fgISO88591EncodingString@XMLUni@@2QBGB 120e7cc4     XMLUni.obj
 0002:00017cd8       ?fgISO88591EncodingString2@XMLUni@@2QBGB 120e7cd8     XMLUni.obj
 0002:00017cf0       ?fgISO88591EncodingString3@XMLUni@@2QBGB 120e7cf0     XMLUni.obj
 0002:00017d08       ?fgISO88591EncodingString4@XMLUni@@2QBGB 120e7d08     XMLUni.obj
 0002:00017d18       ?fgISO88591EncodingString5@XMLUni@@2QBGB 120e7d18     XMLUni.obj
 0002:00017d28       ?fgISO88591EncodingString6@XMLUni@@2QBGB 120e7d28     XMLUni.obj
 0002:00017d38       ?fgISO88591EncodingString7@XMLUni@@2QBGB 120e7d38     XMLUni.obj
 0002:00017d48       ?fgISO88591EncodingString8@XMLUni@@2QBGB 120e7d48     XMLUni.obj
 0002:00017d58       ?fgLocalHostString@XMLUni@@2QBGB 120e7d58     XMLUni.obj
 0002:00017d6c       ?fgNoString@XMLUni@@2QBGB  120e7d6c     XMLUni.obj
 0002:00017d74       ?fgNotationString@XMLUni@@2QBGB 120e7d74     XMLUni.obj
 0002:00017d88       ?fgNDATAString@XMLUni@@2QBGB 120e7d88     XMLUni.obj
 0002:00017d94       ?fgNmTokenString@XMLUni@@2QBGB 120e7d94     XMLUni.obj
 0002:00017da4       ?fgNmTokensString@XMLUni@@2QBGB 120e7da4     XMLUni.obj
 0002:00017db8       ?fgPCDATAString@XMLUni@@2QBGB 120e7db8     XMLUni.obj
 0002:00017dc8       ?fgPIString@XMLUni@@2QBGB  120e7dc8     XMLUni.obj
 0002:00017dd0       ?fgPubIDString@XMLUni@@2QBGB 120e7dd0     XMLUni.obj
 0002:00017de0       ?fgRefString@XMLUni@@2QBGB 120e7de0     XMLUni.obj
 0002:00017de8       ?fgRequiredString@XMLUni@@2QBGB 120e7de8     XMLUni.obj
 0002:00017dfc       ?fgStandaloneString@XMLUni@@2QBGB 120e7dfc     XMLUni.obj
 0002:00017e14       ?fgSupportedVersion@XMLUni@@2QBGB 120e7e14     XMLUni.obj
 0002:00017e1c       ?fgSysIDString@XMLUni@@2QBGB 120e7e1c     XMLUni.obj
 0002:00017e2c       ?fgUnknownURIName@XMLUni@@2QBGB 120e7e2c     XMLUni.obj
 0002:00017e6c       ?fgUCS4EncodingString@XMLUni@@2QBGB 120e7e6c     XMLUni.obj
 0002:00017e78       ?fgUCS4EncodingString2@XMLUni@@2QBGB 120e7e78     XMLUni.obj
 0002:00017e84       ?fgUCS4EncodingString3@XMLUni@@2QBGB 120e7e84     XMLUni.obj
 0002:00017e90       ?fgUCS4BEncodingString@XMLUni@@2QBGB 120e7e90     XMLUni.obj
 0002:00017ea8       ?fgUCS4BEncodingString2@XMLUni@@2QBGB 120e7ea8     XMLUni.obj
 0002:00017eb8       ?fgUCS4LEncodingString@XMLUni@@2QBGB 120e7eb8     XMLUni.obj
 0002:00017ed0       ?fgUCS4LEncodingString2@XMLUni@@2QBGB 120e7ed0     XMLUni.obj
 0002:00017ee0       ?fgUSASCIIEncodingString@XMLUni@@2QBGB 120e7ee0     XMLUni.obj
 0002:00017ef4       ?fgUSASCIIEncodingString2@XMLUni@@2QBGB 120e7ef4     XMLUni.obj
 0002:00017f04       ?fgUSASCIIEncodingString3@XMLUni@@2QBGB 120e7f04     XMLUni.obj
 0002:00017f10       ?fgUSASCIIEncodingString4@XMLUni@@2QBGB 120e7f10     XMLUni.obj
 0002:00017f24       ?fgUTF8EncodingString@XMLUni@@2QBGB 120e7f24     XMLUni.obj
 0002:00017f30       ?fgUTF8EncodingString2@XMLUni@@2QBGB 120e7f30     XMLUni.obj
 0002:00017f3c       ?fgUTF16EncodingString@XMLUni@@2QBGB 120e7f3c     XMLUni.obj
 0002:00017f4c       ?fgUTF16EncodingString2@XMLUni@@2QBGB 120e7f4c     XMLUni.obj
 0002:00017f58       ?fgUTF16EncodingString3@XMLUni@@2QBGB 120e7f58     XMLUni.obj
 0002:00017f68       ?fgUTF16EncodingString4@XMLUni@@2QBGB 120e7f68     XMLUni.obj
 0002:00017f7c       ?fgUTF16BEncodingString@XMLUni@@2QBGB 120e7f7c     XMLUni.obj
 0002:00017f94       ?fgUTF16BEncodingString2@XMLUni@@2QBGB 120e7f94     XMLUni.obj
 0002:00017fa8       ?fgUTF16LEncodingString@XMLUni@@2QBGB 120e7fa8     XMLUni.obj
 0002:00017fc0       ?fgUTF16LEncodingString2@XMLUni@@2QBGB 120e7fc0     XMLUni.obj
 0002:00017fd4       ?fgVersionString@XMLUni@@2QBGB 120e7fd4     XMLUni.obj
 0002:00017fe4       ?fgValidityDomain@XMLUni@@2QBGB 120e7fe4     XMLUni.obj
 0002:0001803c       ?fgWin1252EncodingString@XMLUni@@2QBGB 120e803c     XMLUni.obj
 0002:00018058       ?fgXMLChEncodingString@XMLUni@@2QBGB 120e8058     XMLUni.obj
 0002:00018074       ?fgXMLString@XMLUni@@2QBGB 120e8074     XMLUni.obj
 0002:0001807c       ?fgXMLStringSpace@XMLUni@@2QBGB 120e807c     XMLUni.obj
 0002:00018088       ?fgXMLStringHTab@XMLUni@@2QBGB 120e8088     XMLUni.obj
 0002:00018094       ?fgXMLStringCR@XMLUni@@2QBGB 120e8094     XMLUni.obj
 0002:000180a0       ?fgXMLStringLF@XMLUni@@2QBGB 120e80a0     XMLUni.obj
 0002:000180ac       ?fgXMLStringSpaceU@XMLUni@@2QBGB 120e80ac     XMLUni.obj
 0002:000180b8       ?fgXMLStringHTabU@XMLUni@@2QBGB 120e80b8     XMLUni.obj
 0002:000180c4       ?fgXMLStringCRU@XMLUni@@2QBGB 120e80c4     XMLUni.obj
 0002:000180d0       ?fgXMLStringLFU@XMLUni@@2QBGB 120e80d0     XMLUni.obj
 0002:000180dc       ?fgXMLDeclString@XMLUni@@2QBGB 120e80dc     XMLUni.obj
 0002:000180e8       ?fgXMLDeclStringSpace@XMLUni@@2QBGB 120e80e8     XMLUni.obj
 0002:000180f8       ?fgXMLDeclStringHTab@XMLUni@@2QBGB 120e80f8     XMLUni.obj
 0002:00018108       ?fgXMLDeclStringLF@XMLUni@@2QBGB 120e8108     XMLUni.obj
 0002:00018118       ?fgXMLDeclStringCR@XMLUni@@2QBGB 120e8118     XMLUni.obj
 0002:00018128       ?fgXMLDeclStringSpaceU@XMLUni@@2QBGB 120e8128     XMLUni.obj
 0002:00018138       ?fgXMLDeclStringHTabU@XMLUni@@2QBGB 120e8138     XMLUni.obj
 0002:00018148       ?fgXMLDeclStringLFU@XMLUni@@2QBGB 120e8148     XMLUni.obj
 0002:00018158       ?fgXMLDeclStringCRU@XMLUni@@2QBGB 120e8158     XMLUni.obj
 0002:00018168       ?fgXMLNSString@XMLUni@@2QBGB 120e8168     XMLUni.obj
 0002:00018174       ?fgXMLNSColonString@XMLUni@@2QBGB 120e8174     XMLUni.obj
 0002:00018184       ?fgXMLNSURIName@XMLUni@@2QBGB 120e8184     XMLUni.obj
 0002:000181c0       ?fgXMLErrDomain@XMLUni@@2QBGB 120e81c0     XMLUni.obj
 0002:00018214       ?fgXMLURIName@XMLUni@@2QBGB 120e8214     XMLUni.obj
 0002:00018260       ?fgYesString@XMLUni@@2QBGB 120e8260     XMLUni.obj
 0002:00018268       ?fgZeroLenString@XMLUni@@2QBGB 120e8268     XMLUni.obj
 0002:0001826c       ?fgArrayIndexOutOfBoundsException_Name@XMLUni@@2QBGB 120e826c     XMLUni.obj
 0002:000182ac       ?fgEmptyStackException_Name@XMLUni@@2QBGB 120e82ac     XMLUni.obj
 0002:000182d4       ?fgIllegalArgumentException_Name@XMLUni@@2QBGB 120e82d4     XMLUni.obj
 0002:00018308       ?fgInvalidCastException_Name@XMLUni@@2QBGB 120e8308     XMLUni.obj
 0002:00018334       ?fgIOException_Name@XMLUni@@2QBGB 120e8334     XMLUni.obj
 0002:0001834c       ?fgNoSuchElementException_Name@XMLUni@@2QBGB 120e834c     XMLUni.obj
 0002:0001837c       ?fgNullPointerException_Name@XMLUni@@2QBGB 120e837c     XMLUni.obj
 0002:000183a8       ?fgXMLPlatformUtilsException_Name@XMLUni@@2QBGB 120e83a8     XMLUni.obj
 0002:000183d4       ?fgRuntimeException_Name@XMLUni@@2QBGB 120e83d4     XMLUni.obj
 0002:000183f8       ?fgTranscodingException_Name@XMLUni@@2QBGB 120e83f8     XMLUni.obj
 0002:00018424       ?fgUnexpectedEOFException_Name@XMLUni@@2QBGB 120e8424     XMLUni.obj
 0002:00018454       ?fgUnsupportedEncodingException_Name@XMLUni@@2QBGB 120e8454     XMLUni.obj
 0002:00018490       ?fgUTFDataFormatException_Name@XMLUni@@2QBGB 120e8490     XMLUni.obj
 0002:000184c0       ?fgNetAccessorException_Name@XMLUni@@2QBGB 120e84c0     XMLUni.obj
 0002:000184ec       ?fgMalformedURLException_Name@XMLUni@@2QBGB 120e84ec     XMLUni.obj
 0002:00018518       ?fgNumberFormatException_Name@XMLUni@@2QBGB 120e8518     XMLUni.obj
 0002:00018544       ?fgParseException_Name@XMLUni@@2QBGB 120e8544     XMLUni.obj
 0002:00018564       ?fgInvalidDatatypeFacetException_Name@XMLUni@@2QBGB 120e8564     XMLUni.obj
 0002:000185a0       ?fgInvalidDatatypeValueException_Name@XMLUni@@2QBGB 120e85a0     XMLUni.obj
 0002:000185dc       ?fgSchemaDateTimeException_Name@XMLUni@@2QBGB 120e85dc     XMLUni.obj
 0002:0001860c       ?fgXPathException_Name@XMLUni@@2QBGB 120e860c     XMLUni.obj
 0002:0001862c       ?fgNegINFString@XMLUni@@2QBGB 120e862c     XMLUni.obj
 0002:00018638       ?fgNegZeroString@XMLUni@@2QBGB 120e8638     XMLUni.obj
 0002:00018640       ?fgPosZeroString@XMLUni@@2QBGB 120e8640     XMLUni.obj
 0002:00018644       ?fgPosINFString@XMLUni@@2QBGB 120e8644     XMLUni.obj
 0002:0001864c       ?fgNaNString@XMLUni@@2QBGB 120e864c     XMLUni.obj
 0002:00018654       ?fgEString@XMLUni@@2QBGB   120e8654     XMLUni.obj
 0002:00018658       ?fgZeroString@XMLUni@@2QBGB 120e8658     XMLUni.obj
 0002:0001865c       ?fgNullString@XMLUni@@2QBGB 120e865c     XMLUni.obj
 0002:00018668       ?fgSAX2CoreValidation@XMLUni@@2QBGB 120e8668     XMLUni.obj
 0002:000186b8       ?fgSAX2CoreNameSpaces@XMLUni@@2QBGB 120e86b8     XMLUni.obj
 0002:00018708       ?fgSAX2CoreNameSpacePrefixes@XMLUni@@2QBGB 120e8708     XMLUni.obj
 0002:00018768       ?fgSAX2XercesDynamic@XMLUni@@2QBGB 120e8768     XMLUni.obj
 0002:000187cc       ?fgSAX2XercesReuseGrammar@XMLUni@@2QBGB 120e87cc     XMLUni.obj
 0002:0001883c       ?fgSAX2XercesSchema@XMLUni@@2QBGB 120e883c     XMLUni.obj
 0002:000188a0       ?fgSAX2XercesSchemaFullChecking@XMLUni@@2QBGB 120e88a0     XMLUni.obj
 0002:00018920       ?fgSAX2XercesReuseValidator@XMLUni@@2QBGB 120e8920     XMLUni.obj
 0002:00018994       ?fgSAX2XercesSchemaExternalSchemaLocation@XMLUni@@2QBGB 120e8994     XMLUni.obj
 0002:00018a14       ?fgSAX2XercesSchemaExternalNoNameSpaceSchemaLocation@XMLUni@@2QBGB 120e8a14     XMLUni.obj
 0002:00018aac       ?RESERVED_CHARACTERS@XMLUri@@0QBGB 120e8aac     XMLUri.obj
 0002:00018ac4       ?MARK_CHARACTERS@XMLUri@@0QBGB 120e8ac4     XMLUri.obj
 0002:00018ad8       ?SCHEME_CHARACTERS@XMLUri@@0QBGB 120e8ad8     XMLUri.obj
 0002:00018ae0       ?USERINFO_CHARACTERS@XMLUri@@0QBGB 120e8ae0     XMLUri.obj
 0002:00018bac       ??_7XMLUri@@6B@            120e8bac     XMLUri.obj
 0002:00018bf0       ??_7XMLURL@@6B@            120e8bf0     XMLURL.obj
 0002:00018bf4       ??_7XMLUTF16Transcoder@@6B@ 120e8bf4     XMLUTF16Transcoder.obj
 0002:00018d24       ??_7XMLUTF8Transcoder@@6B@ 120e8d24     XMLUTF8Transcoder.obj
 0002:000194ac       ??_7XMLWin1252Transcoder@@6B@ 120e94ac     XMLWin1252Transcoder.obj
 0002:000194bc       ??_7LocalFileInputSource@@6B@ 120e94bc     LocalFileInputSource.obj
 0002:000194c4       ??_7MemBufInputSource@@6B@ 120e94c4     MemBufInputSource.obj
 0002:000194cc       ??_7StdInInputSource@@6B@  120e94cc     StdInInputSource.obj
 0002:000194d4       ??_7URLInputSource@@6B@    120e94d4     URLInputSource.obj
 0002:00019538       ?fgInvalidAttrId@XMLAttDef@@2IB 120e9538     XMLAttDef.obj
 0002:0001953c       ??_7XMLAttDef@@6B@         120e953c     XMLAttDef.obj
 0002:00019544       ?gInvalidTrans@XMLContentModel@@2IB 120e9544     XMLContentModel.obj
 0002:00019548       ?gEOCFakeId@XMLContentModel@@2IB 120e9548     XMLContentModel.obj
 0002:0001954c       ?gEpsilonFakeId@XMLContentModel@@2IB 120e954c     XMLContentModel.obj
 0002:00019550       ??_7XMLContentModel@@6B@   120e9550     XMLContentModel.obj
 0002:00019568       ?fgInvalidElemId@XMLElementDecl@@2IB 120e9568     XMLElementDecl.obj
 0002:0001956c       ?fgPCDataElemId@XMLElementDecl@@2IB 120e956c     XMLElementDecl.obj
 0002:00019570       ?fgPCDataElemName@XMLElementDecl@@2QBGB 120e9570     XMLElementDecl.obj
 0002:00019580       ??_7XMLAttDefList@@6B@     120e9580     XMLElementDecl.obj
 0002:000195a4       ??_7XMLElementDecl@@6B@    120e95a4     XMLElementDecl.obj
 0002:000195d4       ??_7XMLEntityDecl@@6B@     120e95d4     XMLEntityDecl.obj
 0002:00019658       ??_7XMLFormatTarget@@6B@   120e9658     XMLFormatter.obj
 0002:00019660       ?fgASCIIPre@XMLRecognizer@@2QBDB 120e9660     XMLRecognizer.obj
 0002:00019668       ?fgASCIIPreLen@XMLRecognizer@@2IB 120e9668     XMLRecognizer.obj
 0002:0001966c       ?fgEBCDICPre@XMLRecognizer@@2QBEB 120e966c     XMLRecognizer.obj
 0002:00019674       ?fgEBCDICPreLen@XMLRecognizer@@2IB 120e9674     XMLRecognizer.obj
 0002:00019678       ?fgUTF16BPre@XMLRecognizer@@2QBEB 120e9678     XMLRecognizer.obj
 0002:00019684       ?fgUTF16LPre@XMLRecognizer@@2QBEB 120e9684     XMLRecognizer.obj
 0002:00019690       ?fgUTF16PreLen@XMLRecognizer@@2IB 120e9690     XMLRecognizer.obj
 0002:00019694       ?fgUCS4BPre@XMLRecognizer@@2QBEB 120e9694     XMLRecognizer.obj
 0002:000196ac       ?fgUCS4LPre@XMLRecognizer@@2QBEB 120e96ac     XMLRecognizer.obj
 0002:000196c4       ?fgUCS4PreLen@XMLRecognizer@@2IB 120e96c4     XMLRecognizer.obj
 0002:000196c8       ?fgUTF8BOM@XMLRecognizer@@2QBDB 120e96c8     XMLRecognizer.obj
 0002:000196cc       ?fgUTF8BOMLen@XMLRecognizer@@2IB 120e96cc     XMLRecognizer.obj
 0002:000196d0       ??_7XMLValidator@@6B@      120e96d0     XMLValidator.obj
 0002:00019704       ??_7Locator@@6B@           120e9704     XMLValidator.obj
 0002:00019718       ??_7DTDEntityDecl@@6B@     120e9718     XMLValidator.obj
 0002:00019728       ??_7Grammar@@6B@           120e9728     XMLValidator.obj
 0002:00019764       ??_7DTDGrammar@@6B@        120e9764     XMLValidator.obj
 0002:000197a0       ??_7?$NameIdPoolEnumerator@VDTDElementDecl@@@@6B@ 120e97a0     XMLValidator.obj
 0002:000197b0       ??_7?$NameIdPoolEnumerator@VXMLNotationDecl@@@@6B@ 120e97b0     XMLValidator.obj
 0002:000197c0       ??_7DatatypeValidator@@6B@ 120e97c0     XMLValidator.obj
 0002:000197e0       ??_7?$RefHash2KeysTableOfEnumerator@VSchemaAttDef@@@@6B@ 120e97e0     XMLValidator.obj
 0002:000197f0       ??_7XPathMatcher@@6B@      120e97f0     XMLValidator.obj
 0002:0001980c       ??_7FieldMatcher@@6B@      120e980c     XMLValidator.obj
 0002:00019828       ??_7AbstractStringValidator@@6B@ 120e9828     XMLValidator.obj
 0002:0001986c       ??_7StringDatatypeValidator@@6B@ 120e986c     XMLValidator.obj
 0002:000198b0       ??_7IDDatatypeValidator@@6B@ 120e98b0     XMLValidator.obj
 0002:000198f4       ??_7SchemaGrammar@@6B@     120e98f4     XMLValidator.obj
 0002:00019930       ??_7?$RefHash3KeysIdPoolEnumerator@VSchemaElementDecl@@@@6B@ 120e9930     XMLValidator.obj
 0002:00019940       ??_7?$NameIdPoolEnumerator@VDTDEntityDecl@@@@6B@ 120e9940     XMLValidator.obj
 0002:00019950       ??_7XMLDocumentHandler@@6B@ 120e9950     ReaderMgr.obj
 0002:00019984       ??_7XMLEntityHandler@@6B@  120e9984     ReaderMgr.obj
 0002:0001999c       ??_7ReaderMgr@@6B@         120e999c     ReaderMgr.obj
 0002:000199b0       ??_7Attributes@@6B@        120e99b0     VecAttributesImpl.obj
 0002:000199e4       ??_7VecAttributesImpl@@6B@ 120e99e4     VecAttributesImpl.obj
 0002:00019a18       ??_7AttributeList@@6B@     120e9a18     VecAttrListImpl.obj
 0002:00019a38       ??_7VecAttrListImpl@@6B@   120e9a38     VecAttrListImpl.obj
 0002:00019ad0       ??_7SAXException@@6B@      120e9ad0     XMLScanner.obj
 0002:00019ad8       ??_7DocTypeHandler@@6B@    120e9ad8     XMLScanner.obj
 0002:00019b1c       ??_7DTDScanner@@6B@        120e9b1c     XMLScanner.obj
 0002:00019b20       ??_7SelectorMatcher@@6B@   120e9b20     XMLScanner.obj
 0002:00019b5c       ??_7ErrorHandler@@6B@      120e9b5c     XMLScanner2.obj
 0002:00019b70       ??_7IDOM_Node@@6B@         120e9b70     XMLScanner2.obj
 0002:00019bd8       ??_7IDOM_Document@@6B@     120e9bd8     XMLScanner2.obj
 0002:00019c9c       ??_7IDOM_DocumentType@@6B@ 120e9c9c     XMLScanner2.obj
 0002:00019d1c       ??_7EntityResolver@@6B@    120e9d1c     XMLScanner2.obj
 0002:00019d24       ??_7IDOM_Element@@6B@      120e9d24     XMLScanner2.obj
 0002:00019dcc       ??_7IDOM_Attr@@6B@         120e9dcc     XMLScanner2.obj
 0002:00019e48       ??_7?$RefHashTableOfEnumerator@VXMLRefInfo@@@@6B@ 120e9e48     XMLScanner2.obj
 0002:00019e54       ??_7XMLInternalErrorHandler@@6B@ 120e9e54     XMLScanner2.obj
 0002:00019e68       ??_7DocumentHandler@@6B@   120e9e68     Dummy.obj
 0002:00019e90       ??_7DTDHandler@@6B@        120e9e90     Dummy.obj
 0002:00019ea0       ??_7HandlerBase@@6BErrorHandler@@@ 120e9ea0     Dummy.obj
 0002:00019eb4       ??_7HandlerBase@@6BDocumentHandler@@@ 120e9eb4     Dummy.obj
 0002:00019edc       ??_7HandlerBase@@6BDTDHandler@@@ 120e9edc     Dummy.obj
 0002:00019eec       ??_7HandlerBase@@6BEntityResolver@@@ 120e9eec     Dummy.obj
 0002:00019ef4       ??_7Parser@@6B@            120e9ef4     Dummy.obj
 0002:00019f14       ??_7InputSource@@6B@       120e9f14     InputSource.obj
 0002:00019f1c       ??_7SAXNotSupportedException@@6B@ 120e9f1c     SAXException.obj
 0002:00019f24       ??_7SAXNotRecognizedException@@6B@ 120e9f24     SAXException.obj
 0002:00019f2c       ??_7SAXParseException@@6B@ 120e9f2c     SAXParseException.obj
 0002:00019f4c       ??_7RefCountedImpl@@6B@    120e9f4c     DOMParser.obj
 0002:00019f58       ??_7NodeListImpl@@6B@      120e9f58     DOMParser.obj
 0002:00019f6c       ??_7NamedNodeMapImpl@@6B@  120e9f6c     DOMParser.obj
 0002:00019fac       ??_7AttrMapImpl@@6B@       120e9fac     DOMParser.obj
 0002:00019ff8       ??_7DocumentImpl@@6B@      120e9ff8     DOMParser.obj
 0002:0001a11c       ??_7DOMParser@@6BDocTypeHandler@@@ 120ea11c     DOMParser.obj
 0002:0001a160       ??_7DOMParser@@6BXMLEntityHandler@@@ 120ea160     DOMParser.obj
 0002:0001a178       ??_7DOMParser@@6BXMLErrorReporter@@@ 120ea178     DOMParser.obj
 0002:0001a184       ??_7DOMParser@@6BXMLDocumentHandler@@@ 120ea184     DOMParser.obj
 0002:0001a1d0       ??_7IDOM_DOMImplementation@@6B@ 120ea1d0     IDOMParser.obj
 0002:0001a1e4       ??_7IDOM_NodeList@@6B@     120ea1e4     IDOMParser.obj
 0002:0001a1f0       ??_7IDOM_CharacterData@@6B@ 120ea1f0     IDOMParser.obj
 0002:0001a278       ??_7IDOM_Text@@6B@         120ea278     IDOMParser.obj
 0002:0001a308       ??_7IDOM_CDATASection@@6B@ 120ea308     IDOMParser.obj
 0002:0001a398       ??_7IDOM_Comment@@6B@      120ea398     IDOMParser.obj
 0002:0001a420       ??_7IDDocumentImpl@@6B@    120ea420     IDOMParser.obj
 0002:0001a50c       ??_7IDOM_NamedNodeMap@@6B@ 120ea50c     IDOMParser.obj
 0002:0001a530       ??_7IDNamedNodeMapImpl@@6B@ 120ea530     IDOMParser.obj
 0002:0001a56c       ??_7IDAttrMapImpl@@6B@     120ea56c     IDOMParser.obj
 0002:0001a5b4       ??_7IDOM_Entity@@6B@       120ea5b4     IDOMParser.obj
 0002:0001a628       ??_7IDOM_EntityReference@@6B@ 120ea628     IDOMParser.obj
 0002:0001a690       ??_7IDOM_Notation@@6B@     120ea690     IDOMParser.obj
 0002:0001a700       ??_7IDOM_ProcessingInstruction@@6B@ 120ea700     IDOMParser.obj
 0002:0001a774       ??_7IDOMParser@@6BDocTypeHandler@@@ 120ea774     IDOMParser.obj
 0002:0001a7b8       ??_7IDOMParser@@6BXMLEntityHandler@@@ 120ea7b8     IDOMParser.obj
 0002:0001a7d0       ??_7IDOMParser@@6BXMLErrorReporter@@@ 120ea7d0     IDOMParser.obj
 0002:0001a7dc       ??_7IDOMParser@@6BXMLDocumentHandler@@@ 120ea7dc     IDOMParser.obj
 0002:0001a81c       ??_7ContentHandler@@6B@    120ea81c     SAX2XMLReaderImpl.obj
 0002:0001a84c       ??_7LexicalHandler@@6B@    120ea84c     SAX2XMLReaderImpl.obj
 0002:0001a86c       ??_7DeclHandler@@6B@       120ea86c     SAX2XMLReaderImpl.obj
 0002:0001a880       ??_7SAX2XMLReader@@6B@     120ea880     SAX2XMLReaderImpl.obj
 0002:0001a908       ??_7SAX2XMLReaderImpl@@6BDocTypeHandler@@@ 120ea908     SAX2XMLReaderImpl.obj
 0002:0001a94c       ??_7SAX2XMLReaderImpl@@6BXMLEntityHandler@@@ 120ea94c     SAX2XMLReaderImpl.obj
 0002:0001a964       ??_7SAX2XMLReaderImpl@@6BXMLErrorReporter@@@ 120ea964     SAX2XMLReaderImpl.obj
 0002:0001a970       ??_7SAX2XMLReaderImpl@@6BXMLDocumentHandler@@@ 120ea970     SAX2XMLReaderImpl.obj
 0002:0001a9a4       ??_7SAX2XMLReaderImpl@@6BSAX2XMLReader@@@ 120ea9a4     SAX2XMLReaderImpl.obj
 0002:0001aa2c       ??_7SAXParser@@6BDocTypeHandler@@@ 120eaa2c     SAXParser.obj
 0002:0001aa70       ??_7SAXParser@@6BXMLEntityHandler@@@ 120eaa70     SAXParser.obj
 0002:0001aa88       ??_7SAXParser@@6BXMLErrorReporter@@@ 120eaa88     SAXParser.obj
 0002:0001aa94       ??_7SAXParser@@6BXMLDocumentHandler@@@ 120eaa94     SAXParser.obj
 0002:0001aac8       ??_7SAXParser@@6BParser@@@ 120eaac8     SAXParser.obj
 0002:0001aae8       ??_7AttrImpl@@6B@          120eaae8     AttrImpl.obj
 0002:0001abb4       ??_7AttrNSImpl@@6B@        120eabb4     AttrNSImpl.obj
 0002:0001ac80       ??_7CDATASectionImpl@@6B@  120eac80     CDATASectionImpl.obj
 0002:0001ad64       ??_7CharacterDataImpl@@6B@ 120ead64     CharacterDataImpl.obj
 0002:0001ae3c       ??_7ChildNode@@6B@         120eae3c     ChildNode.obj
 0002:0001aef4       ??_7CommentImpl@@6B@       120eaef4     CommentImpl.obj
 0002:0001afcc       ??_7DeepNodeListImpl@@6B@  120eafcc     DeepNodeListImpl.obj
 0002:0001afe4       ??_7DocumentFragmentImpl@@6B@ 120eafe4     DocumentFragmentImpl.obj
 0002:0001b09c       ??_7DocumentTypeImpl@@6B@  120eb09c     DocumentTypeImpl.obj
 0002:0001b17c       ??_7DOM_DOMException@@6B@  120eb17c     DOM_DOMException.obj
 0002:0001b180       ?NNM_ELEMENT@DOM_NamedNodeMap@@0GB 120eb180     DOM_NamedNodeMap.obj
 0002:0001b182       ?NNM_OTHER@DOM_NamedNodeMap@@0GB 120eb182     DOM_NamedNodeMap.obj
 0002:0001b184       ??_7DOM_NodeFilter@@6B@    120eb184     DOM_NodeFilter.obj
 0002:0001b18c       ??_7DOM_RangeException@@6B@ 120eb18c     DOM_RangeException.obj
 0002:0001b190       ??_7ElementDefinitionImpl@@6B@ 120eb190     ElementDefinitionImpl.obj
 0002:0001b248       ??_7ElementImpl@@6B@       120eb248     ElementImpl.obj
 0002:0001b380       ??_7ElementNSImpl@@6B@     120eb380     ElementNSImpl.obj
 0002:0001b4b8       ??_7EntityImpl@@6B@        120eb4b8     EntityImpl.obj
 0002:0001b590       ??_7EntityReferenceImpl@@6B@ 120eb590     EntityReferenceImpl.obj
 0002:0001b660       ??_7NodeIDMap@@6B@         120eb660     NodeIDMap.obj
 0002:0001b664       ?READONLY@NodeImpl@@2GB    120eb664     NodeImpl.obj
 0002:0001b666       ?SYNCDATA@NodeImpl@@2GB    120eb666     NodeImpl.obj
 0002:0001b668       ?SYNCCHILDREN@NodeImpl@@2GB 120eb668     NodeImpl.obj
 0002:0001b66a       ?OWNED@NodeImpl@@2GB       120eb66a     NodeImpl.obj
 0002:0001b66c       ?FIRSTCHILD@NodeImpl@@2GB  120eb66c     NodeImpl.obj
 0002:0001b66e       ?SPECIFIED@NodeImpl@@2GB   120eb66e     NodeImpl.obj
 0002:0001b670       ?IGNORABLEWS@NodeImpl@@2GB 120eb670     NodeImpl.obj
 0002:0001b672       ?SETVALUE@NodeImpl@@2GB    120eb672     NodeImpl.obj
 0002:0001b674       ?ID_ATTR@NodeImpl@@2GB     120eb674     NodeImpl.obj
 0002:0001b676       ?USERDATA@NodeImpl@@2GB    120eb676     NodeImpl.obj
 0002:0001b678       ?HASSTRING@NodeImpl@@2GB   120eb678     NodeImpl.obj
 0002:0001b67c       ??_7NodeImpl@@6B@          120eb67c     NodeImpl.obj
 0002:0001b734       ??_7NodeIteratorImpl@@6B@  120eb734     NodeIteratorImpl.obj
 0002:0001b740       ??_7NotationImpl@@6B@      120eb740     NotationImpl.obj
 0002:0001b808       ??_7ParentNode@@6B@        120eb808     ParentNode.obj
 0002:0001b8c0       ??_7ProcessingInstructionImpl@@6B@ 120eb8c0     ProcessingInstructionImpl.obj
 0002:0001b984       ??_7RangeImpl@@6B@         120eb984     RangeImpl.obj
 0002:0001b990       ??_7TextImpl@@6B@          120eb990     TextImpl.obj
 0002:0001ba74       ??_7TreeWalkerImpl@@6B@    120eba74     TreeWalkerImpl.obj
 0002:0001ba80       ??_7XMLDeclImpl@@6B@       120eba80     XMLDeclImpl.obj
 0002:0001bb50       ??_7AllContentModel@@6B@   120ebb50     AllContentModel.obj
 0002:0001bb68       ??_7CMAny@@6B@             120ebb68     CMAny.obj
 0002:0001bb78       ??_7CMNode@@6B@            120ebb78     CMAny.obj
 0002:0001bb88       ??_7CMBinaryOp@@6B@        120ebb88     CMBinaryOp.obj
 0002:0001bb98       ??_7CMUnaryOp@@6B@         120ebb98     CMUnaryOp.obj
 0002:0001bba8       ??_7HashCMStateSet@@6B@    120ebba8     DFAContentModel.obj
 0002:0001bbb4       ??_7DFAContentModel@@6B@   120ebbb4     DFAContentModel.obj
 0002:0001bbcc       ??_7CMLeaf@@6B@            120ebbcc     DFAContentModel.obj
 0002:0001bbdc       ??_7?$RefHashTableOfEnumerator@VGrammar@@@@6B@ 120ebbdc     GrammarResolver.obj
 0002:0001bbe8       ??_7MixedContentModel@@6B@ 120ebbe8     MixedContentModel.obj
 0002:0001bc00       ?INDETERMINATE@AbstractNumericFacetValidator@@1HB 120ebc00     AbstractNumericFacetValidator.obj
 0002:0001bc04       ??_7AbstractNumericFacetValidator@@6B@ 120ebc04     AbstractNumericFacetValidator.obj
 0002:0001bc50       ??_7InvalidDatatypeFacetException@@6B@ 120ebc50     AbstractNumericFacetValidator.obj
 0002:0001bc5c       ??_7?$RefHashTableOfEnumerator@VKVStringPair@@@@6B@ 120ebc5c     AbstractNumericFacetValidator.obj
 0002:0001bc68       ??_7AbstractNumericValidator@@6B@ 120ebc68     AbstractNumericValidator.obj
 0002:0001bcb4       ??_7InvalidDatatypeValueException@@6B@ 120ebcb4     AbstractNumericValidator.obj
 0002:0001bcc0       ??_7AnySimpleTypeDatatypeValidator@@6B@ 120ebcc0     AnySimpleTypeDatatypeValidator.obj
 0002:0001bd10       ??_7AnyURIDatatypeValidator@@6B@ 120ebd10     AnyURIDatatypeValidator.obj
 0002:0001bd54       ??_7Base64BinaryDatatypeValidator@@6B@ 120ebd54     Base64BinaryDatatypeValidator.obj
 0002:0001be98       ??_7BooleanDatatypeValidator@@6B@ 120ebe98     BooleanDatatypeValidator.obj
 0002:0001c050       ??_7DecimalDatatypeValidator@@6B@ 120ec050     DatatypeValidatorFactory.obj
 0002:0001c09c       ??_7HexBinaryDatatypeValidator@@6B@ 120ec09c     DatatypeValidatorFactory.obj
 0002:0001c0e0       ??_7IDREFDatatypeValidator@@6B@ 120ec0e0     DatatypeValidatorFactory.obj
 0002:0001c124       ??_7NOTATIONDatatypeValidator@@6B@ 120ec124     DatatypeValidatorFactory.obj
 0002:0001c168       ??_7ENTITYDatatypeValidator@@6B@ 120ec168     DatatypeValidatorFactory.obj
 0002:0001c1ac       ??_7QNameDatatypeValidator@@6B@ 120ec1ac     DatatypeValidatorFactory.obj
 0002:0001c1f0       ??_7NameDatatypeValidator@@6B@ 120ec1f0     DatatypeValidatorFactory.obj
 0002:0001c234       ??_7NCNameDatatypeValidator@@6B@ 120ec234     DatatypeValidatorFactory.obj
 0002:0001c278       ??_7ListDatatypeValidator@@6B@ 120ec278     DatatypeValidatorFactory.obj
 0002:0001c2bc       ??_7UnionDatatypeValidator@@6B@ 120ec2bc     DatatypeValidatorFactory.obj
 0002:0001c2dc       ??_7DoubleDatatypeValidator@@6B@ 120ec2dc     DatatypeValidatorFactory.obj
 0002:0001c328       ??_7FloatDatatypeValidator@@6B@ 120ec328     DatatypeValidatorFactory.obj
 0002:0001c374       ??_7DateTimeValidator@@6B@ 120ec374     DatatypeValidatorFactory.obj
 0002:0001c3c8       ??_7DateTimeDatatypeValidator@@6B@ 120ec3c8     DatatypeValidatorFactory.obj
 0002:0001c41c       ??_7DateDatatypeValidator@@6B@ 120ec41c     DatatypeValidatorFactory.obj
 0002:0001c470       ??_7TimeDatatypeValidator@@6B@ 120ec470     DatatypeValidatorFactory.obj
 0002:0001c4c4       ??_7DayDatatypeValidator@@6B@ 120ec4c4     DatatypeValidatorFactory.obj
 0002:0001c518       ??_7MonthDatatypeValidator@@6B@ 120ec518     DatatypeValidatorFactory.obj
 0002:0001c56c       ??_7MonthDayDatatypeValidator@@6B@ 120ec56c     DatatypeValidatorFactory.obj
 0002:0001c5c0       ??_7YearDatatypeValidator@@6B@ 120ec5c0     DatatypeValidatorFactory.obj
 0002:0001c614       ??_7YearMonthDatatypeValidator@@6B@ 120ec614     DatatypeValidatorFactory.obj
 0002:0001c668       ??_7DurationDatatypeValidator@@6B@ 120ec668     DatatypeValidatorFactory.obj
 0002:0001c6bc       ??_7DTDAttDef@@6B@         120ec6bc     DTDAttDef.obj
 0002:0001c6c4       ??_7?$RefHashTableOfEnumerator@VDTDAttDef@@@@6B@ 120ec6c4     DTDAttDefList.obj
 0002:0001c6d0       ??_7DTDAttDefList@@6B@     120ec6d0     DTDAttDefList.obj
 0002:0001c6f4       ??_7DTDElementDecl@@6B@    120ec6f4     DTDElementDecl.obj
 0002:0001c724       ??_7SimpleContentModel@@6B@ 120ec724     DTDElementDecl.obj
 0002:0001c74c       ??_7DTDValidator@@6B@      120ec74c     DTDValidator.obj
 0002:0001c780       ??_7XPathScanner@@6B@      120ec780     IC_Field.obj
 0002:0001c788       ??_7IC_Key@@6B@            120ec788     IC_Key.obj
 0002:0001c790       ??_7IC_KeyRef@@6B@         120ec790     IC_KeyRef.obj
 0002:0001c798       ??_7IC_Unique@@6B@         120ec798     IC_Unique.obj
 0002:0001c7a0       ??_7IdentityConstraint@@6B@ 120ec7a0     IdentityConstraint.obj
 0002:0001c7a8       ??_7?$RefHashTableOfEnumerator@VValueStore@@@@6B@ 120ec7a8     ValueStoreCache.obj
 0002:0001c7b4       ?fASCIICharMap@XPathScanner@@0QBEB 120ec7b4     XercesXPath.obj
 0002:0001c834       ??_7XPathException@@6B@    120ec834     XercesXPath.obj
 0002:0001c840       ??_7XPathScannerForSchema@@6B@ 120ec840     XercesXPath.obj
 0002:0001c848       ?fgSYMBOL_AND@XPathSymbols@@2QBGB 120ec848     XPathSymbols.obj
 0002:0001c850       ?fgSYMBOL_OR@XPathSymbols@@2QBGB 120ec850     XPathSymbols.obj
 0002:0001c858       ?fgSYMBOL_MOD@XPathSymbols@@2QBGB 120ec858     XPathSymbols.obj
 0002:0001c860       ?fgSYMBOL_DIV@XPathSymbols@@2QBGB 120ec860     XPathSymbols.obj
 0002:0001c868       ?fgSYMBOL_COMMENT@XPathSymbols@@2QBGB 120ec868     XPathSymbols.obj
 0002:0001c878       ?fgSYMBOL_TEXT@XPathSymbols@@2QBGB 120ec878     XPathSymbols.obj
 0002:0001c884       ?fgSYMBOL_PI@XPathSymbols@@2QBGB 120ec884     XPathSymbols.obj
 0002:0001c8b4       ?fgSYMBOL_NODE@XPathSymbols@@2QBGB 120ec8b4     XPathSymbols.obj
 0002:0001c8c0       ?fgSYMBOL_ANCESTOR@XPathSymbols@@2QBGB 120ec8c0     XPathSymbols.obj
 0002:0001c8d4       ?fgSYMBOL_ANCESTOR_OR_SELF@XPathSymbols@@2QBGB 120ec8d4     XPathSymbols.obj
 0002:0001c8f8       ?fgSYMBOL_ATTRIBUTE@XPathSymbols@@2QBGB 120ec8f8     XPathSymbols.obj
 0002:0001c90c       ?fgSYMBOL_CHILD@XPathSymbols@@2QBGB 120ec90c     XPathSymbols.obj
 0002:0001c918       ?fgSYMBOL_DESCENDANT@XPathSymbols@@2QBGB 120ec918     XPathSymbols.obj
 0002:0001c930       ?fgSYMBOL_DESCENDANT_OR_SELF@XPathSymbols@@2QBGB 120ec930     XPathSymbols.obj
 0002:0001c958       ?fgSYMBOL_FOLLOWING@XPathSymbols@@2QBGB 120ec958     XPathSymbols.obj
 0002:0001c96c       ?fgSYMBOL_FOLLOWING_SIBLING@XPathSymbols@@2QBGB 120ec96c     XPathSymbols.obj
 0002:0001c990       ?fgSYMBOL_NAMESPACE@XPathSymbols@@2QBGB 120ec990     XPathSymbols.obj
 0002:0001c9a4       ?fgSYMBOL_PARENT@XPathSymbols@@2QBGB 120ec9a4     XPathSymbols.obj
 0002:0001c9b4       ?fgSYMBOL_PRECEDING@XPathSymbols@@2QBGB 120ec9b4     XPathSymbols.obj
 0002:0001c9c8       ?fgSYMBOL_PRECEDING_SIBLING@XPathSymbols@@2QBGB 120ec9c8     XPathSymbols.obj
 0002:0001c9ec       ?fgSYMBOL_SELF@XPathSymbols@@2QBGB 120ec9ec     XPathSymbols.obj
 0002:0001ca2e       ?GlobalContext@GeneralAttributeCheck@@2GB 120eca2e     GeneralAttributeCheck.obj
 0002:0001ca30       ?LocalContext@GeneralAttributeCheck@@2GB 120eca30     GeneralAttributeCheck.obj
 0002:0001ca34       ??_7SchemaAttDef@@6B@      120eca34     SchemaAttDef.obj
 0002:0001ca3c       ??_7SchemaAttDefList@@6B@  120eca3c     SchemaAttDefList.obj
 0002:0001ca60       ??_7SchemaElementDecl@@6B@ 120eca60     SchemaElementDecl.obj
 0002:0001ca90       ?fgURI_XSI@SchemaSymbols@@2QBGB 120eca90     SchemaSymbols.obj
 0002:0001cae4       ?fgURI_SCHEMAFORSCHEMA@SchemaSymbols@@2QBGB 120ecae4     SchemaSymbols.obj
 0002:0001cb28       ?fgXSI_SCHEMALOCACTION@SchemaSymbols@@2QBGB 120ecb28     SchemaSymbols.obj
 0002:0001cb48       ?fgXSI_NONAMESPACESCHEMALOCACTION@SchemaSymbols@@2QBGB 120ecb48     SchemaSymbols.obj
 0002:0001cb7c       ?fgXSI_TYPE@SchemaSymbols@@2QBGB 120ecb7c     SchemaSymbols.obj
 0002:0001cb88       ?fgELT_ALL@SchemaSymbols@@2QBGB 120ecb88     SchemaSymbols.obj
 0002:0001cb90       ?fgELT_ANNOTATION@SchemaSymbols@@2QBGB 120ecb90     SchemaSymbols.obj
 0002:0001cba8       ?fgELT_ANY@SchemaSymbols@@2QBGB 120ecba8     SchemaSymbols.obj
 0002:0001cbb0       ?fgELT_WILDCARD@SchemaSymbols@@2QBGB 120ecbb0     SchemaSymbols.obj
 0002:0001cbb8       ?fgELT_ANYATTRIBUTE@SchemaSymbols@@2QBGB 120ecbb8     SchemaSymbols.obj
 0002:0001cbd4       ?fgELT_APPINFO@SchemaSymbols@@2QBGB 120ecbd4     SchemaSymbols.obj
 0002:0001cbe4       ?fgELT_ATTRIBUTE@SchemaSymbols@@2QBGB 120ecbe4     SchemaSymbols.obj
 0002:0001cbf8       ?fgELT_ATTRIBUTEGROUP@SchemaSymbols@@2QBGB 120ecbf8     SchemaSymbols.obj
 0002:0001cc18       ?fgELT_CHOICE@SchemaSymbols@@2QBGB 120ecc18     SchemaSymbols.obj
 0002:0001cc28       ?fgELT_COMPLEXTYPE@SchemaSymbols@@2QBGB 120ecc28     SchemaSymbols.obj
 0002:0001cc40       ?fgELT_CONTENT@SchemaSymbols@@2QBGB 120ecc40     SchemaSymbols.obj
 0002:0001cc50       ?fgELT_DOCUMENTATION@SchemaSymbols@@2QBGB 120ecc50     SchemaSymbols.obj
 0002:0001cc6c       ?fgELT_DURATION@SchemaSymbols@@2QBGB 120ecc6c     SchemaSymbols.obj
 0002:0001cc80       ?fgELT_ELEMENT@SchemaSymbols@@2QBGB 120ecc80     SchemaSymbols.obj
 0002:0001cc90       ?fgELT_ENCODING@SchemaSymbols@@2QBGB 120ecc90     SchemaSymbols.obj
 0002:0001cca4       ?fgELT_ENUMERATION@SchemaSymbols@@2QBGB 120ecca4     SchemaSymbols.obj
 0002:0001ccbc       ?fgELT_FIELD@SchemaSymbols@@2QBGB 120eccbc     SchemaSymbols.obj
 0002:0001ccc8       ?fgELT_WHITESPACE@SchemaSymbols@@2QBGB 120eccc8     SchemaSymbols.obj
 0002:0001cce0       ?fgELT_GROUP@SchemaSymbols@@2QBGB 120ecce0     SchemaSymbols.obj
 0002:0001ccec       ?fgELT_IMPORT@SchemaSymbols@@2QBGB 120eccec     SchemaSymbols.obj
 0002:0001ccfc       ?fgELT_INCLUDE@SchemaSymbols@@2QBGB 120eccfc     SchemaSymbols.obj
 0002:0001cd0c       ?fgELT_REDEFINE@SchemaSymbols@@2QBGB 120ecd0c     SchemaSymbols.obj
 0002:0001cd20       ?fgELT_KEY@SchemaSymbols@@2QBGB 120ecd20     SchemaSymbols.obj
 0002:0001cd28       ?fgELT_KEYREF@SchemaSymbols@@2QBGB 120ecd28     SchemaSymbols.obj
 0002:0001cd38       ?fgELT_LENGTH@SchemaSymbols@@2QBGB 120ecd38     SchemaSymbols.obj
 0002:0001cd48       ?fgELT_MAXEXCLUSIVE@SchemaSymbols@@2QBGB 120ecd48     SchemaSymbols.obj
 0002:0001cd64       ?fgELT_MAXINCLUSIVE@SchemaSymbols@@2QBGB 120ecd64     SchemaSymbols.obj
 0002:0001cd80       ?fgELT_MAXLENGTH@SchemaSymbols@@2QBGB 120ecd80     SchemaSymbols.obj
 0002:0001cd94       ?fgELT_MINEXCLUSIVE@SchemaSymbols@@2QBGB 120ecd94     SchemaSymbols.obj
 0002:0001cdb0       ?fgELT_MININCLUSIVE@SchemaSymbols@@2QBGB 120ecdb0     SchemaSymbols.obj
 0002:0001cdcc       ?fgELT_MINLENGTH@SchemaSymbols@@2QBGB 120ecdcc     SchemaSymbols.obj
 0002:0001cde0       ?fgELT_NOTATION@SchemaSymbols@@2QBGB 120ecde0     SchemaSymbols.obj
 0002:0001cdf4       ?fgELT_PATTERN@SchemaSymbols@@2QBGB 120ecdf4     SchemaSymbols.obj
 0002:0001ce04       ?fgELT_PERIOD@SchemaSymbols@@2QBGB 120ece04     SchemaSymbols.obj
 0002:0001ce14       ?fgELT_TOTALDIGITS@SchemaSymbols@@2QBGB 120ece14     SchemaSymbols.obj
 0002:0001ce2c       ?fgELT_FRACTIONDIGITS@SchemaSymbols@@2QBGB 120ece2c     SchemaSymbols.obj
 0002:0001ce4c       ?fgELT_SCHEMA@SchemaSymbols@@2QBGB 120ece4c     SchemaSymbols.obj
 0002:0001ce5c       ?fgELT_SELECTOR@SchemaSymbols@@2QBGB 120ece5c     SchemaSymbols.obj
 0002:0001ce70       ?fgELT_SEQUENCE@SchemaSymbols@@2QBGB 120ece70     SchemaSymbols.obj
 0002:0001ce84       ?fgELT_SIMPLETYPE@SchemaSymbols@@2QBGB 120ece84     SchemaSymbols.obj
 0002:0001ce9c       ?fgELT_UNION@SchemaSymbols@@2QBGB 120ece9c     SchemaSymbols.obj
 0002:0001cea8       ?fgELT_LIST@SchemaSymbols@@2QBGB 120ecea8     SchemaSymbols.obj
 0002:0001ceb4       ?fgELT_UNIQUE@SchemaSymbols@@2QBGB 120eceb4     SchemaSymbols.obj
 0002:0001cec4       ?fgELT_COMPLEXCONTENT@SchemaSymbols@@2QBGB 120ecec4     SchemaSymbols.obj
 0002:0001cee4       ?fgELT_SIMPLECONTENT@SchemaSymbols@@2QBGB 120ecee4     SchemaSymbols.obj
 0002:0001cf00       ?fgELT_RESTRICTION@SchemaSymbols@@2QBGB 120ecf00     SchemaSymbols.obj
 0002:0001cf18       ?fgELT_EXTENSION@SchemaSymbols@@2QBGB 120ecf18     SchemaSymbols.obj
 0002:0001cf2c       ?fgATT_ABSTRACT@SchemaSymbols@@2QBGB 120ecf2c     SchemaSymbols.obj
 0002:0001cf40       ?fgATT_ATTRIBUTEFORMDEFAULT@SchemaSymbols@@2QBGB 120ecf40     SchemaSymbols.obj
 0002:0001cf6c       ?fgATT_BASE@SchemaSymbols@@2QBGB 120ecf6c     SchemaSymbols.obj
 0002:0001cf78       ?fgATT_ITEMTYPE@SchemaSymbols@@2QBGB 120ecf78     SchemaSymbols.obj
 0002:0001cf8c       ?fgATT_MEMBERTYPES@SchemaSymbols@@2QBGB 120ecf8c     SchemaSymbols.obj
 0002:0001cfa4       ?fgATT_BLOCK@SchemaSymbols@@2QBGB 120ecfa4     SchemaSymbols.obj
 0002:0001cfb0       ?fgATT_BLOCKDEFAULT@SchemaSymbols@@2QBGB 120ecfb0     SchemaSymbols.obj
 0002:0001cfcc       ?fgATT_CONTENT@SchemaSymbols@@2QBGB 120ecfcc     SchemaSymbols.obj
 0002:0001cfdc       ?fgATT_DEFAULT@SchemaSymbols@@2QBGB 120ecfdc     SchemaSymbols.obj
 0002:0001cfec       ?fgATT_DERIVEDBY@SchemaSymbols@@2QBGB 120ecfec     SchemaSymbols.obj
 0002:0001d000       ?fgATT_ELEMENTFORMDEFAULT@SchemaSymbols@@2QBGB 120ed000     SchemaSymbols.obj
 0002:0001d028       ?fgATT_SUBSTITUTIONGROUP@SchemaSymbols@@2QBGB 120ed028     SchemaSymbols.obj
 0002:0001d04c       ?fgATT_FINAL@SchemaSymbols@@2QBGB 120ed04c     SchemaSymbols.obj
 0002:0001d058       ?fgATT_FINALDEFAULT@SchemaSymbols@@2QBGB 120ed058     SchemaSymbols.obj
 0002:0001d074       ?fgATT_FIXED@SchemaSymbols@@2QBGB 120ed074     SchemaSymbols.obj
 0002:0001d080       ?fgATT_FORM@SchemaSymbols@@2QBGB 120ed080     SchemaSymbols.obj
 0002:0001d08c       ?fgATT_ID@SchemaSymbols@@2QBGB 120ed08c     SchemaSymbols.obj
 0002:0001d094       ?fgATT_MAXOCCURS@SchemaSymbols@@2QBGB 120ed094     SchemaSymbols.obj
 0002:0001d0a8       ?fgATT_MINOCCURS@SchemaSymbols@@2QBGB 120ed0a8     SchemaSymbols.obj
 0002:0001d0bc       ?fgATT_NAME@SchemaSymbols@@2QBGB 120ed0bc     SchemaSymbols.obj
 0002:0001d0c8       ?fgATT_NAMESPACE@SchemaSymbols@@2QBGB 120ed0c8     SchemaSymbols.obj
 0002:0001d0dc       ?fgATT_NILL@SchemaSymbols@@2QBGB 120ed0dc     SchemaSymbols.obj
 0002:0001d0e4       ?fgATT_NILLABLE@SchemaSymbols@@2QBGB 120ed0e4     SchemaSymbols.obj
 0002:0001d0f8       ?fgATT_PROCESSCONTENTS@SchemaSymbols@@2QBGB 120ed0f8     SchemaSymbols.obj
 0002:0001d118       ?fgATT_REF@SchemaSymbols@@2QBGB 120ed118     SchemaSymbols.obj
 0002:0001d120       ?fgATT_REFER@SchemaSymbols@@2QBGB 120ed120     SchemaSymbols.obj
 0002:0001d12c       ?fgATT_SCHEMALOCATION@SchemaSymbols@@2QBGB 120ed12c     SchemaSymbols.obj
 0002:0001d14c       ?fgATT_SOURCE@SchemaSymbols@@2QBGB 120ed14c     SchemaSymbols.obj
 0002:0001d15c       ?fgATT_SYSTEM@SchemaSymbols@@2QBGB 120ed15c     SchemaSymbols.obj
 0002:0001d16c       ?fgATT_PUBLIC@SchemaSymbols@@2QBGB 120ed16c     SchemaSymbols.obj
 0002:0001d17c       ?fgATT_TARGETNAMESPACE@SchemaSymbols@@2QBGB 120ed17c     SchemaSymbols.obj
 0002:0001d19c       ?fgATT_TYPE@SchemaSymbols@@2QBGB 120ed19c     SchemaSymbols.obj
 0002:0001d1a8       ?fgATT_USE@SchemaSymbols@@2QBGB 120ed1a8     SchemaSymbols.obj
 0002:0001d1b0       ?fgATT_VALUE@SchemaSymbols@@2QBGB 120ed1b0     SchemaSymbols.obj
 0002:0001d1bc       ?fgATT_MIXED@SchemaSymbols@@2QBGB 120ed1bc     SchemaSymbols.obj
 0002:0001d1c8       ?fgATT_VERSION@SchemaSymbols@@2QBGB 120ed1c8     SchemaSymbols.obj
 0002:0001d1d8       ?fgATT_XPATH@SchemaSymbols@@2QBGB 120ed1d8     SchemaSymbols.obj
 0002:0001d1e4       ?fgATTVAL_TWOPOUNDANY@SchemaSymbols@@2QBGB 120ed1e4     SchemaSymbols.obj
 0002:0001d1f0       ?fgATTVAL_TWOPOUNDLOCAL@SchemaSymbols@@2QBGB 120ed1f0     SchemaSymbols.obj
 0002:0001d200       ?fgATTVAL_TWOPOUNDOTHER@SchemaSymbols@@2QBGB 120ed200     SchemaSymbols.obj
 0002:0001d210       ?fgATTVAL_TWOPOUNDTRAGETNAMESPACE@SchemaSymbols@@2QBGB 120ed210     SchemaSymbols.obj
 0002:0001d234       ?fgATTVAL_POUNDALL@SchemaSymbols@@2QBGB 120ed234     SchemaSymbols.obj
 0002:0001d240       ?fgATTVAL_BASE64@SchemaSymbols@@2QBGB 120ed240     SchemaSymbols.obj
 0002:0001d250       ?fgATTVAL_BOOLEAN@SchemaSymbols@@2QBGB 120ed250     SchemaSymbols.obj
 0002:0001d260       ?fgATTVAL_DEFAULT@SchemaSymbols@@2QBGB 120ed260     SchemaSymbols.obj
 0002:0001d270       ?fgATTVAL_ELEMENTONLY@SchemaSymbols@@2QBGB 120ed270     SchemaSymbols.obj
 0002:0001d288       ?fgATTVAL_EMPTY@SchemaSymbols@@2QBGB 120ed288     SchemaSymbols.obj
 0002:0001d294       ?fgATTVAL_EXTENSION@SchemaSymbols@@2QBGB 120ed294     SchemaSymbols.obj
 0002:0001d2a8       ?fgATTVAL_FALSE@SchemaSymbols@@2QBGB 120ed2a8     SchemaSymbols.obj
 0002:0001d2b4       ?fgATTVAL_FIXED@SchemaSymbols@@2QBGB 120ed2b4     SchemaSymbols.obj
 0002:0001d2c0       ?fgATTVAL_HEX@SchemaSymbols@@2QBGB 120ed2c0     SchemaSymbols.obj
 0002:0001d2c8       ?fgATTVAL_ID@SchemaSymbols@@2QBGB 120ed2c8     SchemaSymbols.obj
 0002:0001d2d0       ?fgATTVAL_LAX@SchemaSymbols@@2QBGB 120ed2d0     SchemaSymbols.obj
 0002:0001d2d8       ?fgATTVAL_MAXLENGTH@SchemaSymbols@@2QBGB 120ed2d8     SchemaSymbols.obj
 0002:0001d2ec       ?fgATTVAL_MINLENGTH@SchemaSymbols@@2QBGB 120ed2ec     SchemaSymbols.obj
 0002:0001d300       ?fgATTVAL_MIXED@SchemaSymbols@@2QBGB 120ed300     SchemaSymbols.obj
 0002:0001d30c       ?fgATTVAL_NCNAME@SchemaSymbols@@2QBGB 120ed30c     SchemaSymbols.obj
 0002:0001d31c       ?fgATTVAL_OPTIONAL@SchemaSymbols@@2QBGB 120ed31c     SchemaSymbols.obj
 0002:0001d330       ?fgATTVAL_PROHIBITED@SchemaSymbols@@2QBGB 120ed330     SchemaSymbols.obj
 0002:0001d348       ?fgATTVAL_QNAME@SchemaSymbols@@2QBGB 120ed348     SchemaSymbols.obj
 0002:0001d354       ?fgATTVAL_QUALIFIED@SchemaSymbols@@2QBGB 120ed354     SchemaSymbols.obj
 0002:0001d368       ?fgATTVAL_REQUIRED@SchemaSymbols@@2QBGB 120ed368     SchemaSymbols.obj
 0002:0001d37c       ?fgATTVAL_RESTRICTION@SchemaSymbols@@2QBGB 120ed37c     SchemaSymbols.obj
 0002:0001d394       ?fgATTVAL_SKIP@SchemaSymbols@@2QBGB 120ed394     SchemaSymbols.obj
 0002:0001d3a0       ?fgATTVAL_STRICT@SchemaSymbols@@2QBGB 120ed3a0     SchemaSymbols.obj
 0002:0001d3b0       ?fgATTVAL_STRING@SchemaSymbols@@2QBGB 120ed3b0     SchemaSymbols.obj
 0002:0001d3c0       ?fgATTVAL_TEXTONLY@SchemaSymbols@@2QBGB 120ed3c0     SchemaSymbols.obj
 0002:0001d3d4       ?fgATTVAL_TIMEDURATION@SchemaSymbols@@2QBGB 120ed3d4     SchemaSymbols.obj
 0002:0001d3f0       ?fgATTVAL_TRUE@SchemaSymbols@@2QBGB 120ed3f0     SchemaSymbols.obj
 0002:0001d3fc       ?fgATTVAL_UNQUALIFIED@SchemaSymbols@@2QBGB 120ed3fc     SchemaSymbols.obj
 0002:0001d414       ?fgATTVAL_URI@SchemaSymbols@@2QBGB 120ed414     SchemaSymbols.obj
 0002:0001d41c       ?fgATTVAL_URIREFERENCE@SchemaSymbols@@2QBGB 120ed41c     SchemaSymbols.obj
 0002:0001d438       ?fgATTVAL_SUBSTITUTIONGROUP@SchemaSymbols@@2QBGB 120ed438     SchemaSymbols.obj
 0002:0001d45c       ?fgATTVAL_SUBSTITUTION@SchemaSymbols@@2QBGB 120ed45c     SchemaSymbols.obj
 0002:0001d478       ?fgATTVAL_ANYTYPE@SchemaSymbols@@2QBGB 120ed478     SchemaSymbols.obj
 0002:0001d488       ?fgWS_PRESERVE@SchemaSymbols@@2QBGB 120ed488     SchemaSymbols.obj
 0002:0001d49c       ?fgWS_COLLAPSE@SchemaSymbols@@2QBGB 120ed49c     SchemaSymbols.obj
 0002:0001d4b0       ?fgWS_REPLACE@SchemaSymbols@@2QBGB 120ed4b0     SchemaSymbols.obj
 0002:0001d4c0       ?fgDT_STRING@SchemaSymbols@@2QBGB 120ed4c0     SchemaSymbols.obj
 0002:0001d4d0       ?fgDT_TOKEN@SchemaSymbols@@2QBGB 120ed4d0     SchemaSymbols.obj
 0002:0001d4dc       ?fgDT_LANGUAGE@SchemaSymbols@@2QBGB 120ed4dc     SchemaSymbols.obj
 0002:0001d4f0       ?fgDT_NAME@SchemaSymbols@@2QBGB 120ed4f0     SchemaSymbols.obj
 0002:0001d4fc       ?fgDT_NCNAME@SchemaSymbols@@2QBGB 120ed4fc     SchemaSymbols.obj
 0002:0001d50c       ?fgDT_INTEGER@SchemaSymbols@@2QBGB 120ed50c     SchemaSymbols.obj
 0002:0001d51c       ?fgDT_DECIMAL@SchemaSymbols@@2QBGB 120ed51c     SchemaSymbols.obj
 0002:0001d52c       ?fgDT_BOOLEAN@SchemaSymbols@@2QBGB 120ed52c     SchemaSymbols.obj
 0002:0001d53c       ?fgDT_NONPOSITIVEINTEGER@SchemaSymbols@@2QBGB 120ed53c     SchemaSymbols.obj
 0002:0001d564       ?fgDT_NEGATIVEINTEGER@SchemaSymbols@@2QBGB 120ed564     SchemaSymbols.obj
 0002:0001d584       ?fgDT_LONG@SchemaSymbols@@2QBGB 120ed584     SchemaSymbols.obj
 0002:0001d590       ?fgDT_INT@SchemaSymbols@@2QBGB 120ed590     SchemaSymbols.obj
 0002:0001d598       ?fgDT_SHORT@SchemaSymbols@@2QBGB 120ed598     SchemaSymbols.obj
 0002:0001d5a4       ?fgDT_BYTE@SchemaSymbols@@2QBGB 120ed5a4     SchemaSymbols.obj
 0002:0001d5b0       ?fgDT_NONNEGATIVEINTEGER@SchemaSymbols@@2QBGB 120ed5b0     SchemaSymbols.obj
 0002:0001d5d8       ?fgDT_ULONG@SchemaSymbols@@2QBGB 120ed5d8     SchemaSymbols.obj
 0002:0001d5f4       ?fgDT_UINT@SchemaSymbols@@2QBGB 120ed5f4     SchemaSymbols.obj
 0002:0001d60c       ?fgDT_USHORT@SchemaSymbols@@2QBGB 120ed60c     SchemaSymbols.obj
 0002:0001d628       ?fgDT_UBYTE@SchemaSymbols@@2QBGB 120ed628     SchemaSymbols.obj
 0002:0001d644       ?fgDT_POSITIVEINTEGER@SchemaSymbols@@2QBGB 120ed644     SchemaSymbols.obj
 0002:0001d664       ?fgDT_DATETIME@SchemaSymbols@@2QBGB 120ed664     SchemaSymbols.obj
 0002:0001d678       ?fgDT_DATE@SchemaSymbols@@2QBGB 120ed678     SchemaSymbols.obj
 0002:0001d684       ?fgDT_TIME@SchemaSymbols@@2QBGB 120ed684     SchemaSymbols.obj
 0002:0001d690       ?fgDT_DURATION@SchemaSymbols@@2QBGB 120ed690     SchemaSymbols.obj
 0002:0001d6a4       ?fgDT_DAY@SchemaSymbols@@2QBGB 120ed6a4     SchemaSymbols.obj
 0002:0001d6b0       ?fgDT_MONTH@SchemaSymbols@@2QBGB 120ed6b0     SchemaSymbols.obj
 0002:0001d6c0       ?fgDT_MONTHDAY@SchemaSymbols@@2QBGB 120ed6c0     SchemaSymbols.obj
 0002:0001d6d4       ?fgDT_YEAR@SchemaSymbols@@2QBGB 120ed6d4     SchemaSymbols.obj
 0002:0001d6e0       ?fgDT_YEARMONTH@SchemaSymbols@@2QBGB 120ed6e0     SchemaSymbols.obj
 0002:0001d6f8       ?fgDT_BASE64BINARY@SchemaSymbols@@2QBGB 120ed6f8     SchemaSymbols.obj
 0002:0001d714       ?fgDT_HEXBINARY@SchemaSymbols@@2QBGB 120ed714     SchemaSymbols.obj
 0002:0001d728       ?fgDT_FLOAT@SchemaSymbols@@2QBGB 120ed728     SchemaSymbols.obj
 0002:0001d734       ?fgDT_DOUBLE@SchemaSymbols@@2QBGB 120ed734     SchemaSymbols.obj
 0002:0001d744       ?fgDT_URIREFERENCE@SchemaSymbols@@2QBGB 120ed744     SchemaSymbols.obj
 0002:0001d760       ?fgDT_ANYURI@SchemaSymbols@@2QBGB 120ed760     SchemaSymbols.obj
 0002:0001d770       ?fgDT_QNAME@SchemaSymbols@@2QBGB 120ed770     SchemaSymbols.obj
 0002:0001d77c       ?fgDT_NORMALIZEDSTRING@SchemaSymbols@@2QBGB 120ed77c     SchemaSymbols.obj
 0002:0001d7a0       ?fgDT_ANYSIMPLETYPE@SchemaSymbols@@2QBGB 120ed7a0     SchemaSymbols.obj
 0002:0001d7bc       ?fgRegEx_XOption@SchemaSymbols@@2QBGB 120ed7bc     SchemaSymbols.obj
 0002:0001d7c0       ?fgRedefIdentifier@SchemaSymbols@@2QBGB 120ed7c0     SchemaSymbols.obj
 0002:0001d7cc       ?fgINT_MIN_VALUE@SchemaSymbols@@2HB 120ed7cc     SchemaSymbols.obj
 0002:0001d7d0       ?fgINT_MAX_VALUE@SchemaSymbols@@2HB 120ed7d0     SchemaSymbols.obj
 0002:0001d7d4       ??_7SchemaValidator@@6B@   120ed7d4     SchemaValidator.obj
 0002:0001d808       ??_7?$RefHashTableOfEnumerator@VComplexTypeInfo@@@@6B@ 120ed808     SchemaValidator.obj
 0002:0001d87c       ??_7?$RefVectorEnumerator@VSchemaInfo@@@@6B@ 120ed87c     TraverseSchema.obj
 0002:0001d888       ??_7DefaultHandler@@6BDeclHandler@@@ 120ed888     sax2Dummy.obj
 0002:0001d89c       ??_7DefaultHandler@@6BLexicalHandler@@@ 120ed89c     sax2Dummy.obj
 0002:0001d8bc       ??_7DefaultHandler@@6BErrorHandler@@@ 120ed8bc     sax2Dummy.obj
 0002:0001d8d0       ??_7DefaultHandler@@6BContentHandler@@@ 120ed8d0     sax2Dummy.obj
 0002:0001d900       ??_7DefaultHandler@@6BDTDHandler@@@ 120ed900     sax2Dummy.obj
 0002:0001d910       ??_7DefaultHandler@@6BEntityResolver@@@ 120ed910     sax2Dummy.obj
 0002:0001d91c       ??_7IDAttrImpl@@6B@        120ed91c     IDAttrImpl.obj
 0002:0001d99c       ??_7IDAttrNSImpl@@6B@      120ed99c     IDAttrNSImpl.obj
 0002:0001da3c       ??_7IDOM_Range@@6B@        120eda3c     IDCDATASectionImpl.obj
 0002:0001daa0       ??_7IDCDATASectionImpl@@6B@ 120edaa0     IDCDATASectionImpl.obj
 0002:0001db44       ??_7IDCommentImpl@@6B@     120edb44     IDCommentImpl.obj
 0002:0001dbd0       ??_7IDDeepNodeListImpl@@6B@ 120edbd0     IDDeepNodeListImpl.obj
 0002:0001dc04       ??_7IDOM_DocumentFragment@@6B@ 120edc04     IDDocumentFragmentImpl.obj
 0002:0001dc6c       ??_7IDDocumentFragmentImpl@@6B@ 120edc6c     IDDocumentFragmentImpl.obj
 0002:0001dce8       ??_7IDOM_NodeFilter@@6B@   120edce8     IDDocumentImpl.obj
 0002:0001dcec       ??_7IDOM_TreeWalker@@6B@   120edcec     IDDocumentImpl.obj
 0002:0001dd20       ??_7IDOM_NodeIterator@@6B@ 120edd20     IDDocumentImpl.obj
 0002:0001dd3c       ??_7IDDocumentTypeImpl@@6B@ 120edd3c     IDDocumentTypeImpl.obj
 0002:0001de18       ??_7IDDOMImplementation@@6B@ 120ede18     IDDOMImplementation.obj
 0002:0001de30       ??_7IDElementImpl@@6B@     120ede30     IDElementImpl.obj
 0002:0001dee4       ??_7IDElementNSImpl@@6B@   120edee4     IDElementNSImpl.obj
 0002:0001df98       ??_7IDEntityImpl@@6B@      120edf98     IDEntityImpl.obj
 0002:0001e020       ??_7IDEntityReferenceImpl@@6B@ 120ee020     IDEntityReferenceImpl.obj
 0002:0001e0a4       ??_7IDNodeIDMap@@6B@       120ee0a4     IDNodeIDMap.obj
 0002:0001e0a8       ?READONLY@IDNodeImpl@@2GB  120ee0a8     IDNodeImpl.obj
 0002:0001e0aa       ?SYNCDATA@IDNodeImpl@@2GB  120ee0aa     IDNodeImpl.obj
 0002:0001e0ac       ?SYNCCHILDREN@IDNodeImpl@@2GB 120ee0ac     IDNodeImpl.obj
 0002:0001e0ae       ?OWNED@IDNodeImpl@@2GB     120ee0ae     IDNodeImpl.obj
 0002:0001e0b0       ?FIRSTCHILD@IDNodeImpl@@2GB 120ee0b0     IDNodeImpl.obj
 0002:0001e0b2       ?SPECIFIED@IDNodeImpl@@2GB 120ee0b2     IDNodeImpl.obj
 0002:0001e0b4       ?IGNORABLEWS@IDNodeImpl@@2GB 120ee0b4     IDNodeImpl.obj
 0002:0001e0b6       ?SETVALUE@IDNodeImpl@@2GB  120ee0b6     IDNodeImpl.obj
 0002:0001e0b8       ?ID_ATTR@IDNodeImpl@@2GB   120ee0b8     IDNodeImpl.obj
 0002:0001e0ba       ?USERDATA@IDNodeImpl@@2GB  120ee0ba     IDNodeImpl.obj
 0002:0001e0bc       ?LEAFNODETYPE@IDNodeImpl@@2GB 120ee0bc     IDNodeImpl.obj
 0002:0001e0be       ?CHILDNODE@IDNodeImpl@@2GB 120ee0be     IDNodeImpl.obj
 0002:0001e1f8       ??_7IDNodeIteratorImpl@@6B@ 120ee1f8     IDNodeIteratorImpl.obj
 0002:0001e218       ??_7IDNodeListImpl@@6B@    120ee218     IDNodeListImpl.obj
 0002:0001e224       ??_7IDNotationImpl@@6B@    120ee224     IDNotationImpl.obj
 0002:0001e29c       ??_7IDOM_DOMException@@6B@ 120ee29c     IDOM_DOMException.obj
 0002:0001e2a0       ??_7IDOM_RangeException@@6B@ 120ee2a0     IDOM_RangeException.obj
 0002:0001e2a4       ??_7IDProcessingInstructionImpl@@6B@ 120ee2a4     IDProcessingInstructionImpl.obj
 0002:0001e318       ??_7IDRangeImpl@@6B@       120ee318     IDRangeImpl.obj
 0002:0001e388       ??_7IDTextImpl@@6B@        120ee388     IDTextImpl.obj
 0002:0001e41c       ??_7IDTreeWalkerImpl@@6B@  120ee41c     IDTreeWalkerImpl.obj
 0002:0001e470       ??_7type_info@@6B@         120ee470     MSVCRT:ti_inst.obj
 0002:0001e488       ??_R1A@?0A@A@type_info@@8  120ee488     MSVCRT:ti_inst.obj
 0002:0001e4a0       ??_R2type_info@@8          120ee4a0     MSVCRT:ti_inst.obj
 0002:0001e4a8       ??_R3type_info@@8          120ee4a8     MSVCRT:ti_inst.obj
 0002:0001e4b8       ??_R4type_info@@6B@        120ee4b8     MSVCRT:ti_inst.obj
 0002:0001e9d0       __CT??_R0?AVXMLException@@@8??0XMLException@@QAE@ABV0@@Z20 120ee9d0     Win32PlatformUtils.obj
 0002:0001e9f0       __CT??_R0?AVXMLPlatformUtilsException@@@8??0XMLPlatformUtilsException@@QAE@ABV0@@Z20 120ee9f0     Win32PlatformUtils.obj
 0002:0001ea10       __CTA2?AVXMLPlatformUtilsException@@ 120eea10     Win32PlatformUtils.obj
 0002:0001ea20       __TI2?AVXMLPlatformUtilsException@@ 120eea20     Win32PlatformUtils.obj
 0002:0001ebf0       __CT??_R0?AVRuntimeException@@@8??0RuntimeException@@QAE@ABV0@@Z20 120eebf0     Win32TransService.obj
 0002:0001ec10       __CTA2?AVRuntimeException@@ 120eec10     Win32TransService.obj
 0002:0001ec20       __TI2?AVRuntimeException@@ 120eec20     Win32TransService.obj
 0002:0001ed00       __CT??_R0?AVTranscodingException@@@8??0TranscodingException@@QAE@ABV0@@Z20 120eed00     Win32TransService.obj
 0002:0001ed20       __CTA2?AVTranscodingException@@ 120eed20     Win32TransService.obj
 0002:0001ed30       __TI2?AVTranscodingException@@ 120eed30     Win32TransService.obj
 0002:0001ed40       __CT??_R0?AVIllegalArgumentException@@@8??0IllegalArgumentException@@QAE@ABV0@@Z20 120eed40     Win32TransService.obj
 0002:0001ed60       __CTA2?AVIllegalArgumentException@@ 120eed60     Win32TransService.obj
 0002:0001ed70       __TI2?AVIllegalArgumentException@@ 120eed70     Win32TransService.obj
 0002:0001ed80       __CT??_R0?AVNetAccessorException@@@8??0NetAccessorException@@QAE@ABV0@@Z20 120eed80     BinHTTPURLInputStream.obj
 0002:0001eda0       __CTA2?AVNetAccessorException@@ 120eeda0     BinHTTPURLInputStream.obj
 0002:0001edb0       __TI2?AVNetAccessorException@@ 120eedb0     BinHTTPURLInputStream.obj
 0002:0001eeb8       __CT??_R0?AVMalformedURLException@@@8??0MalformedURLException@@QAE@ABV0@@Z20 120eeeb8     WinSockNetAccessor.obj
 0002:0001eed8       __CTA2?AVMalformedURLException@@ 120eeed8     WinSockNetAccessor.obj
 0002:0001eee8       __TI2?AVMalformedURLException@@ 120eeee8     WinSockNetAccessor.obj
 0002:0001f000       __CT??_R0?AVArrayIndexOutOfBoundsException@@@8??0ArrayIndexOutOfBoundsException@@QAE@ABV0@@Z20 120ef000     Match.obj
 0002:0001f020       __CTA2?AVArrayIndexOutOfBoundsException@@ 120ef020     Match.obj
 0002:0001f030       __TI2?AVArrayIndexOutOfBoundsException@@ 120ef030     Match.obj
 0002:0001f408       __CT??_R0?AVParseException@@@8??0ParseException@@QAE@ABV0@@Z20 120ef408     ParserForXMLSchema.obj
 0002:0001f428       __CTA2?AVParseException@@  120ef428     ParserForXMLSchema.obj
 0002:0001f438       __TI2?AVParseException@@   120ef438     ParserForXMLSchema.obj
 0002:0001f988       __CT??_R0?AW4Codes@XMLErrs@@@84 120ef988     RegxParser.obj
 0002:0001f9a8       __CTA1?AW4Codes@XMLErrs@@  120ef9a8     RegxParser.obj
 0002:0001f9b0       __TI1?AW4Codes@XMLErrs@@   120ef9b0     RegxParser.obj
 0002:0001fb10       __CT??_R0H@84              120efb10     RegxParser.obj
 0002:0001fb30       __CTA1H                    120efb30     RegxParser.obj
 0002:0001fb38       __TI1H                     120efb38     RegxParser.obj
 0002:00020958       __CT??_R0?AVNumberFormatException@@@8??0NumberFormatException@@QAE@ABV0@@Z20 120f0958     XMLAbstractDoubleFloat.obj
 0002:00020978       __CTA2?AVNumberFormatException@@ 120f0978     XMLAbstractDoubleFloat.obj
 0002:00020988       __TI2?AVNumberFormatException@@ 120f0988     XMLAbstractDoubleFloat.obj
 0002:00020c28       __CT??_R0?AVSchemaDateTimeException@@@8??0SchemaDateTimeException@@QAE@ABV0@@Z20 120f0c28     XMLDateTime.obj
 0002:00020c48       __CTA2?AVSchemaDateTimeException@@ 120f0c48     XMLDateTime.obj
 0002:00020c58       __TI2?AVSchemaDateTimeException@@ 120f0c58     XMLDateTime.obj
 0002:00021ac8       __CT??_R0?AVNullPointerException@@@8??0NullPointerException@@QAE@ABV0@@Z20 120f1ac8     XMLValidator.obj
 0002:00021ae8       __CTA2?AVNullPointerException@@ 120f1ae8     XMLValidator.obj
 0002:00021af8       __CT??_R0?AVNoSuchElementException@@@8??0NoSuchElementException@@QAE@ABV0@@Z20 120f1af8     XMLValidator.obj
 0002:00021b18       __CTA2?AVNoSuchElementException@@ 120f1b18     XMLValidator.obj
 0002:00021b28       __TI2?AVNoSuchElementException@@ 120f1b28     XMLValidator.obj
 0002:00021b38       __TI2?AVNullPointerException@@ 120f1b38     XMLValidator.obj
 0002:00021c48       __CT??_R0?AW4Codes@XMLValid@@@84 120f1c48     XMLValidator.obj
 0002:00021c68       __CTA1?AW4Codes@XMLValid@@ 120f1c68     XMLValidator.obj
 0002:00021c70       __TI1?AW4Codes@XMLValid@@  120f1c70     XMLValidator.obj
 0002:00021d88       __CT??_R0?AVEmptyStackException@@@8??0EmptyStackException@@QAE@ABV0@@Z20 120f1d88     ElemStack.obj
 0002:00021da8       __CTA2?AVEmptyStackException@@ 120f1da8     ElemStack.obj
 0002:00021db8       __TI2?AVEmptyStackException@@ 120f1db8     ElemStack.obj
 0002:00021f48       __CT??_R0?AVEndOfEntityException@@@8??0EndOfEntityException@@QAE@ABV0@@Z8 120f1f48     ReaderMgr.obj
 0002:00021f68       __CTA1?AVEndOfEntityException@@ 120f1f68     ReaderMgr.obj
 0002:00021f70       __TI1?AVEndOfEntityException@@ 120f1f70     ReaderMgr.obj
 0002:00022748       __CT??_R0?AVUnexpectedEOFException@@@8??0UnexpectedEOFException@@QAE@ABV0@@Z20 120f2748     XMLScanner.obj
 0002:00022768       __CTA2?AVUnexpectedEOFException@@ 120f2768     XMLScanner.obj
 0002:00022778       __TI2?AVUnexpectedEOFException@@ 120f2778     XMLScanner.obj
 0002:00022f98       __CT??_R0?AVSAXException@@@8??0SAXException@@QAE@ABV0@@Z8 120f2f98     Dummy.obj
 0002:00022fb8       __CT??_R0?AVSAXParseException@@@8??0SAXParseException@@QAE@ABV0@@Z24 120f2fb8     Dummy.obj
 0002:00022fd8       __CTA2?AVSAXParseException@@ 120f2fd8     Dummy.obj
 0002:00022fe8       __TI2?AVSAXParseException@@ 120f2fe8     Dummy.obj
 0002:00023210       __CT??_R0?AVIOException@@@8??0IOException@@QAE@ABV0@@Z20 120f3210     DOMParser.obj
 0002:00023230       __CTA2?AVIOException@@     120f3230     DOMParser.obj
 0002:00023240       __TI2?AVIOException@@      120f3240     DOMParser.obj
 0002:00023ed8       __CT??_R0?AVSAXNotRecognizedException@@@8??0SAXNotRecognizedException@@QAE@ABV0@@Z8 120f3ed8     SAX2XMLReaderImpl.obj
 0002:00023ef8       __CTA2?AVSAXNotRecognizedException@@ 120f3ef8     SAX2XMLReaderImpl.obj
 0002:00023f08       __CT??_R0?AVSAXNotSupportedException@@@8??0SAXNotSupportedException@@QAE@ABV0@@Z8 120f3f08     SAX2XMLReaderImpl.obj
 0002:00023f28       __CTA2?AVSAXNotSupportedException@@ 120f3f28     SAX2XMLReaderImpl.obj
 0002:00023f38       __TI2?AVSAXNotRecognizedException@@ 120f3f38     SAX2XMLReaderImpl.obj
 0002:00023f48       __TI2?AVSAXNotSupportedException@@ 120f3f48     SAX2XMLReaderImpl.obj
 0002:00024260       __CT??_R0?AVDOM_DOMException@@@8??0DOM_DOMException@@QAE@ABV0@@Z12 120f4260     AttrImpl.obj
 0002:00024280       __CTA1?AVDOM_DOMException@@ 120f4280     AttrImpl.obj
 0002:00024288       __TI1?AVDOM_DOMException@@ 120f4288     AttrImpl.obj
 0002:000270e8       __CT??_R0?AVDOM_RangeException@@@8??0DOM_RangeException@@QAE@ABV0@@Z16 120f70e8     RangeImpl.obj
 0002:00027108       __CTA2?AVDOM_RangeException@@ 120f7108     RangeImpl.obj
 0002:00027118       __TI2?AVDOM_RangeException@@ 120f7118     RangeImpl.obj
 0002:00028e58       __CT??_R0?AVInvalidDatatypeFacetException@@@8??0InvalidDatatypeFacetException@@QAE@ABV0@@Z20 120f8e58     AbstractNumericFacetValidator.obj
 0002:00028e78       __CTA2?AVInvalidDatatypeFacetException@@ 120f8e78     AbstractNumericFacetValidator.obj
 0002:00028e88       __TI2?AVInvalidDatatypeFacetException@@ 120f8e88     AbstractNumericFacetValidator.obj
 0002:00029448       __CT??_R0?AVInvalidDatatypeValueException@@@8??0InvalidDatatypeValueException@@QAE@ABV0@@Z20 120f9448     AbstractNumericValidator.obj
 0002:00029468       __CTA2?AVInvalidDatatypeValueException@@ 120f9468     AbstractNumericValidator.obj
 0002:00029478       __TI2?AVInvalidDatatypeValueException@@ 120f9478     AbstractNumericValidator.obj
 0002:0002c748       __CT??_R0?AVXPathException@@@8??0XPathException@@QAE@ABV0@@Z20 120fc748     XercesXPath.obj
 0002:0002c768       __CTA2?AVXPathException@@  120fc768     XercesXPath.obj
 0002:0002c778       __TI2?AVXPathException@@   120fc778     XercesXPath.obj
 0002:0002e1c8       __CT??_R0?AW4ExceptionCodes@TraverseSchema@@@84 120fe1c8     TraverseSchema.obj
 0002:0002e1e8       __CTA1?AW4ExceptionCodes@TraverseSchema@@ 120fe1e8     TraverseSchema.obj
 0002:0002e1f0       __TI1?AW4ExceptionCodes@TraverseSchema@@ 120fe1f0     TraverseSchema.obj
 0002:0002f380       __CT??_R0?AVIDOM_DOMException@@@8??0IDOM_DOMException@@QAE@ABV0@@Z12 120ff380     IDAttrImpl.obj
 0002:0002f3a0       __CTA1?AVIDOM_DOMException@@ 120ff3a0     IDAttrImpl.obj
 0002:0002f3a8       __TI1?AVIDOM_DOMException@@ 120ff3a8     IDAttrImpl.obj
 0002:000304d0       __CT??_R0?AVIDOM_RangeException@@@8??0IDOM_RangeException@@QAE@ABV0@@Z16 121004d0     IDRangeImpl.obj
 0002:000304f0       __CTA2?AVIDOM_RangeException@@ 121004f0     IDRangeImpl.obj
 0002:00030500       __TI2?AVIDOM_RangeException@@ 12100500     IDRangeImpl.obj
 0002:00030668       __IMPORT_DESCRIPTOR_KERNEL32 12100668     kernel32:KERNEL32.dll
 0002:0003067c       __IMPORT_DESCRIPTOR_USER32 1210067c     user32:USER32.dll
 0002:00030690       __IMPORT_DESCRIPTOR_ADVAPI32 12100690     advapi32:ADVAPI32.dll
 0002:000306a4       __IMPORT_DESCRIPTOR_MSVCRT 121006a4     MSVCRT:MSVCRT.dll
 0002:000306b8       __NULL_IMPORT_DESCRIPTOR   121006b8     kernel32:KERNEL32.dll
 0003:00000000       ___xc_a                    1214a000     MSVCRT:cinitexe.obj
 0003:00000058       ___xc_z                    1214a058     MSVCRT:cinitexe.obj
 0003:0000005c       ___xi_a                    1214a05c     MSVCRT:cinitexe.obj
 0003:00000060       ___xi_z                    1214a060     MSVCRT:cinitexe.obj
 0003:00000070       ??_C@_0BD@MNID@Xerces?5Panic?5Error?$AA@ 1214a070     Win32PlatformUtils.obj
 0003:00000084       ??_C@_0DF@MGCI@Failed?5to?5complete?5platfrom?5depe@ 1214a084     Win32PlatformUtils.obj
 0003:000000bc       ??_C@_0CI@KGMF@A?5system?5synchronization?5error?5o@ 1214a0bc     Win32PlatformUtils.obj
 0003:000000e4       ??_C@_0BL@HHGI@Cannot?5load?5message?5domain?$AA@ 1214a0e4     Win32PlatformUtils.obj
 0003:00000100       ??_C@_0BH@NKGC@Unknown?5message?5domain?$AA@ 1214a100     Win32PlatformUtils.obj
 0003:00000118       ??_C@_0CA@LBJK@Could?5not?5find?5the?5xerces?9c?5DLL?$AA@ 1214a118     Win32PlatformUtils.obj
 0003:00000138       ??_C@_0CM@CIGD@Could?5not?5load?5a?5local?5code?5page@ 1214a138     Win32PlatformUtils.obj
 0003:00000164       ??_C@_0CF@CLOA@Could?5not?5load?5a?5transcoding?5ser@ 1214a164     Win32PlatformUtils.obj
 0003:0000018c       ??_C@_0P@BFFG@Unknown?5reason?$AA@ 1214a18c     Win32PlatformUtils.obj
 0003:000001a0       ??_R0?AVXMLException@@@8   1214a1a0     Win32PlatformUtils.obj
 0003:000001c0       ??_R0?AVXMLPlatformUtilsException@@@8 1214a1c0     Win32PlatformUtils.obj
 0003:000001e8       ??_C@_0FI@GLMP@c?3?2xml4c_root?2xerces?9c?9src1_7_0?2@ 1214a1e8     Win32PlatformUtils.obj
 0003:00000240       ??_C@_06FFNI@IXUTIL?$AA@   1214a240     Win32MsgLoader.obj
 0003:00000248       ??_R0?AVRuntimeException@@@8 1214a248     Win32TransService.obj
 0003:00000268       ??_C@_0DB@IMPN@?4?4?2?4?4?2?4?4?2?4?4?2?4?4?2src?2xercesc?1util?1@ 1214a268     Win32TransService.obj
 0003:0000029c       ??_C@_0BB@GMML@InternetEncoding?$AA@ 1214a29c     Win32TransService.obj
 0003:000002b0       ??_C@_08GJEK@Codepage?$AA@ 1214a2b0     Win32TransService.obj
 0003:000002bc       ??_C@_0BA@OCEI@AliasForCharset?$AA@ 1214a2bc     Win32TransService.obj
 0003:000002cc       ??_C@_0BG@EHIG@MIME?2Database?2Charset?$AA@ 1214a2cc     Win32TransService.obj
 0003:000002e8       ??_R0?AVTranscodingException@@@8 1214a2e8     Win32TransService.obj
 0003:0000030c       ??_C@_0FJ@LGKM@c?3?2xml4c_root?2xerces?9c?9src1_7_0?2@ 1214a30c     Win32TransService.obj
 0003:00000368       ??_R0?AVIllegalArgumentException@@@8 1214a368     Win32TransService.obj
 0003:00000390       ??_R0?AVNetAccessorException@@@8 1214a390     BinHTTPURLInputStream.obj
 0003:000003b4       ??_C@_0M@BGOH@closesocket?$AA@ 1214a3b4     BinHTTPURLInputStream.obj
 0003:000003c0       ??_C@_08DHEI@shutdown?$AA@ 1214a3c0     BinHTTPURLInputStream.obj
 0003:000003cc       ??_C@_04NJFL@recv?$AA@     1214a3cc     BinHTTPURLInputStream.obj
 0003:000003d4       ??_C@_04PJAD@send?$AA@     1214a3d4     BinHTTPURLInputStream.obj
 0003:000003dc       ??_C@_07DHIJ@connect?$AA@  1214a3dc     BinHTTPURLInputStream.obj
 0003:000003e4       ??_C@_06KDPK@socket?$AA@   1214a3e4     BinHTTPURLInputStream.obj
 0003:000003ec       ??_C@_05MHGE@htons?$AA@    1214a3ec     BinHTTPURLInputStream.obj
 0003:000003f4       ??_C@_0O@IOIG@gethostbyaddr?$AA@ 1214a3f4     BinHTTPURLInputStream.obj
 0003:00000404       ??_C@_09NHDB@inet_addr?$AA@ 1214a404     BinHTTPURLInputStream.obj
 0003:00000410       ??_C@_0O@BLIP@gethostbyname?$AA@ 1214a410     BinHTTPURLInputStream.obj
 0003:00000420       ??_C@_0L@KLBB@WSACleanup?$AA@ 1214a420     BinHTTPURLInputStream.obj
 0003:0000042c       ??_C@_0L@BKPI@WSAStartup?$AA@ 1214a42c     BinHTTPURLInputStream.obj
 0003:00000438       ??_C@_0GA@IFIH@c?3?2xml4c_root?2xerces?9c?9src1_7_0?2@ 1214a438     BinHTTPURLInputStream.obj
 0003:00000498       ??_C@_07JDFI@WSOCK32?$AA@  1214a498     BinHTTPURLInputStream.obj
 0003:000004a0       ??_C@_04EJJ@HTTP?$AA@      1214a4a0     BinHTTPURLInputStream.obj
 0003:000004a8       ??_C@_02JJJH@?6?6?$AA@     1214a4a8     BinHTTPURLInputStream.obj
 0003:000004ac       ??_C@_04FGNA@?$AN?6?$AN?6?$AA@ 1214a4ac     BinHTTPURLInputStream.obj
 0003:000004b4       ??_C@_01PKAG@?3?$AA@       1214a4b4     BinHTTPURLInputStream.obj
 0003:000004b8       ??_C@_06LGGD@Host?3?5?$AA@ 1214a4b8     BinHTTPURLInputStream.obj
 0003:000004c0       ??_C@_0M@BGOJ@?5HTTP?11?40?$AN?6?$AA@ 1214a4c0     BinHTTPURLInputStream.obj
 0003:000004cc       ??_C@_01PKMN@?$DP?$AA@     1214a4cc     BinHTTPURLInputStream.obj
 0003:000004d0       ??_C@_04PJJL@GET?5?$AA@    1214a4d0     BinHTTPURLInputStream.obj
 0003:000004d8       ??_R0?AVMalformedURLException@@@8 1214a4d8     WinSockNetAccessor.obj
 0003:000004fc       ??_C@_0FN@LBBL@c?3?2xml4c_root?2xerces?9c?9src1_7_0?2@ 1214a4fc     WinSockNetAccessor.obj
 0003:0000055c       ??_C@_0CP@JDCL@?4?4?2?4?4?2?4?4?2?4?4?2?4?4?2src?2xercesc?1util?1@ 1214a55c     ASCIIRangeFactory.obj
 0003:0000058c       ??_C@_0DI@JHFM@?4?4?2?4?4?2?4?4?2?4?4?2?4?4?2src?2xercesc?1util?1@ 1214a58c     ConditionToken.obj
 0003:000005c4       ??_C@_0CP@HPDD@?4?4?2?4?4?2?4?4?2?4?4?2?4?4?2src?2xercesc?1util?1@ 1214a5c4     Match.obj
 0003:000005f8       ??_R0?AVArrayIndexOutOfBoundsException@@@8 1214a5f8     Match.obj
 0003:00000628       ??_C@_0DN@OAJN@c?3?2xml4c_root?2xerces?9c?9src1_7_0?2@ 1214a628     Op.obj
 0003:00000668       ??_C@_0CO@KKEP@?4?4?2?4?4?2?4?4?2?4?4?2?4?4?2src?2xercesc?1util?1@ 1214a668     Op.obj
 0003:00000698       ??_R0?AVParseException@@@8 1214a698     ParserForXMLSchema.obj
 0003:000006b8       ??_C@_0EN@OFNJ@c?3?2xml4c_root?2xerces?9c?9src1_7_0?2@ 1214a6b8     ParserForXMLSchema.obj
 0003:00000708       ??_C@_0EF@DLHK@c?3?2xml4c_root?2xerces?9c?9src1_7_0?2@ 1214a708     RangeToken.obj
 0003:00000750       ??_C@_0EI@JIJI@c?3?2xml4c_root?2xerces?9c?9src1_7_0?2@ 1214a750     RangeTokenMap.obj
 0003:00000798       ??_C@_0EM@LJID@c?3?2xml4c_root?2xerces?9c?9src1_7_0?2@ 1214a798     RegularExpression.obj
 0003:000007e4       ??_C@_0EF@LCAD@c?3?2xml4c_root?2xerces?9c?9src1_7_0?2@ 1214a7e4     RegxParser.obj
 0003:00000830       ??_R0?AW4Codes@XMLErrs@@@8 1214a830     RegxParser.obj
 0003:00000850       ??_R0H@8                   1214a850     RegxParser.obj
 0003:0000085c       ??_C@_0ED@CEIO@c?3?2xml4c_root?2xerces?9c?9src1_7_0?2@ 1214a85c     PlatformUtils.obj
 0003:000008a0       ??_C@_0EA@DEB@c?3?2xml4c_root?2xerces?9c?9src1_7_0?2@ 1214a8a0     StringPool.obj
 0003:00000984       ??_C@_0EL@KNHC@c?3?2xml4c_root?2xerces?9c?9src1_7_0?2@ 1214a984     XML256TableTranscoder.obj
 0003:000009d0       ??_C@_0EI@KJME@c?3?2xml4c_root?2xerces?9c?9src1_7_0?2@ 1214a9d0     XML88591Transcoder.obj
 0003:00000a18       ??_R0?AVNumberFormatException@@@8 1214aa18     XMLAbstractDoubleFloat.obj
 0003:00000a3c       ??_C@_0EM@GLP@c?3?2xml4c_root?2xerces?9c?9src1_7_0?2@ 1214aa3c     XMLAbstractDoubleFloat.obj
 0003:00000a88       ??_C@_0EI@DCIM@c?3?2xml4c_root?2xerces?9c?9src1_7_0?2@ 1214aa88     XMLASCIITranscoder.obj
 0003:00000ad0       ??_C@_0ED@INCD@c?3?2xml4c_root?2xerces?9c?9src1_7_0?2@ 1214aad0     XMLBigDecimal.obj
 0003:00000b14       ??_C@_0ED@MBKL@c?3?2xml4c_root?2xerces?9c?9src1_7_0?2@ 1214ab14     XMLBigInteger.obj
 0003:00000b58       ??_R0?AVSchemaDateTimeException@@@8 1214ab58     XMLDateTime.obj
 0003:00000b80       ??_C@_0DA@JBEC@?4?4?2?4?4?2?4?4?2?4?4?2?4?4?2src?2xercesc?1util?1@ 1214ab80     XMLDateTime.obj
 0003:00000bb0       ??_C@_0EB@NIH@c?3?2xml4c_root?2xerces?9c?9src1_7_0?2@ 1214abb0     XMLDateTime.obj
 0003:00000bf4       ??_C@_0DP@OFHN@c?3?2xml4c_root?2xerces?9c?9src1_7_0?2@ 1214abf4     XMLDouble.obj
 0003:00000c34       ??_C@_0DO@EDJP@c?3?2xml4c_root?2xerces?9c?9src1_7_0?2@ 1214ac34     XMLFloat.obj
 0003:00000c84       ??_C@_0DP@FCNN@c?3?2xml4c_root?2xerces?9c?9src1_7_0?2@ 1214ac84     XMLString.obj
 0003:00000cc4       ??_C@_0EG@KODO@c?3?2xml4c_root?2xerces?9c?9src1_7_0?2@ 1214acc4     XMLUCSTranscoder.obj
 0003:00000d0c       ??_C@_0DM@KLFE@c?3?2xml4c_root?2xerces?9c?9src1_7_0?2@ 1214ad0c     XMLUri.obj
 0003:00000d6c       ??_C@_0DM@DLEK@c?3?2xml4c_root?2xerces?9c?9src1_7_0?2@ 1214ad6c     XMLURL.obj
 0003:00000da8       ??_C@_0BG@NPKL@Found?5?8http?8?5protocol?$AA@ 1214ada8     XMLURL.obj
 0003:00000dc0       ??_C@_0EH@IIHM@c?3?2xml4c_root?2xerces?9c?9src1_7_0?2@ 1214adc0     XMLUTF8Transcoder.obj
 0003:00000e08       ??_C@_05NOKM@stdin?$AA@    1214ae08     StdInInputSource.obj
 0003:00000e10       ??_C@_0EE@MAKI@c?3?2xml4c_root?2xerces?9c?9src1_7_0?2@ 1214ae10     XMLAttDef.obj
 0003:00000e54       ??_C@_0EH@BLKG@c?3?2xml4c_root?2xerces?9c?9src1_7_0?2@ 1214ae54     XMLBufferMgr.obj
 0003:00000e9c       ??_C@_0EH@CLPO@c?3?2xml4c_root?2xerces?9c?9src1_7_0?2@ 1214ae9c     XMLFormatter.obj
 0003:00000f00       ??_C@_0EI@IIL@c?3?2xml4c_root?2xerces?9c?9src1_7_0?2@ 1214af00     XMLRecognizer.obj
 0003:00000f48       ??_C@_0CN@GFNC@?4?4?2?4?4?2?4?4?2?4?4?2?4?4?2src?2xercesc?1util?1@ 1214af48     XMLValidator.obj
 0003:00000f78       ??_C@_0DG@GENG@?4?4?2?4?4?2?4?4?2?4?4?2?4?4?2src?2xercesc?1util?1@ 1214af78     XMLValidator.obj
 0003:00000fb0       ??_R0?AVNullPointerException@@@8 1214afb0     XMLValidator.obj
 0003:00000fd8       ??_R0?AVNoSuchElementException@@@8 1214afd8     XMLValidator.obj
 0003:00001000       ??_C@_0DF@DOIO@?4?4?2?4?4?2?4?4?2?4?4?2?4?4?2src?2xercesc?1util?1@ 1214b000     XMLValidator.obj
 0003:00001038       ??_R0?AW4Codes@XMLValid@@@8 1214b038     XMLValidator.obj
 0003:00001058       ??_R0?AVEmptyStackException@@@8 1214b058     ElemStack.obj
 0003:0000107c       ??_C@_0ED@FCIM@c?3?2xml4c_root?2xerces?9c?9src1_7_0?2@ 1214b07c     ElemStack.obj
 0003:000010c0       ??_C@_0CN@LDGJ@?4?4?2?4?4?2?4?4?2?4?4?2?4?4?2src?2xercesc?1util?1@ 1214b0c0     ReaderMgr.obj
 0003:000010f0       ??_C@_0ED@BCEH@c?3?2xml4c_root?2xerces?9c?9src1_7_0?2@ 1214b0f0     ReaderMgr.obj
 0003:00001138       ??_R0?AVEndOfEntityException@@@8 1214b138     ReaderMgr.obj
 0003:0000115c       ?fgCharCharsTable@XMLReader@@0PAEA 1214b15c     XMLReader.obj
 0003:0001115c       ??_C@_0ED@HBHG@c?3?2xml4c_root?2xerces?9c?9src1_7_0?2@ 1215b15c     XMLReader.obj
 0003:000111a0       ??_C@_0DA@CACO@?4?4?2?4?4?2?4?4?2?4?4?2?4?4?2src?2xercesc?1util?1@ 1215b1a0     XMLScanner.obj
 0003:000111d0       ??_C@_0CP@NCIM@?4?4?2?4?4?2?4?4?2?4?4?2?4?4?2src?2xercesc?1util?1@ 1215b1d0     XMLScanner.obj
 0003:00011200       ??_R0?AVSAXException@@@8   1215b200     XMLScanner.obj
 0003:0001121c       ??_C@_0EE@IPJL@c?3?2xml4c_root?2xerces?9c?9src1_7_0?2@ 1215b21c     XMLScanner.obj
 0003:00011260       ??_R0?AVUnexpectedEOFException@@@8 1215b260     XMLScanner.obj
 0003:00011288       ??_C@_09NHPD@in?5prolog?$AA@ 1215b288     XMLScanner.obj
 0003:00011294       ??_C@_0EF@CDGL@c?3?2xml4c_root?2xerces?9c?9src1_7_0?2@ 1215b294     XMLScanner2.obj
 0003:000112e0       ??_R0?AVSAXParseException@@@8 1215b2e0     Dummy.obj
 0003:00011300       ??_R0?AVIOException@@@8    1215b300     DOMParser.obj
 0003:0001131c       ??_C@_0EC@HFEA@c?3?2xml4c_root?2xerces?9c?9src1_7_0?2@ 1215b31c     DOMParser.obj
 0003:00011360       ??_C@_0ED@ENPK@c?3?2xml4c_root?2xerces?9c?9src1_7_0?2@ 1215b360     IDOMParser.obj
 0003:000113a4       ??_C@_0EK@HILJ@c?3?2xml4c_root?2xerces?9c?9src1_7_0?2@ 1215b3a4     SAX2XMLReaderImpl.obj
 0003:000113f0       ??_R0?AVSAXNotRecognizedException@@@8 1215b3f0     SAX2XMLReaderImpl.obj
 0003:00011418       ??_R0?AVSAXNotSupportedException@@@8 1215b418     SAX2XMLReaderImpl.obj
 0003:00011440       ??_C@_0BA@IJFN@Unknown?5Feature?$AA@ 1215b440     SAX2XMLReaderImpl.obj
 0003:00011450       ??_C@_0DE@KAIE@Feature?5modification?5is?5not?5supp@ 1215b450     SAX2XMLReaderImpl.obj
 0003:00011484       ??_C@_0BB@MDM@Unknown?5Property?$AA@ 1215b484     SAX2XMLReaderImpl.obj
 0003:00011498       ??_C@_0DF@CGAC@Property?5modification?5is?5not?5sup@ 1215b498     SAX2XMLReaderImpl.obj
 0003:000114d0       ??_C@_0EC@DOPI@c?3?2xml4c_root?2xerces?9c?9src1_7_0?2@ 1215b4d0     SAXParser.obj
 0003:00011518       ??_R0?AVDOM_DOMException@@@8 1215b518     AttrImpl.obj
 0003:00011538       ??_C@_01HMO@?$CC?$AA@      1215b538     AttrImpl.obj
 0003:0001153c       ??_C@_02EBGB@?$DN?$CC?$AA@ 1215b53c     AttrImpl.obj
 0003:00011540       ??_C@_0P@CKBI@?$CDcdata?9section?$AA@ 1215b540     CDATASectionImpl.obj
 0003:00011550       ??_C@_08JMOF@?$CDcomment?$AA@ 1215b550     CommentImpl.obj
 0003:0001155c       ??_C@_01FDHG@?$CK?$AA@     1215b55c     DeepNodeListImpl.obj
 0003:00011560       ??_C@_0BD@CBIP@?$CDdocument?9fragment?$AA@ 1215b560     DocumentFragmentImpl.obj
 0003:00011574       ??_C@_09FGFB@?$CDdocument?$AA@ 1215b574     DocumentImpl.obj
 0003:00011580       ??_C@_05MCCK@Range?$AA@    1215b580     DOM_DOMImplementation.obj
 0003:00011588       ??_C@_09LNFH@Traversal?$AA@ 1215b588     DOM_DOMImplementation.obj
 0003:00011594       ??_C@_04BNDI@Core?$AA@     1215b594     DOM_DOMImplementation.obj
 0003:0001159c       ??_C@_03DMKA@XML?$AA@      1215b59c     DOM_DOMImplementation.obj
 0003:000115a0       ??_C@_03CLPL@2?40?$AA@     1215b5a0     DOM_DOMImplementation.obj
 0003:000115a4       ??_C@_03NNMA@1?40?$AA@     1215b5a4     DOM_DOMImplementation.obj
 0003:000115a8       ??_C@_0BCM@GHMG@DOM?5reference?5counted?5memory?5all@ 1215b5a8     DomMemDebug.obj
 0003:000116d4       ??_C@_01BJG@?6?$AA@        1215b6d4     DomMemDebug.obj
 0003:000116d8       ??_C@_0BF@JFNJ@?5?5?5?$CFd?5NamedNodeMaps?4?$AA@ 1215b6d8     DomMemDebug.obj
 0003:000116f0       ??_C@_0BB@IEON@?5?5?5?$CFd?5NodeImpls?4?$AA@ 1215b6f0     DomMemDebug.obj
 0003:00011704       ??_C@_0BF@IGHB@?5?5?5?$CFd?5StringBuffers?4?$AA@ 1215b704     DomMemDebug.obj
 0003:0001171c       ??_C@_0BF@HJNG@?5?5?5?$CFd?5StringHandles?4?$AA@ 1215b71c     DomMemDebug.obj
 0003:00011734       ??_C@_0DO@DFNO@c?3?2xml4c_root?2xerces?9c?9src1_7_0?2@ 1215b734     DOMString.obj
 0003:00011774       ??_C@_0DO@KGIM@c?3?2xml4c_root?2xerces?9c?9src1_7_0?2@ 1215b774     NodeIDMap.obj
 0003:000117b4       ??_C@_01KHLB@?$FL?$AA@     1215b7b4     NodeImpl.obj
 0003:000117b8       ??_C@_02HFBK@?3?5?$AA@     1215b7b8     NodeImpl.obj
 0003:000117bc       ??_C@_01FIMD@?$FN?$AA@     1215b7bc     NodeImpl.obj
 0003:000117c0       ??_C@_05GJOJ@xmlns?$AA@    1215b7c0     NodeImpl.obj
 0003:000117c8       ??_C@_0BO@DOBD@http?3?1?1www?4w3?4org?12000?1xmlns?1?$AA@ 1215b7c8     NodeImpl.obj
 0003:000117e8       ??_C@_03PJMH@xml?$AA@      1215b7e8     NodeImpl.obj
 0003:000117ec       ??_C@_0CF@JEIF@http?3?1?1www?4w3?4org?1XML?11998?1names@ 1215b7ec     NodeImpl.obj
 0003:00011818       ??_R0?AVDOM_RangeException@@@8 1215b818     RangeImpl.obj
 0003:0001183c       ??_C@_05FDFO@?$CDtext?$AA@ 1215b83c     TextImpl.obj
 0003:00011844       ??_C@_08PCJH@?$CDxmldecl?$AA@ 1215b844     XMLDeclImpl.obj
 0003:00011850       ??_C@_0FC@OCLJ@c?3?2xml4c_root?2xerces?9c?9src1_7_0?2@ 1215b850     AllContentModel.obj
 0003:000118a4       ??_C@_05ONKL@CMAny?$AA@    1215b8a4     CMAny.obj
 0003:000118ac       ??_C@_0EI@IHEK@c?3?2xml4c_root?2xerces?9c?9src1_7_0?2@ 1215b8ac     CMAny.obj
 0003:000118f4       ??_C@_0DM@NIED@?4?4?2?4?4?2?4?4?2?4?4?2?4?4?2src?2xercesc?1valid@ 1215b8f4     CMAny.obj
 0003:00011930       ??_C@_0EN@BOAE@c?3?2xml4c_root?2xerces?9c?9src1_7_0?2@ 1215b930     CMBinaryOp.obj
 0003:00011980       ??_C@_0EM@JIGJ@c?3?2xml4c_root?2xerces?9c?9src1_7_0?2@ 1215b980     CMUnaryOp.obj
 0003:000119cc       ??_C@_0FM@MEIJ@c?3?2xml4c_root?2xerces?9c?9src1_7_0?2@ 1215b9cc     ContentLeafNameTypeVector.obj
 0003:00011a28       ??_C@_0EB@DCJN@?4?4?2?4?4?2?4?4?2?4?4?2?4?4?2src?2xercesc?1valid@ 1215ba28     DFAContentModel.obj
 0003:00011a6c       ??_C@_0FC@NPKG@c?3?2xml4c_root?2xerces?9c?9src1_7_0?2@ 1215ba6c     DFAContentModel.obj
 0003:00011ac0       ??_C@_0FE@IAAL@c?3?2xml4c_root?2xerces?9c?9src1_7_0?2@ 1215bac0     MixedContentModel.obj
 0003:00011b14       ??_C@_0FF@JFK@c?3?2xml4c_root?2xerces?9c?9src1_7_0?2@ 1215bb14     SimpleContentModel.obj
 0003:00011b70       ??_R0?AVInvalidDatatypeFacetException@@@8 1215bb70     AbstractNumericFacetValidator.obj
 0003:00011b9c       ??_C@_0GC@HFNL@c?3?2xml4c_root?2xerces?9c?9src1_7_0?2@ 1215bb9c     AbstractNumericFacetValidator.obj
 0003:00011c00       ??_R0?AVInvalidDatatypeValueException@@@8 1215bc00     AbstractNumericValidator.obj
 0003:00011c2c       ??_C@_0FN@KLKI@c?3?2xml4c_root?2xerces?9c?9src1_7_0?2@ 1215bc2c     AbstractNumericValidator.obj
 0003:00011c8c       ??_C@_0FM@FDL@c?3?2xml4c_root?2xerces?9c?9src1_7_0?2@ 1215bc8c     AbstractStringValidator.obj
 0003:00011ce8       ??_C@_0GD@KJKE@c?3?2xml4c_root?2xerces?9c?9src1_7_0?2@ 1215bce8     AnySimpleTypeDatatypeValidator.obj
 0003:00011d4c       ??_C@_0FM@BLCP@c?3?2xml4c_root?2xerces?9c?9src1_7_0?2@ 1215bd4c     AnyURIDatatypeValidator.obj
 0003:00011da8       ??_C@_0GC@IMOI@c?3?2xml4c_root?2xerces?9c?9src1_7_0?2@ 1215bda8     Base64BinaryDatatypeValidator.obj
 0003:00011e0c       ??_C@_0M@NIGK@enumeration?$AA@ 1215be0c     BooleanDatatypeValidator.obj
 0003:00011e18       ??_C@_0FN@IMNF@c?3?2xml4c_root?2xerces?9c?9src1_7_0?2@ 1215be18     BooleanDatatypeValidator.obj
 0003:00011e78       ??_C@_0FG@DHBD@c?3?2xml4c_root?2xerces?9c?9src1_7_0?2@ 1215be78     DateTimeValidator.obj
 0003:00011ed0       ??_C@_0FN@LNCD@c?3?2xml4c_root?2xerces?9c?9src1_7_0?2@ 1215bed0     DecimalDatatypeValidator.obj
 0003:00011f30       ??_C@_0FM@FCDD@c?3?2xml4c_root?2xerces?9c?9src1_7_0?2@ 1215bf30     DoubleDatatypeValidator.obj
 0003:00011f8c       ??_C@_0FM@KLGN@c?3?2xml4c_root?2xerces?9c?9src1_7_0?2@ 1215bf8c     ENTITYDatatypeValidator.obj
 0003:00011fe8       ??_C@_0FL@BLNC@c?3?2xml4c_root?2xerces?9c?9src1_7_0?2@ 1215bfe8     FloatDatatypeValidator.obj
 0003:00012044       ??_C@_0FP@JEON@c?3?2xml4c_root?2xerces?9c?9src1_7_0?2@ 1215c044     HexBinaryDatatypeValidator.obj
 0003:000120a4       ??_C@_0FI@LFJB@c?3?2xml4c_root?2xerces?9c?9src1_7_0?2@ 1215c0a4     IDDatatypeValidator.obj
 0003:000120fc       ??_C@_0FL@GDFE@c?3?2xml4c_root?2xerces?9c?9src1_7_0?2@ 1215c0fc     IDREFDatatypeValidator.obj
 0003:00012158       ??_C@_0FK@BHNN@c?3?2xml4c_root?2xerces?9c?9src1_7_0?2@ 1215c158     ListDatatypeValidator.obj
 0003:000121b4       ??_C@_0FK@CFNA@c?3?2xml4c_root?2xerces?9c?9src1_7_0?2@ 1215c1b4     NameDatatypeValidator.obj
 0003:00012210       ??_C@_0FM@IOFD@c?3?2xml4c_root?2xerces?9c?9src1_7_0?2@ 1215c210     NCNameDatatypeValidator.obj
 0003:0001226c       ??_C@_0FO@KLJ@c?3?2xml4c_root?2xerces?9c?9src1_7_0?2@ 1215c26c     NOTATIONDatatypeValidator.obj
 0003:000122cc       ??_C@_0FL@IIKH@c?3?2xml4c_root?2xerces?9c?9src1_7_0?2@ 1215c2cc     QNameDatatypeValidator.obj
 0003:00012328       ??_C@_0FM@EHHJ@c?3?2xml4c_root?2xerces?9c?9src1_7_0?2@ 1215c328     StringDatatypeValidator.obj
 0003:00012384       ??_C@_0FL@EEBI@c?3?2xml4c_root?2xerces?9c?9src1_7_0?2@ 1215c384     UnionDatatypeValidator.obj
 0003:000123e0       ??_C@_0EO@MEJI@c?3?2xml4c_root?2xerces?9c?9src1_7_0?2@ 1215c3e0     DTDElementDecl.obj
 0003:00012430       ??_C@_0EK@MEAP@c?3?2xml4c_root?2xerces?9c?9src1_7_0?2@ 1215c430     DTDScanner.obj
 0003:0001247c       ??_C@_0EM@HMOA@c?3?2xml4c_root?2xerces?9c?9src1_7_0?2@ 1215c47c     DTDValidator.obj
 0003:000124c8       ??_R0?AVXPathException@@@8 1215c4c8     XercesXPath.obj
 0003:000124e8       ??_C@_0FH@KLIM@c?3?2xml4c_root?2xerces?9c?9src1_7_0?2@ 1215c4e8     XercesXPath.obj
 0003:00012540       ??_C@_0FC@DGJO@c?3?2xml4c_root?2xerces?9c?9src1_7_0?2@ 1215c540     ComplexTypeInfo.obj
 0003:00012594       ??_C@_0FB@PONK@c?3?2xml4c_root?2xerces?9c?9src1_7_0?2@ 1215c594     NamespaceScope.obj
 0003:000125e8       ??_C@_0FD@DDBL@c?3?2xml4c_root?2xerces?9c?9src1_7_0?2@ 1215c5e8     SchemaAttDefList.obj
 0003:0001263c       ??_C@_0FE@GLMA@c?3?2xml4c_root?2xerces?9c?9src1_7_0?2@ 1215c63c     SchemaElementDecl.obj
 0003:00012690       ??_C@_0FC@LCPC@c?3?2xml4c_root?2xerces?9c?9src1_7_0?2@ 1215c690     SchemaValidator.obj
 0003:000126e4       ??_C@_0FO@LOFF@c?3?2xml4c_root?2xerces?9c?9src1_7_0?2@ 1215c6e4     SubstitutionGroupComparator.obj
 0003:00012744       ?fgIdentityConstraints@@3PAPBGA 1215c744     TraverseSchema.obj
 0003:00012750       ??_R0?AW4ExceptionCodes@TraverseSchema@@@8 1215c750     TraverseSchema.obj
 0003:00012780       ??_C@_0FB@MOHC@c?3?2xml4c_root?2xerces?9c?9src1_7_0?2@ 1215c780     TraverseSchema.obj
 0003:000127d4       ??_C@_0EI@OCLC@c?3?2xml4c_root?2xerces?9c?9src1_7_0?2@ 1215c7d4     XUtil.obj
 0003:00012820       ??_R0?AVIDOM_DOMException@@@8 1215c820     IDAttrImpl.obj
 0003:00012840       ??_C@_0EE@HHPM@c?3?2xml4c_root?2xerces?9c?9src1_7_0?2@ 1215c840     IDDocumentImpl.obj
 0003:00012884       ??_C@_0DF@ELDL@?4?4?2?4?4?2?4?4?2?4?4?2?4?4?2src?2xercesc?1idom?1@ 1215c884     IDDocumentImpl.obj
 0003:000128bc       ??_C@_0EB@JFOL@c?3?2xml4c_root?2xerces?9c?9src1_7_0?2@ 1215c8bc     IDNodeIDMap.obj
 0003:00012900       ??_R0?AVIDOM_RangeException@@@8 1215c900     IDRangeImpl.obj
 0003:00012930       ??_R0?AVtype_info@@@8      1215c930     MSVCRT:ti_inst.obj
 0003:00012950       ??_C@_00A@?$AA@            1215c950     Win32PlatformUtils.obj
 0003:00012958       ?globalModuleHandle@@3PAUHINSTANCE__@@A 1215c958     Win32MsgLoader.obj
 0003:0001295c       ?gWinsockLib@@3PAUHINSTANCE__@@A 1215c95c     BinHTTPURLInputStream.obj
 0003:00012960       ?gWSgethostbyname@@3P6GPAUhostent@@PBD@ZA 1215c960     BinHTTPURLInputStream.obj
 0003:00012964       ?gWSinet_addr@@3P6GKPBD@ZA 1215c964     BinHTTPURLInputStream.obj
 0003:00012968       ?gWSgethostbyaddr@@3P6GPAUhostent@@PBDHH@ZA 1215c968     BinHTTPURLInputStream.obj
 0003:0001296c       ?gWShtons@@3P6GGG@ZA       1215c96c     BinHTTPURLInputStream.obj
 0003:00012970       ?gWSsocket@@3P6GIHHH@ZA    1215c970     BinHTTPURLInputStream.obj
 0003:00012974       ?gWSconnect@@3P6GHIPBUsockaddr@@H@ZA 1215c974     BinHTTPURLInputStream.obj
 0003:00012978       ?gWSsend@@3P6GHIPBDHH@ZA   1215c978     BinHTTPURLInputStream.obj
 0003:0001297c       ?gWSrecv@@3P6GHIPADHH@ZA   1215c97c     BinHTTPURLInputStream.obj
 0003:00012980       ?gWSshutdown@@3P6GHIH@ZA   1215c980     BinHTTPURLInputStream.obj
 0003:00012984       ?gWSclosesocket@@3P6GHI@ZA 1215c984     BinHTTPURLInputStream.obj
 0003:00012988       ?gWSACleanup@@3P6GHXZA     1215c988     BinHTTPURLInputStream.obj
 0003:0001298c       ?fInitialized@BinHTTPURLInputStream@@0_NA 1215c98c     BinHTTPURLInputStream.obj
 0003:00012990       ?fInitMutex@BinHTTPURLInputStream@@0PAVXMLMutex@@A 1215c990     BinHTTPURLInputStream.obj
 0003:000129a8       ?fInstance@RangeTokenMap@@0PAV1@A 1215c9a8     RangeTokenMap.obj
 0003:000129ac       ?fWordRange@RegularExpression@@0PAVRangeToken@@A 1215c9ac     RegularExpression.obj
 0003:000129b0       ?base64Inverse@Base64@@0PAEA 1215c9b0     Base64.obj
 0003:00012aaf       ?isInitialized@Base64@@0_NA 1215caaf     Base64.obj
 0003:00012ab0       ?hexNumberTable@HexBin@@0PA_NA 1215cab0     HexBin.obj
 0003:00012baf       ?isInitialized@HexBin@@0_NA 1215cbaf     HexBin.obj
 0003:00012bb8       ?gXMLCleanupList@@3PAVXMLRegisterCleanup@@A 1215cbb8     PlatformUtils.obj
 0003:00012bbc       ?gXMLCleanupListMutex@@3PAVXMLMutex@@A 1215cbbc     PlatformUtils.obj
 0003:00012bc0       ?fgNetAccessor@XMLPlatformUtils@@2PAVXMLNetAccessor@@A 1215cbc0     PlatformUtils.obj
 0003:00012bc4       ?fgTransService@XMLPlatformUtils@@2PAVXMLTransService@@A 1215cbc4     PlatformUtils.obj
 0003:00012d64       ?fNEL@XMLReader@@0_NA      1215cd64     XMLReader.obj
 0003:00012e84       ?freeListPtr@DOMStringHandle@@0PAXA 1215ce84     DOMString.obj
 0003:00012e88       ?blockListPtr@DOMStringHandle@@0PAV1@A 1215ce88     DOMString.obj
 0003:00012e8c       ?gLiveStringDataCount@DOMString@@0HA 1215ce8c     DOMString.obj
 0003:00012e90       ?gTotalStringDataCount@DOMString@@0HA 1215ce90     DOMString.obj
 0003:00012e94       ?gLiveStringHandleCount@DOMString@@0HA 1215ce94     DOMString.obj
 0003:00012e98       ?gTotalStringHandleCount@DOMString@@0HA 1215ce98     DOMString.obj
 0003:00012eb0       ?gLiveNamedNodeMaps@NamedNodeMapImpl@@1HA 1215ceb0     NamedNodeMapImpl.obj
 0003:00012eb4       ?gTotalNamedNodeMaps@NamedNodeMapImpl@@1HA 1215ceb4     NamedNodeMapImpl.obj
 0003:00012ed4       ?gLiveNodeImpls@NodeImpl@@2HA 1215ced4     NodeImpl.obj
 0003:00012ed8       ?gTotalNodeImpls@NodeImpl@@2HA 1215ced8     NodeImpl.obj
 0003:0001301c       ?fBuiltInRegistry@DatatypeValidatorFactory@@0PAV?$RefHashTableOf@VDatatypeValidator@@@@A 1215d01c     DatatypeValidatorFactory.obj
 0003:00013344       ?fAttributes@GeneralAttributeCheck@@0PAPAVAttributeInfo@@A 1215d344     GeneralAttributeCheck.obj
 0003:00013348       ?fValidators@GeneralAttributeCheck@@0PAPAVDatatypeValidator@@A 1215d348     GeneralAttributeCheck.obj
 0003:0001334c       ?fElementMap@GeneralAttributeCheck@@0PAV?$RefHash2KeysTableOf@V?$RefVectorOf@VAttributeInfo@@@@@@A 1215d34c     GeneralAttributeCheck.obj
 0003:000133c4       __adjust_fdiv              1215d3c4     <common>
 0003:000133c8       __pRawDllMain              1215d3c8     <common>
 0003:000133cc       ___onexitend               1215d3cc     <common>
 0003:000133d0       ___onexitbegin             1215d3d0     <common>

 entry point at        0001:000c051c

 Static symbols

 0001:000ba080       ?reinitEmptyNodeList@@YAXXZ 120bb080 f   IDNodeImpl.obj
 0001:000ba0a0       _$E155                     120bb0a0 f   IDNodeImpl.obj
 0001:000b78f0       ?reinitImplementation@@YAXXZ 120b88f0 f   IDDOMImplementation.obj
 0001:000b7910       _$E155                     120b8910 f   IDDOMImplementation.obj
 0001:0008b1e0       _$E351                     1208c1e0 f   GeneralAttributeCheck.obj
 0001:0007cf30       ?makeRepNode@@YAPAVContentSpecNode@@GQAV1@@Z 1207df30 f   DTDScanner.obj
 0001:00071000       _$E365                     12072000 f   DatatypeValidatorFactory.obj
 0001:00064ff0       ?formatNode@@YAXQBVContentSpecNode@@W4NodeTypes@1@AAVXMLBuffer@@@Z 12065ff0 f   ContentSpecNode.obj
 0001:00063310       _$E158                     12064310 f   XMLDeclImpl.obj
 0001:00061780       _$E158                     12062780 f   TextImpl.obj
 0001:00057ee0       _$E158                     12058ee0 f   NodeImpl.obj
 0001:00054b20       _$E160                     12055b20 f   ElementImpl.obj
 0001:00051d20       _$E149                     12052d20 f   DOMString.obj
 0001:00051d40       _$E152                     12052d40 f   DOMString.obj
 0001:00054490       ?reinitDomConverter@@YAXXZ 12055490 f   DOMString.obj
 0001:000544b0       ?reinitDomMutex@@YAXXZ     120554b0 f   DOMString.obj
 0001:0004f7d0       _$E160                     120507d0 f   DOM_DOMImplementation.obj
 0001:0004f8f0       ?reinitImplementation@@YAXXZ 120508f0 f   DOM_DOMImplementation.obj
 0001:0004f910       _$E163                     12050910 f   DOM_DOMImplementation.obj
 0001:0004bbf0       _$E174                     1204cbf0 f   DocumentImpl.obj
 0001:0004b890       _$E19                      1204c890 f   DocumentFragmentImpl.obj
 0001:0004b300       _$E21                      1204c300 f   DeepNodeListImpl.obj
 0001:0004b050       _$E158                     1204c050 f   CommentImpl.obj
 0001:0004a610       _$E158                     1204b610 f   CDATASectionImpl.obj
 0001:00032530       _$E359                     12033530 f   XMLScanner.obj
 0001:00032550       _$E362                     12033550 f   XMLScanner.obj
 0001:0002c440       _$E359                     1202d440 f   XMLValidator.obj
 0001:0002c460       _$E362                     1202d460 f   XMLValidator.obj
 0001:0002c580       ?getMsgLoader@@YAAAVXMLMsgLoader@@XZ 1202d580 f   XMLValidator.obj
 0001:0001eb30       _$E143                     1201fb30 f   XMLFloat.obj
 0001:0001e320       _$E143                     1201f320 f   XMLException.obj
 0001:0001e340       _$E146                     1201f340 f   XMLException.obj
 0001:0001e6d0       ?gGetMsgLoader@@YAAAVXMLMsgLoader@@XZ 1201f6d0 f   XMLException.obj
 0001:0001dd00       _$E143                     1201ed00 f   XMLDouble.obj
 0001:000131e0       ?setupRange@@YAXQAVRangeToken@@QBG@Z 120141e0 f   XMLRangeFactory.obj
 0001:000095e0       _$E150                     1200a5e0 f   RangeTokenMap.obj
 0001:000c032a       ?ArrayUnwindFilter@@YAHPAU_EXCEPTION_POINTERS@@@Z 120c132a f   MSVCRT:ehvecdtr.obj

 48912 bytes saved through ICF

